declare i32 @llvm.eh.typeid.for(ptr)
declare i32 @__gxx_personality_v0(...)
declare ptr @__cxa_begin_catch(ptr)
declare void @__cxa_end_catch()
@_ZTIN11scalanative16ExceptionWrapperE = external constant { ptr, ptr, ptr }

@"_SM7__constG1-0" = private unnamed_addr constant { ptr, i32, i32, [28 x i16] } { ptr @"_SM35scala.scalanative.runtime.CharArrayG4type", i32 28, i32 2, [28 x i16] [ i16 106, i16 97, i16 118, i16 97, i16 46, i16 108, i16 97, i16 110, i16 103, i16 46, i16 99, i16 111, i16 110, i16 115, i16 116, i16 97, i16 110, i16 116, i16 46, i16 67, i16 111, i16 110, i16 115, i16 116, i16 97, i16 98, i16 108, i16 101 ] }
@"_SM7__constG1-1" = private unnamed_addr constant { ptr, ptr, i32, i32, i32 } { ptr @"_SM16java.lang.StringG4type", ptr @"_SM7__constG1-0", i32 0, i32 28, i32 -2030716537 }
@"_SM7__constG1-2" = private unnamed_addr constant { ptr, i32, i32, [31 x i16] } { ptr @"_SM35scala.scalanative.runtime.CharArrayG4type", i32 31, i32 2, [31 x i16] [ i16 106, i16 97, i16 118, i16 97, i16 46, i16 108, i16 97, i16 110, i16 103, i16 46, i16 99, i16 111, i16 110, i16 115, i16 116, i16 97, i16 110, i16 116, i16 46, i16 67, i16 111, i16 110, i16 115, i16 116, i16 97, i16 110, i16 116, i16 68, i16 101, i16 115, i16 99 ] }
@"_SM7__constG1-3" = private unnamed_addr constant { ptr, ptr, i32, i32, i32 } { ptr @"_SM16java.lang.StringG4type", ptr @"_SM7__constG1-2", i32 0, i32 31, i32 -2111934005 }
@"_SM7__constG1-4" = private unnamed_addr constant { ptr, i32, i32, [29 x i16] } { ptr @"_SM35scala.scalanative.runtime.CharArrayG4type", i32 29, i32 2, [29 x i16] [ i16 106, i16 97, i16 118, i16 97, i16 46, i16 110, i16 105, i16 111, i16 46, i16 99, i16 104, i16 97, i16 110, i16 110, i16 101, i16 108, i16 115, i16 46, i16 66, i16 121, i16 116, i16 101, i16 67, i16 104, i16 97, i16 110, i16 110, i16 101, i16 108 ] }
@"_SM7__constG1-5" = private unnamed_addr constant { ptr, ptr, i32, i32, i32 } { ptr @"_SM16java.lang.StringG4type", ptr @"_SM7__constG1-4", i32 0, i32 29, i32 -1852177533 }
@"_SM7__constG1-6" = private unnamed_addr constant { ptr, i32, i32, [25 x i16] } { ptr @"_SM35scala.scalanative.runtime.CharArrayG4type", i32 25, i32 2, [25 x i16] [ i16 106, i16 97, i16 118, i16 97, i16 46, i16 110, i16 105, i16 111, i16 46, i16 99, i16 104, i16 97, i16 110, i16 110, i16 101, i16 108, i16 115, i16 46, i16 67, i16 104, i16 97, i16 110, i16 110, i16 101, i16 108 ] }
@"_SM7__constG1-7" = private unnamed_addr constant { ptr, ptr, i32, i32, i32 } { ptr @"_SM16java.lang.StringG4type", ptr @"_SM7__constG1-6", i32 0, i32 25, i32 28580267 }
@"_SM7__constG1-8" = private unnamed_addr constant { ptr, i32, i32, [29 x i16] } { ptr @"_SM35scala.scalanative.runtime.CharArrayG4type", i32 29, i32 2, [29 x i16] [ i16 106, i16 97, i16 118, i16 97, i16 46, i16 110, i16 105, i16 111, i16 46, i16 99, i16 104, i16 97, i16 110, i16 110, i16 101, i16 108, i16 115, i16 46, i16 70, i16 105, i16 108, i16 101, i16 67, i16 104, i16 97, i16 110, i16 110, i16 101, i16 108 ] }
@"_SM7__constG1-9" = private unnamed_addr constant { ptr, ptr, i32, i32, i32 } { ptr @"_SM16java.lang.StringG4type", ptr @"_SM7__constG1-8", i32 0, i32 29, i32 -26065777 }
@"_SM7__constG2-10" = private unnamed_addr constant [1 x i32] [ i32 -1 ]
@"_SM7__constG2-11" = private unnamed_addr constant { ptr, i32, i32, [33 x i16] } { ptr @"_SM35scala.scalanative.runtime.CharArrayG4type", i32 33, i32 2, [33 x i16] [ i16 106, i16 97, i16 118, i16 97, i16 46, i16 110, i16 105, i16 111, i16 46, i16 99, i16 104, i16 97, i16 110, i16 110, i16 101, i16 108, i16 115, i16 46, i16 70, i16 105, i16 108, i16 101, i16 67, i16 104, i16 97, i16 110, i16 110, i16 101, i16 108, i16 73, i16 109, i16 112, i16 108 ] }
@"_SM7__constG2-12" = private unnamed_addr constant { ptr, ptr, i32, i32, i32 } { ptr @"_SM16java.lang.StringG4type", ptr @"_SM7__constG2-11", i32 0, i32 33, i32 1001536335 }
@"_SM7__constG2-13" = private unnamed_addr constant [3 x i32] [ i32 8, i32 16, i32 -1 ]
@"_SM7__constG2-14" = private unnamed_addr constant { ptr, i32, i32, [38 x i16] } { ptr @"_SM35scala.scalanative.runtime.CharArrayG4type", i32 38, i32 2, [38 x i16] [ i16 106, i16 97, i16 118, i16 97, i16 46, i16 110, i16 105, i16 111, i16 46, i16 99, i16 104, i16 97, i16 110, i16 110, i16 101, i16 108, i16 115, i16 46, i16 71, i16 97, i16 116, i16 104, i16 101, i16 114, i16 105, i16 110, i16 103, i16 66, i16 121, i16 116, i16 101, i16 67, i16 104, i16 97, i16 110, i16 110, i16 101, i16 108 ] }
@"_SM7__constG2-15" = private unnamed_addr constant { ptr, ptr, i32, i32, i32 } { ptr @"_SM16java.lang.StringG4type", ptr @"_SM7__constG2-14", i32 0, i32 38, i32 -1051481940 }
@"_SM7__constG2-16" = private unnamed_addr constant { ptr, i32, i32, [38 x i16] } { ptr @"_SM35scala.scalanative.runtime.CharArrayG4type", i32 38, i32 2, [38 x i16] [ i16 106, i16 97, i16 118, i16 97, i16 46, i16 110, i16 105, i16 111, i16 46, i16 99, i16 104, i16 97, i16 110, i16 110, i16 101, i16 108, i16 115, i16 46, i16 73, i16 110, i16 116, i16 101, i16 114, i16 114, i16 117, i16 112, i16 116, i16 105, i16 98, i16 108, i16 101, i16 67, i16 104, i16 97, i16 110, i16 110, i16 101, i16 108 ] }
@"_SM7__constG2-17" = private unnamed_addr constant { ptr, ptr, i32, i32, i32 } { ptr @"_SM16java.lang.StringG4type", ptr @"_SM7__constG2-16", i32 0, i32 38, i32 1983149670 }
@"_SM7__constG2-18" = private unnamed_addr constant { ptr, i32, i32, [37 x i16] } { ptr @"_SM35scala.scalanative.runtime.CharArrayG4type", i32 37, i32 2, [37 x i16] [ i16 106, i16 97, i16 118, i16 97, i16 46, i16 110, i16 105, i16 111, i16 46, i16 99, i16 104, i16 97, i16 110, i16 110, i16 101, i16 108, i16 115, i16 46, i16 82, i16 101, i16 97, i16 100, i16 97, i16 98, i16 108, i16 101, i16 66, i16 121, i16 116, i16 101, i16 67, i16 104, i16 97, i16 110, i16 110, i16 101, i16 108 ] }
@"_SM7__constG2-19" = private unnamed_addr constant { ptr, ptr, i32, i32, i32 } { ptr @"_SM16java.lang.StringG4type", ptr @"_SM7__constG2-18", i32 0, i32 37, i32 -2020509325 }
@"_SM7__constG2-20" = private unnamed_addr constant { ptr, i32, i32, [39 x i16] } { ptr @"_SM35scala.scalanative.runtime.CharArrayG4type", i32 39, i32 2, [39 x i16] [ i16 106, i16 97, i16 118, i16 97, i16 46, i16 110, i16 105, i16 111, i16 46, i16 99, i16 104, i16 97, i16 110, i16 110, i16 101, i16 108, i16 115, i16 46, i16 83, i16 99, i16 97, i16 116, i16 116, i16 101, i16 114, i16 105, i16 110, i16 103, i16 66, i16 121, i16 116, i16 101, i16 67, i16 104, i16 97, i16 110, i16 110, i16 101, i16 108 ] }
@"_SM7__constG2-21" = private unnamed_addr constant { ptr, ptr, i32, i32, i32 } { ptr @"_SM16java.lang.StringG4type", ptr @"_SM7__constG2-20", i32 0, i32 39, i32 337453695 }
@"_SM7__constG2-22" = private unnamed_addr constant { ptr, i32, i32, [37 x i16] } { ptr @"_SM35scala.scalanative.runtime.CharArrayG4type", i32 37, i32 2, [37 x i16] [ i16 106, i16 97, i16 118, i16 97, i16 46, i16 110, i16 105, i16 111, i16 46, i16 99, i16 104, i16 97, i16 110, i16 110, i16 101, i16 108, i16 115, i16 46, i16 83, i16 101, i16 101, i16 107, i16 97, i16 98, i16 108, i16 101, i16 66, i16 121, i16 116, i16 101, i16 67, i16 104, i16 97, i16 110, i16 110, i16 101, i16 108 ] }
@"_SM7__constG2-23" = private unnamed_addr constant { ptr, ptr, i32, i32, i32 } { ptr @"_SM16java.lang.StringG4type", ptr @"_SM7__constG2-22", i32 0, i32 37, i32 -1025481647 }
@"_SM7__constG2-24" = private unnamed_addr constant { ptr, i32, i32, [37 x i16] } { ptr @"_SM35scala.scalanative.runtime.CharArrayG4type", i32 37, i32 2, [37 x i16] [ i16 106, i16 97, i16 118, i16 97, i16 46, i16 110, i16 105, i16 111, i16 46, i16 99, i16 104, i16 97, i16 110, i16 110, i16 101, i16 108, i16 115, i16 46, i16 87, i16 114, i16 105, i16 116, i16 97, i16 98, i16 108, i16 101, i16 66, i16 121, i16 116, i16 101, i16 67, i16 104, i16 97, i16 110, i16 110, i16 101, i16 108 ] }
@"_SM7__constG2-25" = private unnamed_addr constant { ptr, ptr, i32, i32, i32 } { ptr @"_SM16java.lang.StringG4type", ptr @"_SM7__constG2-24", i32 0, i32 37, i32 632990659 }
@"_SM7__constG2-26" = private unnamed_addr constant { ptr, i32, i32, [27 x i16] } { ptr @"_SM35scala.scalanative.runtime.CharArrayG4type", i32 27, i32 2, [27 x i16] [ i16 106, i16 97, i16 118, i16 97, i16 46, i16 117, i16 116, i16 105, i16 108, i16 46, i16 102, i16 117, i16 110, i16 99, i16 116, i16 105, i16 111, i16 110, i16 46, i16 70, i16 117, i16 110, i16 99, i16 116, i16 105, i16 111, i16 110 ] }
@"_SM7__constG2-27" = private unnamed_addr constant { ptr, ptr, i32, i32, i32 } { ptr @"_SM16java.lang.StringG4type", ptr @"_SM7__constG2-26", i32 0, i32 27, i32 1667438510 }
@"_SM7__constG2-28" = private unnamed_addr constant { ptr, i32, i32, [27 x i16] } { ptr @"_SM35scala.scalanative.runtime.CharArrayG4type", i32 27, i32 2, [27 x i16] [ i16 106, i16 97, i16 118, i16 97, i16 46, i16 117, i16 116, i16 105, i16 108, i16 46, i16 102, i16 117, i16 110, i16 99, i16 116, i16 105, i16 111, i16 110, i16 46, i16 83, i16 117, i16 112, i16 112, i16 108, i16 105, i16 101, i16 114 ] }
@"_SM7__constG2-29" = private unnamed_addr constant { ptr, ptr, i32, i32, i32 } { ptr @"_SM16java.lang.StringG4type", ptr @"_SM7__constG2-28", i32 0, i32 27, i32 -1376805470 }
@"_SM7__constG2-30" = private unnamed_addr constant { ptr, i32, i32, [17 x i16] } { ptr @"_SM35scala.scalanative.runtime.CharArrayG4type", i32 17, i32 2, [17 x i16] [ i16 110, i16 105, i16 111, i16 99, i16 104, i16 97, i16 114, i16 115, i16 101, i16 116, i16 46, i16 85, i16 84, i16 70, i16 95, i16 56, i16 36 ] }
@"_SM7__constG2-31" = private unnamed_addr constant { ptr, ptr, i32, i32, i32 } { ptr @"_SM16java.lang.StringG4type", ptr @"_SM7__constG2-30", i32 0, i32 17, i32 -11743590 }
@"_SM7__constG2-32" = private unnamed_addr constant [5 x i32] [ i32 8, i32 16, i32 32, i32 40, i32 -1 ]
@"_SM7__constG2-33" = private unnamed_addr constant { ptr, i32, i32, [33 x i16] } { ptr @"_SM35scala.scalanative.runtime.CharArrayG4type", i32 33, i32 2, [33 x i16] [ i16 110, i16 105, i16 111, i16 99, i16 104, i16 97, i16 114, i16 115, i16 101, i16 116, i16 46, i16 85, i16 84, i16 70, i16 95, i16 56, i16 36, i16 68, i16 101, i16 99, i16 111, i16 100, i16 101, i16 100, i16 77, i16 117, i16 108, i16 116, i16 105, i16 66, i16 121, i16 116, i16 101 ] }
@"_SM7__constG2-34" = private unnamed_addr constant { ptr, ptr, i32, i32, i32 } { ptr @"_SM16java.lang.StringG4type", ptr @"_SM7__constG2-33", i32 0, i32 33, i32 -1681009403 }
@"_SM7__constG2-35" = private unnamed_addr constant [2 x i32] [ i32 16, i32 -1 ]
@"_SM7__constG2-36" = private unnamed_addr constant { ptr, i32, i32, [24 x i16] } { ptr @"_SM35scala.scalanative.runtime.CharArrayG4type", i32 24, i32 2, [24 x i16] [ i16 110, i16 105, i16 111, i16 99, i16 104, i16 97, i16 114, i16 115, i16 101, i16 116, i16 46, i16 85, i16 84, i16 70, i16 95, i16 56, i16 36, i16 68, i16 101, i16 99, i16 111, i16 100, i16 101, i16 114 ] }
@"_SM7__constG2-37" = private unnamed_addr constant { ptr, ptr, i32, i32, i32 } { ptr @"_SM16java.lang.StringG4type", ptr @"_SM7__constG2-36", i32 0, i32 24, i32 -504581046 }
@"_SM7__constG2-38" = private unnamed_addr constant [5 x i32] [ i32 16, i32 24, i32 32, i32 48, i32 -1 ]
@"_SM7__constG2-39" = private unnamed_addr constant { ptr, i32, i32, [24 x i16] } { ptr @"_SM35scala.scalanative.runtime.CharArrayG4type", i32 24, i32 2, [24 x i16] [ i16 110, i16 105, i16 111, i16 99, i16 104, i16 97, i16 114, i16 115, i16 101, i16 116, i16 46, i16 85, i16 84, i16 70, i16 95, i16 56, i16 36, i16 69, i16 110, i16 99, i16 111, i16 100, i16 101, i16 114 ] }
@"_SM7__constG2-40" = private unnamed_addr constant { ptr, ptr, i32, i32, i32 } { ptr @"_SM16java.lang.StringG4type", ptr @"_SM7__constG2-39", i32 0, i32 24, i32 640584994 }
@"_SM7__constG2-41" = private unnamed_addr constant { ptr, i32, i32, [33 x i16] } { ptr @"_SM35scala.scalanative.runtime.CharArrayG4type", i32 33, i32 2, [33 x i16] [ i16 115, i16 99, i16 97, i16 108, i16 97, i16 46, i16 99, i16 111, i16 110, i16 99, i16 117, i16 114, i16 114, i16 101, i16 110, i16 116, i16 46, i16 69, i16 120, i16 101, i16 99, i16 117, i16 116, i16 105, i16 111, i16 110, i16 67, i16 111, i16 110, i16 116, i16 101, i16 120, i16 116 ] }
@"_SM7__constG2-42" = private unnamed_addr constant { ptr, ptr, i32, i32, i32 } { ptr @"_SM16java.lang.StringG4type", ptr @"_SM7__constG2-41", i32 0, i32 33, i32 1192064582 }
@"_SM7__constG2-43" = private unnamed_addr constant { ptr, i32, i32, [41 x i16] } { ptr @"_SM35scala.scalanative.runtime.CharArrayG4type", i32 41, i32 2, [41 x i16] [ i16 115, i16 99, i16 97, i16 108, i16 97, i16 46, i16 99, i16 111, i16 110, i16 99, i16 117, i16 114, i16 114, i16 101, i16 110, i16 116, i16 46, i16 69, i16 120, i16 101, i16 99, i16 117, i16 116, i16 105, i16 111, i16 110, i16 67, i16 111, i16 110, i16 116, i16 101, i16 120, i16 116, i16 69, i16 120, i16 101, i16 99, i16 117, i16 116, i16 111, i16 114 ] }
@"_SM7__constG2-44" = private unnamed_addr constant { ptr, ptr, i32, i32, i32 } { ptr @"_SM16java.lang.StringG4type", ptr @"_SM7__constG2-43", i32 0, i32 41, i32 2106469689 }
@"_SM7__constG2-45" = private unnamed_addr constant { ptr, i32, i32, [34 x i16] } { ptr @"_SM35scala.scalanative.runtime.CharArrayG4type", i32 34, i32 2, [34 x i16] [ i16 115, i16 99, i16 97, i16 108, i16 97, i16 46, i16 114, i16 117, i16 110, i16 116, i16 105, i16 109, i16 101, i16 46, i16 102, i16 117, i16 110, i16 99, i16 116, i16 105, i16 111, i16 110, i16 46, i16 74, i16 80, i16 114, i16 111, i16 99, i16 101, i16 100, i16 117, i16 114, i16 101, i16 49 ] }
@"_SM7__constG2-46" = private unnamed_addr constant { ptr, ptr, i32, i32, i32 } { ptr @"_SM16java.lang.StringG4type", ptr @"_SM7__constG2-45", i32 0, i32 34, i32 232275600 }
@"_SM7__constG2-47" = private unnamed_addr constant { ptr, i32, i32, [34 x i16] } { ptr @"_SM35scala.scalanative.runtime.CharArrayG4type", i32 34, i32 2, [34 x i16] [ i16 115, i16 99, i16 97, i16 108, i16 97, i16 46, i16 114, i16 117, i16 110, i16 116, i16 105, i16 109, i16 101, i16 46, i16 102, i16 117, i16 110, i16 99, i16 116, i16 105, i16 111, i16 110, i16 46, i16 74, i16 80, i16 114, i16 111, i16 99, i16 101, i16 100, i16 117, i16 114, i16 101, i16 50 ] }
@"_SM7__constG2-48" = private unnamed_addr constant { ptr, ptr, i32, i32, i32 } { ptr @"_SM16java.lang.StringG4type", ptr @"_SM7__constG2-47", i32 0, i32 34, i32 232275601 }
@"_SM7__constG2-49" = private unnamed_addr constant { ptr, i32, i32, [29 x i16] } { ptr @"_SM35scala.scalanative.runtime.CharArrayG4type", i32 29, i32 2, [29 x i16] [ i16 115, i16 99, i16 97, i16 108, i16 97, i16 46, i16 115, i16 99, i16 97, i16 108, i16 97, i16 110, i16 97, i16 116, i16 105, i16 118, i16 101, i16 46, i16 112, i16 111, i16 115, i16 105, i16 120, i16 46, i16 101, i16 114, i16 114, i16 110, i16 111 ] }
@"_SM7__constG2-50" = private unnamed_addr constant { ptr, ptr, i32, i32, i32 } { ptr @"_SM16java.lang.StringG4type", ptr @"_SM7__constG2-49", i32 0, i32 29, i32 1772678786 }
@"_SM7__constG2-51" = private unnamed_addr constant { ptr, i32, i32, [28 x i16] } { ptr @"_SM35scala.scalanative.runtime.CharArrayG4type", i32 28, i32 2, [28 x i16] [ i16 115, i16 99, i16 97, i16 108, i16 97, i16 46, i16 115, i16 99, i16 97, i16 108, i16 97, i16 110, i16 97, i16 116, i16 105, i16 118, i16 101, i16 46, i16 112, i16 111, i16 115, i16 105, i16 120, i16 46, i16 112, i16 119, i16 100, i16 36 ] }
@"_SM7__constG2-52" = private unnamed_addr constant { ptr, ptr, i32, i32, i32 } { ptr @"_SM16java.lang.StringG4type", ptr @"_SM7__constG2-51", i32 0, i32 28, i32 2135725163 }
@"_SM7__constG2-53" = private unnamed_addr constant { ptr, i32, i32, [41 x i16] } { ptr @"_SM35scala.scalanative.runtime.CharArrayG4type", i32 41, i32 2, [41 x i16] [ i16 115, i16 99, i16 97, i16 108, i16 97, i16 46, i16 115, i16 99, i16 97, i16 108, i16 97, i16 110, i16 97, i16 116, i16 105, i16 118, i16 101, i16 46, i16 112, i16 111, i16 115, i16 105, i16 120, i16 46, i16 112, i16 119, i16 100, i16 79, i16 112, i16 115, i16 36, i16 112, i16 97, i16 115, i16 115, i16 119, i16 100, i16 79, i16 112, i16 115, i16 36 ] }
@"_SM7__constG2-54" = private unnamed_addr constant { ptr, ptr, i32, i32, i32 } { ptr @"_SM16java.lang.StringG4type", ptr @"_SM7__constG2-53", i32 0, i32 41, i32 1465656283 }
@"_SM7__constG2-55" = private unnamed_addr constant { ptr, i32, i32, [31 x i16] } { ptr @"_SM35scala.scalanative.runtime.CharArrayG4type", i32 31, i32 2, [31 x i16] [ i16 115, i16 99, i16 97, i16 108, i16 97, i16 46, i16 115, i16 99, i16 97, i16 108, i16 97, i16 110, i16 97, i16 116, i16 105, i16 118, i16 101, i16 46, i16 112, i16 111, i16 115, i16 105, i16 120, i16 46, i16 117, i16 110, i16 105, i16 115, i16 116, i16 100, i16 36 ] }
@"_SM7__constG2-56" = private unnamed_addr constant { ptr, ptr, i32, i32, i32 } { ptr @"_SM16java.lang.StringG4type", ptr @"_SM7__constG2-55", i32 0, i32 31, i32 -365217555 }
@"_SM7__constG2-57" = private unnamed_addr constant [2 x i32] [ i32 8, i32 -1 ]
@"_SM7__constG2-58" = private unnamed_addr constant { ptr, i32, i32, [32 x i16] } { ptr @"_SM35scala.scalanative.runtime.CharArrayG4type", i32 32, i32 2, [32 x i16] [ i16 115, i16 99, i16 97, i16 108, i16 97, i16 46, i16 115, i16 99, i16 97, i16 108, i16 97, i16 110, i16 97, i16 116, i16 105, i16 118, i16 101, i16 46, i16 117, i16 110, i16 115, i16 105, i16 103, i16 110, i16 101, i16 100, i16 46, i16 85, i16 66, i16 121, i16 116, i16 101 ] }
@"_SM7__constG2-59" = private unnamed_addr constant { ptr, ptr, i32, i32, i32 } { ptr @"_SM16java.lang.StringG4type", ptr @"_SM7__constG2-58", i32 0, i32 32, i32 -1162027619 }
@"_SM7__constG2-60" = private unnamed_addr constant { ptr, i32, i32, [33 x i16] } { ptr @"_SM35scala.scalanative.runtime.CharArrayG4type", i32 33, i32 2, [33 x i16] [ i16 115, i16 99, i16 97, i16 108, i16 97, i16 46, i16 115, i16 99, i16 97, i16 108, i16 97, i16 110, i16 97, i16 116, i16 105, i16 118, i16 101, i16 46, i16 117, i16 110, i16 115, i16 105, i16 103, i16 110, i16 101, i16 100, i16 46, i16 85, i16 66, i16 121, i16 116, i16 101, i16 36 ] }
@"_SM7__constG2-61" = private unnamed_addr constant { ptr, ptr, i32, i32, i32 } { ptr @"_SM16java.lang.StringG4type", ptr @"_SM7__constG2-60", i32 0, i32 33, i32 -1663117785 }
@"_SM7__constG2-62" = private unnamed_addr constant { ptr, i32, i32, [38 x i16] } { ptr @"_SM35scala.scalanative.runtime.CharArrayG4type", i32 38, i32 2, [38 x i16] [ i16 115, i16 99, i16 97, i16 108, i16 97, i16 46, i16 115, i16 99, i16 97, i16 108, i16 97, i16 110, i16 97, i16 116, i16 105, i16 118, i16 101, i16 46, i16 117, i16 110, i16 115, i16 105, i16 103, i16 110, i16 101, i16 100, i16 46, i16 85, i16 66, i16 121, i16 116, i16 101, i16 67, i16 97, i16 99, i16 104, i16 101, i16 36 ] }
@"_SM7__constG2-63" = private unnamed_addr constant { ptr, ptr, i32, i32, i32 } { ptr @"_SM16java.lang.StringG4type", ptr @"_SM7__constG2-62", i32 0, i32 38, i32 1743757535 }
@"_SM7__constG2-64" = private unnamed_addr constant { ptr, i32, i32, [31 x i16] } { ptr @"_SM35scala.scalanative.runtime.CharArrayG4type", i32 31, i32 2, [31 x i16] [ i16 115, i16 99, i16 97, i16 108, i16 97, i16 46, i16 115, i16 99, i16 97, i16 108, i16 97, i16 110, i16 97, i16 116, i16 105, i16 118, i16 101, i16 46, i16 117, i16 110, i16 115, i16 105, i16 103, i16 110, i16 101, i16 100, i16 46, i16 85, i16 73, i16 110, i16 116 ] }
@"_SM7__constG2-65" = private unnamed_addr constant { ptr, ptr, i32, i32, i32 } { ptr @"_SM16java.lang.StringG4type", ptr @"_SM7__constG2-64", i32 0, i32 31, i32 1209447610 }
@"_SM7__constG2-66" = private unnamed_addr constant { ptr, i32, i32, [32 x i16] } { ptr @"_SM35scala.scalanative.runtime.CharArrayG4type", i32 32, i32 2, [32 x i16] [ i16 115, i16 99, i16 97, i16 108, i16 97, i16 46, i16 115, i16 99, i16 97, i16 108, i16 97, i16 110, i16 97, i16 116, i16 105, i16 118, i16 101, i16 46, i16 117, i16 110, i16 115, i16 105, i16 103, i16 110, i16 101, i16 100, i16 46, i16 85, i16 73, i16 110, i16 116, i16 36 ] }
@"_SM7__constG2-67" = private unnamed_addr constant { ptr, ptr, i32, i32, i32 } { ptr @"_SM16java.lang.StringG4type", ptr @"_SM7__constG2-66", i32 0, i32 32, i32 -1161829718 }
@"_SM7__constG2-68" = private unnamed_addr constant { ptr, i32, i32, [37 x i16] } { ptr @"_SM35scala.scalanative.runtime.CharArrayG4type", i32 37, i32 2, [37 x i16] [ i16 115, i16 99, i16 97, i16 108, i16 97, i16 46, i16 115, i16 99, i16 97, i16 108, i16 97, i16 110, i16 97, i16 116, i16 105, i16 118, i16 101, i16 46, i16 117, i16 110, i16 115, i16 105, i16 103, i16 110, i16 101, i16 100, i16 46, i16 85, i16 73, i16 110, i16 116, i16 67, i16 97, i16 99, i16 104, i16 101, i16 36 ] }
@"_SM7__constG2-69" = private unnamed_addr constant { ptr, ptr, i32, i32, i32 } { ptr @"_SM16java.lang.StringG4type", ptr @"_SM7__constG2-68", i32 0, i32 37, i32 677441084 }
@"_SM7__constG2-70" = private unnamed_addr constant { ptr, i32, i32, [32 x i16] } { ptr @"_SM35scala.scalanative.runtime.CharArrayG4type", i32 32, i32 2, [32 x i16] [ i16 115, i16 99, i16 97, i16 108, i16 97, i16 46, i16 115, i16 99, i16 97, i16 108, i16 97, i16 110, i16 97, i16 116, i16 105, i16 118, i16 101, i16 46, i16 117, i16 110, i16 115, i16 105, i16 103, i16 110, i16 101, i16 100, i16 46, i16 85, i16 76, i16 111, i16 110, i16 103 ] }
@"_SM7__constG2-71" = private unnamed_addr constant { ptr, ptr, i32, i32, i32 } { ptr @"_SM16java.lang.StringG4type", ptr @"_SM7__constG2-70", i32 0, i32 32, i32 -1161739503 }
@"_SM7__constG2-72" = private unnamed_addr constant { ptr, i32, i32, [33 x i16] } { ptr @"_SM35scala.scalanative.runtime.CharArrayG4type", i32 33, i32 2, [33 x i16] [ i16 115, i16 99, i16 97, i16 108, i16 97, i16 46, i16 115, i16 99, i16 97, i16 108, i16 97, i16 110, i16 97, i16 116, i16 105, i16 118, i16 101, i16 46, i16 117, i16 110, i16 115, i16 105, i16 103, i16 110, i16 101, i16 100, i16 46, i16 85, i16 76, i16 111, i16 110, i16 103, i16 36 ] }
@"_SM7__constG2-73" = private unnamed_addr constant { ptr, ptr, i32, i32, i32 } { ptr @"_SM16java.lang.StringG4type", ptr @"_SM7__constG2-72", i32 0, i32 33, i32 -1654186189 }
@"_SM7__constG2-74" = private unnamed_addr constant { ptr, i32, i32, [38 x i16] } { ptr @"_SM35scala.scalanative.runtime.CharArrayG4type", i32 38, i32 2, [38 x i16] [ i16 115, i16 99, i16 97, i16 108, i16 97, i16 46, i16 115, i16 99, i16 97, i16 108, i16 97, i16 110, i16 97, i16 116, i16 105, i16 118, i16 101, i16 46, i16 117, i16 110, i16 115, i16 105, i16 103, i16 110, i16 101, i16 100, i16 46, i16 85, i16 76, i16 111, i16 110, i16 103, i16 67, i16 97, i16 99, i16 104, i16 101, i16 36 ] }
@"_SM7__constG2-75" = private unnamed_addr constant { ptr, ptr, i32, i32, i32 } { ptr @"_SM16java.lang.StringG4type", ptr @"_SM7__constG2-74", i32 0, i32 38, i32 581377875 }
@"_SM7__constG2-76" = private unnamed_addr constant { ptr, i32, i32, [33 x i16] } { ptr @"_SM35scala.scalanative.runtime.CharArrayG4type", i32 33, i32 2, [33 x i16] [ i16 115, i16 99, i16 97, i16 108, i16 97, i16 46, i16 115, i16 99, i16 97, i16 108, i16 97, i16 110, i16 97, i16 116, i16 105, i16 118, i16 101, i16 46, i16 117, i16 110, i16 115, i16 105, i16 103, i16 110, i16 101, i16 100, i16 46, i16 85, i16 83, i16 104, i16 111, i16 114, i16 116 ] }
@"_SM7__constG2-77" = private unnamed_addr constant { ptr, ptr, i32, i32, i32 } { ptr @"_SM16java.lang.StringG4type", ptr @"_SM7__constG2-76", i32 0, i32 33, i32 -1647928697 }
@"_SM7__constG2-78" = private unnamed_addr constant { ptr, i32, i32, [34 x i16] } { ptr @"_SM35scala.scalanative.runtime.CharArrayG4type", i32 34, i32 2, [34 x i16] [ i16 115, i16 99, i16 97, i16 108, i16 97, i16 46, i16 115, i16 99, i16 97, i16 108, i16 97, i16 110, i16 97, i16 116, i16 105, i16 118, i16 101, i16 46, i16 117, i16 110, i16 115, i16 105, i16 103, i16 110, i16 101, i16 100, i16 46, i16 85, i16 83, i16 104, i16 111, i16 114, i16 116, i16 36 ] }
@"_SM7__constG2-79" = private unnamed_addr constant { ptr, ptr, i32, i32, i32 } { ptr @"_SM16java.lang.StringG4type", ptr @"_SM7__constG2-78", i32 0, i32 34, i32 453817981 }
@"_SM7__constG2-80" = private unnamed_addr constant { ptr, i32, i32, [39 x i16] } { ptr @"_SM35scala.scalanative.runtime.CharArrayG4type", i32 39, i32 2, [39 x i16] [ i16 115, i16 99, i16 97, i16 108, i16 97, i16 46, i16 115, i16 99, i16 97, i16 108, i16 97, i16 110, i16 97, i16 116, i16 105, i16 118, i16 101, i16 46, i16 117, i16 110, i16 115, i16 105, i16 103, i16 110, i16 101, i16 100, i16 46, i16 85, i16 83, i16 104, i16 111, i16 114, i16 116, i16 67, i16 97, i16 99, i16 104, i16 101, i16 36 ] }
@"_SM7__constG2-81" = private unnamed_addr constant { ptr, ptr, i32, i32, i32 } { ptr @"_SM16java.lang.StringG4type", ptr @"_SM7__constG2-80", i32 0, i32 39, i32 -1909553591 }
@"_SM7__constG2-82" = private unnamed_addr constant { ptr, i32, i32, [32 x i16] } { ptr @"_SM35scala.scalanative.runtime.CharArrayG4type", i32 32, i32 2, [32 x i16] [ i16 115, i16 99, i16 97, i16 108, i16 97, i16 46, i16 115, i16 99, i16 97, i16 108, i16 97, i16 110, i16 97, i16 116, i16 105, i16 118, i16 101, i16 46, i16 117, i16 110, i16 115, i16 105, i16 103, i16 110, i16 101, i16 100, i16 46, i16 85, i16 83, i16 105, i16 122, i16 101 ] }
@"_SM7__constG2-83" = private unnamed_addr constant { ptr, ptr, i32, i32, i32 } { ptr @"_SM16java.lang.StringG4type", ptr @"_SM7__constG2-82", i32 0, i32 32, i32 -1161536362 }
@"_SM7__constG2-84" = private unnamed_addr constant { ptr, i32, i32, [38 x i16] } { ptr @"_SM35scala.scalanative.runtime.CharArrayG4type", i32 38, i32 2, [38 x i16] [ i16 115, i16 99, i16 97, i16 108, i16 97, i16 46, i16 115, i16 99, i16 97, i16 108, i16 97, i16 110, i16 97, i16 116, i16 105, i16 118, i16 101, i16 46, i16 117, i16 110, i16 115, i16 105, i16 103, i16 110, i16 101, i16 100, i16 46, i16 85, i16 83, i16 105, i16 122, i16 101, i16 67, i16 97, i16 99, i16 104, i16 101, i16 36 ] }
@"_SM7__constG2-85" = private unnamed_addr constant { ptr, ptr, i32, i32, i32 } { ptr @"_SM16java.lang.StringG4type", ptr @"_SM7__constG2-84", i32 0, i32 38, i32 -875544296 }
@"_SM7__constG2-86" = private unnamed_addr constant { ptr, i32, i32, [30 x i16] } { ptr @"_SM35scala.scalanative.runtime.CharArrayG4type", i32 30, i32 2, [30 x i16] [ i16 115, i16 99, i16 97, i16 108, i16 97, i16 46, i16 117, i16 116, i16 105, i16 108, i16 46, i16 104, i16 97, i16 115, i16 104, i16 105, i16 110, i16 103, i16 46, i16 77, i16 117, i16 114, i16 109, i16 117, i16 114, i16 72, i16 97, i16 115, i16 104, i16 51 ] }
@"_SM7__constG2-87" = private unnamed_addr constant { ptr, ptr, i32, i32, i32 } { ptr @"_SM16java.lang.StringG4type", ptr @"_SM7__constG2-86", i32 0, i32 30, i32 -585051705 }
@"_SM7__constG2-88" = private unnamed_addr constant { ptr, i32, i32, [31 x i16] } { ptr @"_SM35scala.scalanative.runtime.CharArrayG4type", i32 31, i32 2, [31 x i16] [ i16 115, i16 99, i16 97, i16 108, i16 97, i16 46, i16 117, i16 116, i16 105, i16 108, i16 46, i16 104, i16 97, i16 115, i16 104, i16 105, i16 110, i16 103, i16 46, i16 77, i16 117, i16 114, i16 109, i16 117, i16 114, i16 72, i16 97, i16 115, i16 104, i16 51, i16 36 ] }
@"_SM7__constG2-89" = private unnamed_addr constant { ptr, ptr, i32, i32, i32 } { ptr @"_SM16java.lang.StringG4type", ptr @"_SM7__constG2-88", i32 0, i32 31, i32 -956733635 }
@"_SM7__constG2-90" = private unnamed_addr constant { ptr, i32, i32, [38 x i16] } { ptr @"_SM35scala.scalanative.runtime.CharArrayG4type", i32 38, i32 2, [38 x i16] [ i16 115, i16 99, i16 97, i16 108, i16 97, i16 46, i16 117, i16 116, i16 105, i16 108, i16 46, i16 104, i16 97, i16 115, i16 104, i16 105, i16 110, i16 103, i16 46, i16 77, i16 117, i16 114, i16 109, i16 117, i16 114, i16 72, i16 97, i16 115, i16 104, i16 51, i16 36, i16 97, i16 99, i16 99, i16 117, i16 109, i16 36, i16 49 ] }
@"_SM7__constG2-91" = private unnamed_addr constant { ptr, ptr, i32, i32, i32 } { ptr @"_SM16java.lang.StringG4type", ptr @"_SM7__constG2-90", i32 0, i32 38, i32 846366537 }
@"_SM7__constG2-92" = private unnamed_addr constant { ptr, i32, i32, [8 x i16] } { ptr @"_SM35scala.scalanative.runtime.CharArrayG4type", i32 8, i32 2, [8 x i16] [ i16 78, i16 111, i16 110, i16 101, i16 46, i16 103, i16 101, i16 116 ] }
@"_SM7__constG2-93" = private unnamed_addr constant { ptr, ptr, i32, i32, i32 } { ptr @"_SM16java.lang.StringG4type", ptr @"_SM7__constG2-92", i32 0, i32 8, i32 1472868288 }
@"_SM7__constG2-94" = private unnamed_addr constant { ptr, i32, i32, [0 x i16] } { ptr @"_SM35scala.scalanative.runtime.CharArrayG4type", i32 0, i32 2, [0 x i16] [  ] }
@"_SM7__constG2-95" = private unnamed_addr constant { ptr, ptr, i32, i32, i32 } { ptr @"_SM16java.lang.StringG4type", ptr @"_SM7__constG2-94", i32 0, i32 0, i32 0 }
@"_SM7__constG2-96" = private unnamed_addr constant { ptr, i32, i32, [6 x i16] } { ptr @"_SM35scala.scalanative.runtime.CharArrayG4type", i32 6, i32 2, [6 x i16] [ i16 98, i16 117, i16 102, i16 102, i16 101, i16 114 ] }
@"_SM7__constG2-97" = private unnamed_addr constant { ptr, ptr, i32, i32, i32 } { ptr @"_SM16java.lang.StringG4type", ptr @"_SM7__constG2-96", i32 0, i32 6, i32 -1378118592 }
@"_SM7__constG2-98" = private unnamed_addr constant { ptr, i32, i32, [1 x i16] } { ptr @"_SM35scala.scalanative.runtime.CharArrayG4type", i32 1, i32 2, [1 x i16] [ i16 65533 ] }
@"_SM7__constG2-99" = private unnamed_addr constant { ptr, ptr, i32, i32, i32 } { ptr @"_SM16java.lang.StringG4type", ptr @"_SM7__constG2-98", i32 0, i32 1, i32 65533 }
@"_SM7__constG3-100" = private unnamed_addr constant [1 x i8] [ i8 63 ]
@"_SM7__constG3-101" = private unnamed_addr constant [128 x i32] [ i32 -1, i32 -1, i32 -1, i32 -1, i32 -1, i32 -1, i32 -1, i32 -1, i32 -1, i32 -1, i32 -1, i32 -1, i32 -1, i32 -1, i32 -1, i32 -1, i32 -1, i32 -1, i32 -1, i32 -1, i32 -1, i32 -1, i32 -1, i32 -1, i32 -1, i32 -1, i32 -1, i32 -1, i32 -1, i32 -1, i32 -1, i32 -1, i32 -1, i32 -1, i32 -1, i32 -1, i32 -1, i32 -1, i32 -1, i32 -1, i32 -1, i32 -1, i32 -1, i32 -1, i32 -1, i32 -1, i32 -1, i32 -1, i32 -1, i32 -1, i32 -1, i32 -1, i32 -1, i32 -1, i32 -1, i32 -1, i32 -1, i32 -1, i32 -1, i32 -1, i32 -1, i32 -1, i32 -1, i32 -1, i32 2, i32 2, i32 2, i32 2, i32 2, i32 2, i32 2, i32 2, i32 2, i32 2, i32 2, i32 2, i32 2, i32 2, i32 2, i32 2, i32 2, i32 2, i32 2, i32 2, i32 2, i32 2, i32 2, i32 2, i32 2, i32 2, i32 2, i32 2, i32 2, i32 2, i32 2, i32 2, i32 3, i32 3, i32 3, i32 3, i32 3, i32 3, i32 3, i32 3, i32 3, i32 3, i32 3, i32 3, i32 3, i32 3, i32 3, i32 3, i32 4, i32 4, i32 4, i32 4, i32 4, i32 4, i32 4, i32 4, i32 -1, i32 -1, i32 -1, i32 -1, i32 -1, i32 -1, i32 -1, i32 -1 ]
@"_SM7__constG3-102" = private unnamed_addr constant { ptr, i32, i32, [5 x i16] } { ptr @"_SM35scala.scalanative.runtime.CharArrayG4type", i32 5, i32 2, [5 x i16] [ i16 85, i16 84, i16 70, i16 45, i16 56 ] }
@"_SM7__constG3-103" = private unnamed_addr constant { ptr, ptr, i32, i32, i32 } { ptr @"_SM16java.lang.StringG4type", ptr @"_SM7__constG3-102", i32 0, i32 5, i32 81070450 }
@"_SM7__constG3-104" = private unnamed_addr constant { ptr, i32, i32, [4 x i16] } { ptr @"_SM35scala.scalanative.runtime.CharArrayG4type", i32 4, i32 2, [4 x i16] [ i16 85, i16 84, i16 70, i16 56 ] }
@"_SM7__constG3-105" = private unnamed_addr constant { ptr, ptr, i32, i32, i32 } { ptr @"_SM16java.lang.StringG4type", ptr @"_SM7__constG3-104", i32 0, i32 4, i32 2615185 }
@"_SM7__constG3-106" = private unnamed_addr constant { ptr, i32, i32, [17 x i16] } { ptr @"_SM35scala.scalanative.runtime.CharArrayG4type", i32 17, i32 2, [17 x i16] [ i16 117, i16 110, i16 105, i16 99, i16 111, i16 100, i16 101, i16 45, i16 49, i16 45, i16 49, i16 45, i16 117, i16 116, i16 102, i16 45, i16 56 ] }
@"_SM7__constG3-107" = private unnamed_addr constant { ptr, ptr, i32, i32, i32 } { ptr @"_SM16java.lang.StringG4type", ptr @"_SM7__constG3-106", i32 0, i32 17, i32 815511658 }
@"_SM7__constG3-108" = private unnamed_addr constant { ptr, i32, i32, [18 x i16] } { ptr @"_SM35scala.scalanative.runtime.CharArrayG4type", i32 18, i32 2, [18 x i16] [ i16 111, i16 98, i16 106, i16 101, i16 99, i16 116, i16 32, i16 115, i16 99, i16 97, i16 108, i16 97, i16 46, i16 85, i16 66, i16 121, i16 116, i16 101 ] }
@"_SM7__constG3-109" = private unnamed_addr constant { ptr, ptr, i32, i32, i32 } { ptr @"_SM16java.lang.StringG4type", ptr @"_SM7__constG3-108", i32 0, i32 18, i32 321942772 }
@"_SM7__constG3-110" = private unnamed_addr constant { ptr, i32, i32, [17 x i16] } { ptr @"_SM35scala.scalanative.runtime.CharArrayG4type", i32 17, i32 2, [17 x i16] [ i16 111, i16 98, i16 106, i16 101, i16 99, i16 116, i16 32, i16 115, i16 99, i16 97, i16 108, i16 97, i16 46, i16 85, i16 73, i16 110, i16 116 ] }
@"_SM7__constG3-111" = private unnamed_addr constant { ptr, ptr, i32, i32, i32 } { ptr @"_SM16java.lang.StringG4type", ptr @"_SM7__constG3-110", i32 0, i32 17, i32 1672959619 }
@"_SM7__constG3-112" = private unnamed_addr constant { ptr, i32, i32, [18 x i16] } { ptr @"_SM35scala.scalanative.runtime.CharArrayG4type", i32 18, i32 2, [18 x i16] [ i16 111, i16 98, i16 106, i16 101, i16 99, i16 116, i16 32, i16 115, i16 99, i16 97, i16 108, i16 97, i16 46, i16 85, i16 76, i16 111, i16 110, i16 103 ] }
@"_SM7__constG3-113" = private unnamed_addr constant { ptr, ptr, i32, i32, i32 } { ptr @"_SM16java.lang.StringG4type", ptr @"_SM7__constG3-112", i32 0, i32 18, i32 322230888 }
@"_SM7__constG3-114" = private unnamed_addr constant { ptr, i32, i32, [19 x i16] } { ptr @"_SM35scala.scalanative.runtime.CharArrayG4type", i32 19, i32 2, [19 x i16] [ i16 111, i16 98, i16 106, i16 101, i16 99, i16 116, i16 32, i16 115, i16 99, i16 97, i16 108, i16 97, i16 46, i16 85, i16 83, i16 104, i16 111, i16 114, i16 116 ] }
@"_SM7__constG3-115" = private unnamed_addr constant { ptr, ptr, i32, i32, i32 } { ptr @"_SM16java.lang.StringG4type", ptr @"_SM7__constG3-114", i32 0, i32 19, i32 1405480464 }
@"_SM7__constG3-116" = private unnamed_addr constant { ptr, i32, i32, [6 x i16] } { ptr @"_SM35scala.scalanative.runtime.CharArrayG4type", i32 6, i32 2, [6 x i16] [ i16 84, i16 117, i16 112, i16 108, i16 101, i16 50 ] }
@"_SM7__constG3-117" = private unnamed_addr constant { ptr, ptr, i32, i32, i32 } { ptr @"_SM16java.lang.StringG4type", ptr @"_SM7__constG3-116", i32 0, i32 6, i32 -1778623094 }
@"_SM7__constG3-118" = private unnamed_addr constant { ptr, i32, i32, [3 x i16] } { ptr @"_SM35scala.scalanative.runtime.CharArrayG4type", i32 3, i32 2, [3 x i16] [ i16 83, i16 101, i16 113 ] }
@"_SM7__constG3-119" = private unnamed_addr constant { ptr, ptr, i32, i32, i32 } { ptr @"_SM16java.lang.StringG4type", ptr @"_SM7__constG3-118", i32 0, i32 3, i32 83007 }
@"_SM7__constG3-120" = private unnamed_addr constant { ptr, i32, i32, [3 x i16] } { ptr @"_SM35scala.scalanative.runtime.CharArrayG4type", i32 3, i32 2, [3 x i16] [ i16 77, i16 97, i16 112 ] }
@"_SM7__constG3-121" = private unnamed_addr constant { ptr, ptr, i32, i32, i32 } { ptr @"_SM16java.lang.StringG4type", ptr @"_SM7__constG3-120", i32 0, i32 3, i32 77116 }
@"_SM7__constG3-122" = private unnamed_addr constant { ptr, i32, i32, [3 x i16] } { ptr @"_SM35scala.scalanative.runtime.CharArrayG4type", i32 3, i32 2, [3 x i16] [ i16 83, i16 101, i16 116 ] }
@"_SM7__constG3-123" = private unnamed_addr constant { ptr, ptr, i32, i32, i32 } { ptr @"_SM16java.lang.StringG4type", ptr @"_SM7__constG3-122", i32 0, i32 3, i32 83010 }
@"_SM7__constG3-124" = private unnamed_addr constant { ptr, i32, i32, [11 x i16] } { ptr @"_SM35scala.scalanative.runtime.CharArrayG4type", i32 11, i32 2, [11 x i16] [ i16 60, i16 102, i16 117, i16 110, i16 99, i16 116, i16 105, i16 111, i16 110, i16 50, i16 62 ] }
@"_SM7__constG3-125" = private unnamed_addr constant { ptr, ptr, i32, i32, i32 } { ptr @"_SM16java.lang.StringG4type", ptr @"_SM7__constG3-124", i32 0, i32 11, i32 -505689760 }
@"_SM29java.nio.file.PosixException$G8instance" = external global { ptr }

declare dereferenceable_or_null(16) ptr @"_SM35scala.scalanative.runtime.IntArray$D8snapshotiR_L34scala.scalanative.runtime.IntArrayEO"(ptr, i32, ptr) inlinehint

declare i8 @"_SM19java.nio.ByteBufferD3getbEO"(ptr)

declare dereferenceable_or_null(8) ptr @"_SM39scala.collection.immutable.$colon$colonD4headL16java.lang.ObjectEO"(ptr) alwaysinline

declare dereferenceable_or_null(16) ptr @"_SM32scala.scalanative.runtime.Boxes$D8boxToPtrR_L28scala.scalanative.unsafe.PtrEO"(ptr, ptr) inlinehint
@"_SM34scala.scalanative.runtime.package$G8instance" = external global { ptr }

declare i16 @"_SM19java.nio.CharBufferD3getcEO"(ptr)
@"_SM39scala.collection.immutable.$colon$colonG4type" = external global { { ptr, i32, i32, ptr }, i32, i32, ptr, [10 x ptr] }

declare dereferenceable_or_null(8) ptr @"_SM39scala.collection.immutable.$colon$colonD4tailL16java.lang.ObjectEO"(ptr) alwaysinline
@"_SM27scala.collection.IndexedSeqG4type" = external global { ptr, i32, i32, ptr }
@"_SM36scala.scalanative.runtime.ByteArray$G8instance" = external global { ptr }
@"_SM19java.lang.ThrowableG4type" = external global { { ptr, i32, i32, ptr }, i32, i32, ptr, [4 x ptr] }
@"_SM36scala.scalanative.runtime.BoxedUnit$G8instance" = external global { ptr }

declare dereferenceable_or_null(32) ptr @"_SM16java.lang.ObjectD8getClassL15java.lang.ClassEO"(ptr) inlinehint

declare ptr @"_SM25java.nio.StringCharBufferD3putcL19java.nio.CharBufferEO"(ptr, i16)

declare nonnull dereferenceable(40) ptr @"_SM29java.nio.file.PosixException$D5applyL16java.lang.StringiL19java.io.IOExceptionEO"(ptr, ptr, i32)

declare dereferenceable_or_null(16) ptr @"_SM32scala.scalanative.runtime.Boxes$D10boxToULongjL32scala.scalanative.unsigned.ULongEO"(ptr, i64) inlinehint
@"_SM39java.lang.UnsupportedOperationExceptionG4type" = external global { { ptr, i32, i32, ptr }, i32, i32, ptr, [4 x ptr] }

declare dereferenceable_or_null(16) ptr @"_SM32scala.scalanative.runtime.Boxes$D11boxToUShortsL33scala.scalanative.unsigned.UShortEO"(ptr, i16) inlinehint

declare ptr @"_SM34scala.scalanative.runtime.package$D16throwNullPointernEO"(ptr) noinline

declare dereferenceable_or_null(16) ptr @"_SM14scala.package$D14Nil$lzycomputeL31scala.collection.immutable.Nil$EPT14scala.package$"(ptr)
@"_SM31scala.collection.immutable.ListG4type" = external global { { ptr, i32, i32, ptr }, i32, i32, ptr, [10 x ptr] }

declare ptr @"_SM34scala.scalanative.runtime.package$D16throwOutOfBoundsiinEO"(ptr, i32, i32)
@"_SM23scala.runtime.LazyVals$G8instance" = external global { ptr }
@"_SM35scala.scalanative.runtime.CharArrayG4type" = external global { { ptr, i32, i32, ptr }, i32, i32, ptr, [7 x ptr] }

declare void @"_SM19java.io.PrintStreamD7printlnL16java.lang.StringuEO"(ptr, ptr)

declare i64 @"_SM23scala.runtime.LazyVals$D5STATEjijEO"(ptr, i64, i32)

declare dereferenceable_or_null(32) ptr @"_SM24java.nio.charset.CharsetD8toStringL16java.lang.StringEO"(ptr)

declare i8 @"_SM27scala.runtime.BoxesRunTime$D11unboxToByteL16java.lang.ObjectbEO"(ptr, ptr) inlinehint
@"_SM35scala.scalanative.runtime.LazyVals$G8instance" = external global { ptr }

declare void @"_SM35scala.scalanative.runtime.LazyVals$D7setFlagR_iiuEO"(ptr, ptr, i32, i32) inlinehint

declare dereferenceable_or_null(40) ptr @"_SM19java.lang.ThrowableD16fillInStackTraceL19java.lang.ThrowableEO"(ptr)
@"_SM23java.nio.HeapByteBufferG4type" = external global { { ptr, i32, i32, ptr }, i32, i32, ptr, [3 x ptr] }

declare dereferenceable_or_null(32) ptr @"_SM35java.nio.charset.CodingErrorAction$G4load"() noinline

declare i16 @"_SM27scala.runtime.BoxesRunTime$D12unboxToShortL16java.lang.ObjectsEO"(ptr, ptr) inlinehint

declare i32 @"scalanative_errno"()

declare dereferenceable_or_null(16) ptr @"_SM27scala.runtime.BoxesRunTime$D9boxToBytebL14java.lang.ByteEO"(ptr, i8) inlinehint
@"_SM14java.lang.LongG4type" = external global { { ptr, i32, i32, ptr }, i32, i32, ptr, [7 x ptr] }

declare nonnull dereferenceable(32) ptr @"_SM15java.lang.Long$D16toUnsignedStringjiL16java.lang.StringEO"(ptr, i64, i32)
@"_SM32java.util.NoSuchElementExceptionG4type" = external global { { ptr, i32, i32, ptr }, i32, i32, ptr, [4 x ptr] }

declare i1 @"_SM16java.lang.ObjectD6equalsL16java.lang.ObjectzEO"(ptr, ptr) inlinehint
@"_SM18java.lang.Integer$G8instance" = external global { ptr }
@"_SM16java.lang.StringG4type" = external global { { ptr, i32, i32, ptr }, i32, i32, ptr, [3 x ptr] }
@"_SM35java.lang.IndexOutOfBoundsExceptionG4type" = external global { { ptr, i32, i32, ptr }, i32, i32, ptr, [4 x ptr] }
@"_SM16java.lang.NumberG4type" = external global { { ptr, i32, i32, ptr }, i32, i32, ptr, [7 x ptr] }

declare dereferenceable_or_null(16) ptr @"_SM36scala.scalanative.runtime.ByteArray$D8snapshotiR_L35scala.scalanative.runtime.ByteArrayEO"(ptr, i32, ptr) inlinehint

declare ptr @"_SM31scala.collection.immutable.Nil$D4headL16java.lang.ObjectEO"(ptr) alwaysinline

declare dereferenceable_or_null(16) ptr @"_SM32scala.scalanative.runtime.Boxes$D9boxToUIntiL31scala.scalanative.unsigned.UIntEO"(ptr, i32) inlinehint

declare dereferenceable_or_null(56) ptr @"_SM19java.nio.ByteBufferD3putbL19java.nio.ByteBufferEO"(ptr, i8)

declare ptr @"_SM32scala.scalanative.runtime.Boxes$D10unboxToPtrL16java.lang.ObjectR_EO"(ptr, ptr) inlinehint

declare i32 @"_SM16java.lang.ObjectD8hashCodeiEO"(ptr) inlinehint

declare i32 @"_SM16java.lang.StringD8hashCodeiEO"(ptr)

declare i32 @"_SM24java.nio.charset.CharsetD8hashCodeiEO"(ptr)

declare dereferenceable_or_null(16) ptr @"_SM38scala.scalanative.runtime.ObjectArray$D5allociL37scala.scalanative.runtime.ObjectArrayEO"(ptr, i32) inlinehint
@"_SM23java.nio.HeapCharBufferG4type" = external global { { ptr, i32, i32, ptr }, i32, i32, ptr, [4 x ptr] }

declare dereferenceable_or_null(16) ptr @"_SM32scala.scalanative.runtime.Boxes$D10boxToUBytebL32scala.scalanative.unsigned.UByteEO"(ptr, i8) inlinehint

declare dereferenceable_or_null(48) ptr @"_SM19java.nio.CharBufferD3putcL19java.nio.CharBufferEO"(ptr, i16)

declare ptr @"_SM34scala.scalanative.runtime.package$D14throwClassCastR_R_nEO"(ptr, ptr, ptr) noinline

declare ptr @"scalanative_throw"(ptr)
@"__modules" = external global [151 x ptr]

declare i32 @"_SM27scala.runtime.BoxesRunTime$D10unboxToIntL16java.lang.ObjectiEO"(ptr, ptr) inlinehint

declare nonnull dereferenceable(32) ptr @"_SM18java.lang.Integer$D16toUnsignedStringiiL16java.lang.StringEO"(ptr, i32, i32)
@"_SM16java.lang.DoubleG4type" = external global { { ptr, i32, i32, ptr }, i32, i32, ptr, [7 x ptr] }

declare dereferenceable_or_null(16) ptr @"_SM27scala.runtime.BoxesRunTime$D10boxToShortsL15java.lang.ShortEO"(ptr, i16) inlinehint
@"_SM15java.lang.Long$G8instance" = external global { ptr }

declare dereferenceable_or_null(16) ptr @"_SM31scala.collection.immutable.Nil$G4load"() noinline

declare dereferenceable_or_null(32) ptr @"_SM15java.nio.BufferD8positioniL15java.nio.BufferEO"(ptr, i32)

declare i1 @"_SM24java.nio.charset.CharsetD6equalsL16java.lang.ObjectzEO"(ptr, ptr)

declare ptr @"_SM31scala.collection.immutable.Nil$D4tailL16java.lang.ObjectEO"(ptr) alwaysinline
@"_SM11scala.None$G8instance" = external global { ptr }
@"_SM15java.lang.ClassG4type" = external global { { ptr, i32, i32, ptr }, i32, i32, ptr, [3 x ptr] }

declare dereferenceable_or_null(16) ptr @"_SM27scala.runtime.BoxesRunTime$D12boxToIntegeriL17java.lang.IntegerEO"(ptr, i32) inlinehint
@"_SM15java.lang.FloatG4type" = external global { { ptr, i32, i32, ptr }, i32, i32, ptr, [7 x ptr] }
@"_SM27scala.runtime.ScalaRunTime$G8instance" = external global { ptr }
@"_SM11scala.None$G4type" = external global { { ptr, i32, i32, ptr }, i32, i32, ptr, [4 x ptr] }

declare nonnull dereferenceable(32) ptr @"_SM18java.lang.Integer$D8toStringiL16java.lang.StringEO"(ptr, i32)
@"_SM31scala.scalanative.runtime.ArrayG4type" = external global { { ptr, i32, i32, ptr }, i32, i32, ptr, [7 x ptr] }
@"_SM38scala.scalanative.runtime.ObjectArray$G8instance" = external global { ptr }

declare i1 @"_SM35scala.scalanative.runtime.LazyVals$D3CASR_jiizEO"(ptr, ptr, i64, i32, i32) inlinehint
@"_SM30java.lang.NullPointerExceptionG4type" = external global { { ptr, i32, i32, ptr }, i32, i32, ptr, [4 x ptr] }

declare i32 @"_SM27scala.runtime.ScalaRunTime$D12array_lengthL16java.lang.ObjectiEO"(ptr, ptr)

declare dereferenceable_or_null(104) ptr @"_SM29java.nio.charset.CoderResult$G4load"() noinline

declare nonnull dereferenceable(32) ptr @"_SM16java.lang.ObjectD8toStringL16java.lang.StringEO"(ptr) inlinehint
@"_SM35scala.scalanative.runtime.ByteArrayG4type" = external global { { ptr, i32, i32, ptr }, i32, i32, ptr, [7 x ptr] }

declare i16 @"_SM25java.nio.StringCharBufferD3getcEO"(ptr) noinline
@"_SM35scala.scalanative.runtime.IntArray$G8instance" = external global { ptr }

declare ptr @"_SM35scala.scalanative.runtime.LazyVals$D17wait4NotificationR_jiuEO"(ptr, ptr, i64, i32)

declare i1 @"__check_class_has_trait"(i32, i32) alwaysinline

declare i64 @"_SM35scala.scalanative.runtime.LazyVals$D3getR_jEO"(ptr, ptr) alwaysinline
@"_SM32java.nio.ReadOnlyBufferExceptionG4type" = external global { { ptr, i32, i32, ptr }, i32, i32, ptr, [4 x ptr] }

declare dereferenceable_or_null(24) ptr @"_SM14scala.package$G4load"() noinline

declare ptr @"_SM34scala.scalanative.runtime.package$D14throwUndefinednEO"(ptr) noinline
@"_SM22__scalanative_metadataG14dispatch_table" = external constant [4900 x ptr]

declare ptr @"scalanative_GC_alloc_small"(ptr, i64)
@"_SM28java.lang.constant.ConstableG4type" = hidden global { ptr, i32, i32, ptr } { ptr @"_SM15java.lang.ClassG4type", i32 -55, i32 -1, ptr @"_SM7__constG1-1" }
@"_SM31java.lang.constant.ConstantDescG4type" = hidden global { ptr, i32, i32, ptr } { ptr @"_SM15java.lang.ClassG4type", i32 -71, i32 -1, ptr @"_SM7__constG1-3" }
@"_SM29java.nio.channels.ByteChannelG4type" = hidden global { ptr, i32, i32, ptr } { ptr @"_SM15java.lang.ClassG4type", i32 -60, i32 -1, ptr @"_SM7__constG1-5" }
@"_SM25java.nio.channels.ChannelG4type" = hidden global { ptr, i32, i32, ptr } { ptr @"_SM15java.lang.ClassG4type", i32 -44, i32 -1, ptr @"_SM7__constG1-7" }
@"_SM29java.nio.channels.FileChannelG4type" = hidden global { { ptr, i32, i32, ptr }, i32, i32, ptr, [3 x ptr] } { { ptr, i32, i32, ptr } { ptr @"_SM15java.lang.ClassG4type", i32 63, i32 -1, ptr @"_SM7__constG1-9" }, i32 8, i32 64, ptr @"_SM7__constG2-10", [3 x ptr] [ ptr @"_SM16java.lang.ObjectD8hashCodeiEO", ptr @"_SM16java.lang.ObjectD8toStringL16java.lang.StringEO", ptr @"_SM16java.lang.ObjectD6equalsL16java.lang.ObjectzEO" ] }
@"_SM33java.nio.channels.FileChannelImplG4type" = hidden global { { ptr, i32, i32, ptr }, i32, i32, ptr, [3 x ptr] } { { ptr, i32, i32, ptr } { ptr @"_SM15java.lang.ClassG4type", i32 64, i32 -1, ptr @"_SM7__constG2-12" }, i32 32, i32 64, ptr @"_SM7__constG2-13", [3 x ptr] [ ptr @"_SM16java.lang.ObjectD8hashCodeiEO", ptr @"_SM16java.lang.ObjectD8toStringL16java.lang.StringEO", ptr @"_SM16java.lang.ObjectD6equalsL16java.lang.ObjectzEO" ] }
@"_SM38java.nio.channels.GatheringByteChannelG4type" = hidden global { ptr, i32, i32, ptr } { ptr @"_SM15java.lang.ClassG4type", i32 -108, i32 -1, ptr @"_SM7__constG2-15" }
@"_SM38java.nio.channels.InterruptibleChannelG4type" = hidden global { ptr, i32, i32, ptr } { ptr @"_SM15java.lang.ClassG4type", i32 -109, i32 -1, ptr @"_SM7__constG2-17" }
@"_SM37java.nio.channels.ReadableByteChannelG4type" = hidden global { ptr, i32, i32, ptr } { ptr @"_SM15java.lang.ClassG4type", i32 -103, i32 -1, ptr @"_SM7__constG2-19" }
@"_SM39java.nio.channels.ScatteringByteChannelG4type" = hidden global { ptr, i32, i32, ptr } { ptr @"_SM15java.lang.ClassG4type", i32 -118, i32 -1, ptr @"_SM7__constG2-21" }
@"_SM37java.nio.channels.SeekableByteChannelG4type" = hidden global { ptr, i32, i32, ptr } { ptr @"_SM15java.lang.ClassG4type", i32 -104, i32 -1, ptr @"_SM7__constG2-23" }
@"_SM37java.nio.channels.WritableByteChannelG4type" = hidden global { ptr, i32, i32, ptr } { ptr @"_SM15java.lang.ClassG4type", i32 -105, i32 -1, ptr @"_SM7__constG2-25" }
@"_SM27java.util.function.FunctionG4type" = hidden global { ptr, i32, i32, ptr } { ptr @"_SM15java.lang.ClassG4type", i32 -50, i32 -1, ptr @"_SM7__constG2-27" }
@"_SM27java.util.function.SupplierG4type" = hidden global { ptr, i32, i32, ptr } { ptr @"_SM15java.lang.ClassG4type", i32 -51, i32 -1, ptr @"_SM7__constG2-29" }
@"_SM17niocharset.UTF_8$G4type" = hidden global { { ptr, i32, i32, ptr }, i32, i32, ptr, [3 x ptr] } { { ptr, i32, i32, ptr } { ptr @"_SM15java.lang.ClassG4type", i32 66, i32 -1, ptr @"_SM7__constG2-31" }, i32 56, i32 66, ptr @"_SM7__constG2-32", [3 x ptr] [ ptr @"_SM24java.nio.charset.CharsetD8hashCodeiEO", ptr @"_SM24java.nio.charset.CharsetD8toStringL16java.lang.StringEO", ptr @"_SM24java.nio.charset.CharsetD6equalsL16java.lang.ObjectzEO" ] }
@"_SM33niocharset.UTF_8$DecodedMultiByteG4type" = hidden global { { ptr, i32, i32, ptr }, i32, i32, ptr, [3 x ptr] } { { ptr, i32, i32, ptr } { ptr @"_SM15java.lang.ClassG4type", i32 326, i32 -1, ptr @"_SM7__constG2-34" }, i32 24, i32 326, ptr @"_SM7__constG2-35", [3 x ptr] [ ptr @"_SM16java.lang.ObjectD8hashCodeiEO", ptr @"_SM16java.lang.ObjectD8toStringL16java.lang.StringEO", ptr @"_SM16java.lang.ObjectD6equalsL16java.lang.ObjectzEO" ] }
@"_SM24niocharset.UTF_8$DecoderG4type" = hidden global { { ptr, i32, i32, ptr }, i32, i32, ptr, [3 x ptr] } { { ptr, i32, i32, ptr } { ptr @"_SM15java.lang.ClassG4type", i32 487, i32 -1, ptr @"_SM7__constG2-37" }, i32 56, i32 487, ptr @"_SM7__constG2-38", [3 x ptr] [ ptr @"_SM16java.lang.ObjectD8hashCodeiEO", ptr @"_SM16java.lang.ObjectD8toStringL16java.lang.StringEO", ptr @"_SM16java.lang.ObjectD6equalsL16java.lang.ObjectzEO" ] }
@"_SM24niocharset.UTF_8$EncoderG4type" = hidden global { { ptr, i32, i32, ptr }, i32, i32, ptr, [3 x ptr] } { { ptr, i32, i32, ptr } { ptr @"_SM15java.lang.ClassG4type", i32 496, i32 -1, ptr @"_SM7__constG2-40" }, i32 56, i32 496, ptr @"_SM7__constG2-38", [3 x ptr] [ ptr @"_SM16java.lang.ObjectD8hashCodeiEO", ptr @"_SM16java.lang.ObjectD8toStringL16java.lang.StringEO", ptr @"_SM16java.lang.ObjectD6equalsL16java.lang.ObjectzEO" ] }
@"_SM33scala.concurrent.ExecutionContextG4type" = hidden global { ptr, i32, i32, ptr } { ptr @"_SM15java.lang.ClassG4type", i32 -89, i32 -1, ptr @"_SM7__constG2-42" }
@"_SM41scala.concurrent.ExecutionContextExecutorG4type" = hidden global { ptr, i32, i32, ptr } { ptr @"_SM15java.lang.ClassG4type", i32 -127, i32 -1, ptr @"_SM7__constG2-44" }
@"_SM34scala.runtime.function.JProcedure1G4type" = hidden global { ptr, i32, i32, ptr } { ptr @"_SM15java.lang.ClassG4type", i32 -93, i32 -1, ptr @"_SM7__constG2-46" }
@"_SM34scala.runtime.function.JProcedure2G4type" = hidden global { ptr, i32, i32, ptr } { ptr @"_SM15java.lang.ClassG4type", i32 -94, i32 -1, ptr @"_SM7__constG2-48" }
@"_SM29scala.scalanative.posix.errnoG4type" = hidden global { ptr, i32, i32, ptr } { ptr @"_SM15java.lang.ClassG4type", i32 -67, i32 -1, ptr @"_SM7__constG2-50" }
@"_SM28scala.scalanative.posix.pwd$G4type" = hidden global { { ptr, i32, i32, ptr }, i32, i32, ptr, [3 x ptr] } { { ptr, i32, i32, ptr } { ptr @"_SM15java.lang.ClassG4type", i32 108, i32 -1, ptr @"_SM7__constG2-52" }, i32 8, i32 108, ptr @"_SM7__constG2-10", [3 x ptr] [ ptr @"_SM16java.lang.ObjectD8hashCodeiEO", ptr @"_SM16java.lang.ObjectD8toStringL16java.lang.StringEO", ptr @"_SM16java.lang.ObjectD6equalsL16java.lang.ObjectzEO" ] }
@"_SM41scala.scalanative.posix.pwdOps$passwdOps$G4type" = hidden global { { ptr, i32, i32, ptr }, i32, i32, ptr, [3 x ptr] } { { ptr, i32, i32, ptr } { ptr @"_SM15java.lang.ClassG4type", i32 522, i32 -1, ptr @"_SM7__constG2-54" }, i32 8, i32 522, ptr @"_SM7__constG2-10", [3 x ptr] [ ptr @"_SM16java.lang.ObjectD8hashCodeiEO", ptr @"_SM16java.lang.ObjectD8toStringL16java.lang.StringEO", ptr @"_SM16java.lang.ObjectD6equalsL16java.lang.ObjectzEO" ] }
@"_SM41scala.scalanative.posix.pwdOps$passwdOps$G8instance" = hidden global { ptr } { ptr @"_SM41scala.scalanative.posix.pwdOps$passwdOps$G4type" }
@"environ" = external global ptr
@"_SM31scala.scalanative.posix.unistd$G4type" = hidden global { { ptr, i32, i32, ptr }, i32, i32, ptr, [3 x ptr] } { { ptr, i32, i32, ptr } { ptr @"_SM15java.lang.ClassG4type", i32 36, i32 -1, ptr @"_SM7__constG2-56" }, i32 16, i32 36, ptr @"_SM7__constG2-57", [3 x ptr] [ ptr @"_SM16java.lang.ObjectD8hashCodeiEO", ptr @"_SM16java.lang.ObjectD8toStringL16java.lang.StringEO", ptr @"_SM16java.lang.ObjectD6equalsL16java.lang.ObjectzEO" ] }
@"_SM32scala.scalanative.unsigned.UByteG4type" = hidden global { { ptr, i32, i32, ptr }, i32, i32, ptr, [8 x ptr] } { { ptr, i32, i32, ptr } { ptr @"_SM15java.lang.ClassG4type", i32 45, i32 -1, ptr @"_SM7__constG2-59" }, i32 16, i32 45, ptr @"_SM7__constG2-10", [8 x ptr] [ ptr @"_SM32scala.scalanative.unsigned.UByteD8hashCodeiEO", ptr @"_SM32scala.scalanative.unsigned.UByteD8toStringL16java.lang.StringEO", ptr @"_SM32scala.scalanative.unsigned.UByteD6equalsL16java.lang.ObjectzEO", ptr @"_SM32scala.scalanative.unsigned.UByteD11doubleValuedEO", ptr @"_SM32scala.scalanative.unsigned.UByteD8intValueiEO", ptr @"_SM32scala.scalanative.unsigned.UByteD9longValuejEO", ptr @"_SM32scala.scalanative.unsigned.UByteD10floatValuefEO", ptr @"_SM32scala.scalanative.unsigned.UByteD10underlyingL16java.lang.ObjectEO" ] }
@"_SM33scala.scalanative.unsigned.UByte$G4type" = hidden global { { ptr, i32, i32, ptr }, i32, i32, ptr, [3 x ptr] } { { ptr, i32, i32, ptr } { ptr @"_SM15java.lang.ClassG4type", i32 25, i32 -1, ptr @"_SM7__constG2-61" }, i32 24, i32 25, ptr @"_SM7__constG2-13", [3 x ptr] [ ptr @"_SM16java.lang.ObjectD8hashCodeiEO", ptr @"_SM33scala.scalanative.unsigned.UByte$D8toStringL16java.lang.StringEO", ptr @"_SM16java.lang.ObjectD6equalsL16java.lang.ObjectzEO" ] }
@"_SM38scala.scalanative.unsigned.UByteCache$G4type" = hidden global { { ptr, i32, i32, ptr }, i32, i32, ptr, [3 x ptr] } { { ptr, i32, i32, ptr } { ptr @"_SM15java.lang.ClassG4type", i32 127, i32 -1, ptr @"_SM7__constG2-63" }, i32 16, i32 127, ptr @"_SM7__constG2-57", [3 x ptr] [ ptr @"_SM16java.lang.ObjectD8hashCodeiEO", ptr @"_SM16java.lang.ObjectD8toStringL16java.lang.StringEO", ptr @"_SM16java.lang.ObjectD6equalsL16java.lang.ObjectzEO" ] }
@"_SM31scala.scalanative.unsigned.UIntG4type" = hidden global { { ptr, i32, i32, ptr }, i32, i32, ptr, [8 x ptr] } { { ptr, i32, i32, ptr } { ptr @"_SM15java.lang.ClassG4type", i32 47, i32 -1, ptr @"_SM7__constG2-65" }, i32 16, i32 47, ptr @"_SM7__constG2-10", [8 x ptr] [ ptr @"_SM31scala.scalanative.unsigned.UIntD8hashCodeiEO", ptr @"_SM31scala.scalanative.unsigned.UIntD8toStringL16java.lang.StringEO", ptr @"_SM31scala.scalanative.unsigned.UIntD6equalsL16java.lang.ObjectzEO", ptr @"_SM31scala.scalanative.unsigned.UIntD11doubleValuedEO", ptr @"_SM31scala.scalanative.unsigned.UIntD8intValueiEO", ptr @"_SM31scala.scalanative.unsigned.UIntD9longValuejEO", ptr @"_SM31scala.scalanative.unsigned.UIntD10floatValuefEO", ptr @"_SM31scala.scalanative.unsigned.UIntD10underlyingL16java.lang.ObjectEO" ] }
@"_SM32scala.scalanative.unsigned.UInt$G4type" = hidden global { { ptr, i32, i32, ptr }, i32, i32, ptr, [3 x ptr] } { { ptr, i32, i32, ptr } { ptr @"_SM15java.lang.ClassG4type", i32 476, i32 -1, ptr @"_SM7__constG2-67" }, i32 24, i32 476, ptr @"_SM7__constG2-13", [3 x ptr] [ ptr @"_SM16java.lang.ObjectD8hashCodeiEO", ptr @"_SM32scala.scalanative.unsigned.UInt$D8toStringL16java.lang.StringEO", ptr @"_SM16java.lang.ObjectD6equalsL16java.lang.ObjectzEO" ] }
@"_SM37scala.scalanative.unsigned.UIntCache$G4type" = hidden global { { ptr, i32, i32, ptr }, i32, i32, ptr, [3 x ptr] } { { ptr, i32, i32, ptr } { ptr @"_SM15java.lang.ClassG4type", i32 562, i32 -1, ptr @"_SM7__constG2-69" }, i32 16, i32 562, ptr @"_SM7__constG2-57", [3 x ptr] [ ptr @"_SM16java.lang.ObjectD8hashCodeiEO", ptr @"_SM16java.lang.ObjectD8toStringL16java.lang.StringEO", ptr @"_SM16java.lang.ObjectD6equalsL16java.lang.ObjectzEO" ] }
@"_SM32scala.scalanative.unsigned.ULongG4type" = hidden global { { ptr, i32, i32, ptr }, i32, i32, ptr, [8 x ptr] } { { ptr, i32, i32, ptr } { ptr @"_SM15java.lang.ClassG4type", i32 46, i32 -1, ptr @"_SM7__constG2-71" }, i32 16, i32 46, ptr @"_SM7__constG2-10", [8 x ptr] [ ptr @"_SM32scala.scalanative.unsigned.ULongD8hashCodeiEO", ptr @"_SM32scala.scalanative.unsigned.ULongD8toStringL16java.lang.StringEO", ptr @"_SM32scala.scalanative.unsigned.ULongD6equalsL16java.lang.ObjectzEO", ptr @"_SM32scala.scalanative.unsigned.ULongD11doubleValuedEO", ptr @"_SM32scala.scalanative.unsigned.ULongD8intValueiEO", ptr @"_SM32scala.scalanative.unsigned.ULongD9longValuejEO", ptr @"_SM32scala.scalanative.unsigned.ULongD10floatValuefEO", ptr @"_SM32scala.scalanative.unsigned.ULongD10underlyingL16java.lang.ObjectEO" ] }
@"_SM33scala.scalanative.unsigned.ULong$G4type" = hidden global { { ptr, i32, i32, ptr }, i32, i32, ptr, [3 x ptr] } { { ptr, i32, i32, ptr } { ptr @"_SM15java.lang.ClassG4type", i32 507, i32 -1, ptr @"_SM7__constG2-73" }, i32 24, i32 507, ptr @"_SM7__constG2-13", [3 x ptr] [ ptr @"_SM16java.lang.ObjectD8hashCodeiEO", ptr @"_SM33scala.scalanative.unsigned.ULong$D8toStringL16java.lang.StringEO", ptr @"_SM16java.lang.ObjectD6equalsL16java.lang.ObjectzEO" ] }
@"_SM38scala.scalanative.unsigned.ULongCache$G4type" = hidden global { { ptr, i32, i32, ptr }, i32, i32, ptr, [3 x ptr] } { { ptr, i32, i32, ptr } { ptr @"_SM15java.lang.ClassG4type", i32 504, i32 -1, ptr @"_SM7__constG2-75" }, i32 16, i32 504, ptr @"_SM7__constG2-57", [3 x ptr] [ ptr @"_SM16java.lang.ObjectD8hashCodeiEO", ptr @"_SM16java.lang.ObjectD8toStringL16java.lang.StringEO", ptr @"_SM16java.lang.ObjectD6equalsL16java.lang.ObjectzEO" ] }
@"_SM33scala.scalanative.unsigned.UShortG4type" = hidden global { { ptr, i32, i32, ptr }, i32, i32, ptr, [8 x ptr] } { { ptr, i32, i32, ptr } { ptr @"_SM15java.lang.ClassG4type", i32 44, i32 -1, ptr @"_SM7__constG2-77" }, i32 16, i32 44, ptr @"_SM7__constG2-10", [8 x ptr] [ ptr @"_SM33scala.scalanative.unsigned.UShortD8hashCodeiEO", ptr @"_SM33scala.scalanative.unsigned.UShortD8toStringL16java.lang.StringEO", ptr @"_SM33scala.scalanative.unsigned.UShortD6equalsL16java.lang.ObjectzEO", ptr @"_SM33scala.scalanative.unsigned.UShortD11doubleValuedEO", ptr @"_SM33scala.scalanative.unsigned.UShortD8intValueiEO", ptr @"_SM33scala.scalanative.unsigned.UShortD9longValuejEO", ptr @"_SM33scala.scalanative.unsigned.UShortD10floatValuefEO", ptr @"_SM33scala.scalanative.unsigned.UShortD10underlyingL16java.lang.ObjectEO" ] }
@"_SM34scala.scalanative.unsigned.UShort$G4type" = hidden global { { ptr, i32, i32, ptr }, i32, i32, ptr, [3 x ptr] } { { ptr, i32, i32, ptr } { ptr @"_SM15java.lang.ClassG4type", i32 84, i32 -1, ptr @"_SM7__constG2-79" }, i32 24, i32 84, ptr @"_SM7__constG2-13", [3 x ptr] [ ptr @"_SM16java.lang.ObjectD8hashCodeiEO", ptr @"_SM34scala.scalanative.unsigned.UShort$D8toStringL16java.lang.StringEO", ptr @"_SM16java.lang.ObjectD6equalsL16java.lang.ObjectzEO" ] }
@"_SM39scala.scalanative.unsigned.UShortCache$G4type" = hidden global { { ptr, i32, i32, ptr }, i32, i32, ptr, [3 x ptr] } { { ptr, i32, i32, ptr } { ptr @"_SM15java.lang.ClassG4type", i32 103, i32 -1, ptr @"_SM7__constG2-81" }, i32 16, i32 103, ptr @"_SM7__constG2-57", [3 x ptr] [ ptr @"_SM16java.lang.ObjectD8hashCodeiEO", ptr @"_SM16java.lang.ObjectD8toStringL16java.lang.StringEO", ptr @"_SM16java.lang.ObjectD6equalsL16java.lang.ObjectzEO" ] }
@"_SM32scala.scalanative.unsigned.USizeG4type" = hidden global { { ptr, i32, i32, ptr }, i32, i32, ptr, [8 x ptr] } { { ptr, i32, i32, ptr } { ptr @"_SM15java.lang.ClassG4type", i32 48, i32 -1, ptr @"_SM7__constG2-83" }, i32 16, i32 48, ptr @"_SM7__constG2-10", [8 x ptr] [ ptr @"_SM32scala.scalanative.unsigned.USizeD8hashCodeiEO", ptr @"_SM32scala.scalanative.unsigned.USizeD8toStringL16java.lang.StringEO", ptr @"_SM32scala.scalanative.unsigned.USizeD6equalsL16java.lang.ObjectzEO", ptr @"_SM32scala.scalanative.unsigned.USizeD11doubleValuedEO", ptr @"_SM32scala.scalanative.unsigned.USizeD8intValueiEO", ptr @"_SM32scala.scalanative.unsigned.USizeD9longValuejEO", ptr @"_SM32scala.scalanative.unsigned.USizeD10floatValuefEO", ptr @"_SM32scala.scalanative.unsigned.USizeD10underlyingL16java.lang.ObjectEO" ] }
@"_SM38scala.scalanative.unsigned.USizeCache$G4type" = hidden global { { ptr, i32, i32, ptr }, i32, i32, ptr, [3 x ptr] } { { ptr, i32, i32, ptr } { ptr @"_SM15java.lang.ClassG4type", i32 69, i32 -1, ptr @"_SM7__constG2-85" }, i32 16, i32 69, ptr @"_SM7__constG2-57", [3 x ptr] [ ptr @"_SM16java.lang.ObjectD8hashCodeiEO", ptr @"_SM16java.lang.ObjectD8toStringL16java.lang.StringEO", ptr @"_SM16java.lang.ObjectD6equalsL16java.lang.ObjectzEO" ] }
@"_SM30scala.util.hashing.MurmurHash3G4type" = hidden global { { ptr, i32, i32, ptr }, i32, i32, ptr, [3 x ptr] } { { ptr, i32, i32, ptr } { ptr @"_SM15java.lang.ClassG4type", i32 532, i32 -1, ptr @"_SM7__constG2-87" }, i32 8, i32 533, ptr @"_SM7__constG2-10", [3 x ptr] [ ptr @"_SM16java.lang.ObjectD8hashCodeiEO", ptr @"_SM16java.lang.ObjectD8toStringL16java.lang.StringEO", ptr @"_SM16java.lang.ObjectD6equalsL16java.lang.ObjectzEO" ] }
@"_SM31scala.util.hashing.MurmurHash3$G4type" = hidden global { { ptr, i32, i32, ptr }, i32, i32, ptr, [3 x ptr] } { { ptr, i32, i32, ptr } { ptr @"_SM15java.lang.ClassG4type", i32 533, i32 -1, ptr @"_SM7__constG2-89" }, i32 24, i32 533, ptr @"_SM7__constG2-10", [3 x ptr] [ ptr @"_SM16java.lang.ObjectD8hashCodeiEO", ptr @"_SM16java.lang.ObjectD8toStringL16java.lang.StringEO", ptr @"_SM16java.lang.ObjectD6equalsL16java.lang.ObjectzEO" ] }
@"_SM38scala.util.hashing.MurmurHash3$accum$1G4type" = hidden global { { ptr, i32, i32, ptr }, i32, i32, ptr, [3 x ptr] } { { ptr, i32, i32, ptr } { ptr @"_SM15java.lang.ClassG4type", i32 274, i32 68, ptr @"_SM7__constG2-91" }, i32 24, i32 274, ptr @"_SM7__constG2-10", [3 x ptr] [ ptr @"_SM16java.lang.ObjectD8hashCodeiEO", ptr @"_SM38scala.util.hashing.MurmurHash3$accum$1D8toStringL16java.lang.StringEO", ptr @"_SM16java.lang.ObjectD6equalsL16java.lang.ObjectzEO" ] }

declare i32 @"scalanative_eacces"()

declare i32 @"scalanative_eexist"()

declare i32 @"scalanative_enoent"()

declare i32 @"scalanative_enotdir"()

declare i32 @"scalanative_enotempty"()

declare i32 @"scalanative_getpwuid"(i32, ptr)

declare i32 @"scalanative_stdin_fileno"()

declare i32 @"scalanative_stderr_fileno"()

declare i32 @"scalanative_stdout_fileno"()

declare i32 @"read"(i32, ptr, i64)

declare i32 @"write"(i32, ptr, i64)

declare ptr @"getcwd"(ptr, i64)

declare i32 @"getuid"()

declare i32 @"geteuid"()

define i32 @"_SM33java.nio.channels.FileChannelImplD10writeArrayLAb_iiiEPT33java.nio.channels.FileChannelImpl"(ptr %_1, ptr %_2, i32 %_3, i32 %_4) personality ptr @__gxx_personality_v0 {
_5000000.0:
  %_42000003 = icmp ne ptr %_1, null
  br i1 %_42000003, label %_42000001.0, label %_42000002.0
_42000001.0:
  %_5000002 = icmp eq i32 %_4, 0
  br i1 %_5000002, label %_6000000.0, label %_7000000.0
_6000000.0:
  br label %_8000000.0
_7000000.0:
  %_11000002 = icmp slt i32 %_3, 0
  br i1 %_11000002, label %_12000000.0, label %_13000000.0
_12000000.0:
  br label %_14000000.0
_13000000.0:
  %_42000005 = icmp ne ptr %_2, null
  br i1 %_42000005, label %_42000004.0, label %_42000002.0
_42000004.0:
  %_42000006 = getelementptr { ptr, i32, i32 }, { ptr, i32, i32 }* %_2, i32 0, i32 1
  %_13000001 = load i32, ptr %_42000006
  %_13000003 = icmp sge i32 %_3, %_13000001
  br label %_14000000.0
_14000000.0:
  %_14000001 = phi i1 [%_13000003, %_42000004.0], [true, %_12000000.0]
  br i1 %_14000001, label %_15000000.0, label %_16000000.0
_16000000.0:
  br label %_17000000.0
_17000000.0:
  br label %_18000000.0
_18000000.0:
  br label %_19000000.0
_15000000.0:
  %_42000007 = getelementptr { ptr, i32, i32 }, { ptr, i32, i32 }* %_2, i32 0, i32 1
  %_15000001 = load i32, ptr %_42000007
  call ptr @"_SM34scala.scalanative.runtime.package$D16throwOutOfBoundsiinEO"(ptr nonnull dereferenceable(8) @"_SM34scala.scalanative.runtime.package$G8instance", i32 %_3, i32 %_15000001)
  br label %_42000009.0
_19000000.0:
  br label %_20000000.0
_20000000.0:
  %_42000011 = getelementptr { { ptr }, ptr, ptr, i1, i1 }, { { ptr }, ptr, ptr, i1, i1 }* %_1, i32 0, i32 2
  %_20000002 = load ptr, ptr %_42000011, !dereferenceable_or_null !{i64 24}
  %_42000013 = icmp ne ptr %_20000002, null
  br i1 %_42000013, label %_42000012.0, label %_42000002.0
_42000012.0:
  %_42000014 = getelementptr { { ptr }, i64, i1 }, { { ptr }, i64, i1 }* %_20000002, i32 0, i32 1
  %_21000001 = load i64, ptr %_42000014
  %_20000005 = trunc i64 %_21000001 to i32
  %_20000006 = bitcast ptr %_2 to ptr
  %_20000007 = add i32 %_3, 16
  %_20000008 = getelementptr i8, ptr %_20000006, i32 %_20000007
  %_20000009 = zext i32 %_4 to i64
  %_20000010 = call i32 @"write"(i32 %_20000005, ptr %_20000008, i64 %_20000009)
  %_20000012 = icmp slt i32 %_20000010, 0
  br i1 %_20000012, label %_23000000.0, label %_24000000.0
_24000000.0:
  br label %_41000000.0
_41000000.0:
  br label %_42000000.0
_42000000.0:
  br label %_8000000.0
_8000000.0:
  %_8000001 = phi i32 [%_20000010, %_42000000.0], [0, %_6000000.0]
  ret i32 %_8000001
_23000000.0:
  %_42000015 = getelementptr { { ptr }, ptr, ptr, i1, i1 }, { { ptr }, ptr, ptr, i1, i1 }* %_1, i32 0, i32 1
  %_23000002 = load ptr, ptr %_42000015, !dereferenceable_or_null !{i64 8}
  %_27000004 = icmp eq ptr %_23000002, @"_SM11scala.None$G8instance"
  br i1 %_27000004, label %_28000000.0, label %_29000000.0
_28000000.0:
  br label %_31000000.0
_29000000.0:
  %_29000001 = call dereferenceable_or_null(32) ptr @"_SM16java.lang.ObjectD8getClassL15java.lang.ClassEO"(ptr dereferenceable_or_null(8) %_23000002)
  %_29000003 = icmp eq ptr %_29000001, @"_SM11scala.None$G4type"
  br i1 %_29000003, label %_32000000.0, label %_33000000.0
_33000000.0:
  %_37000001 = bitcast ptr %_23000002 to ptr
  %_42000017 = icmp ne ptr %_37000001, null
  br i1 %_42000017, label %_42000016.0, label %_42000002.0
_42000016.0:
  %_42000018 = getelementptr { { ptr }, ptr }, { { ptr }, ptr }* %_37000001, i32 0, i32 1
  %_37000002 = load ptr, ptr %_42000018, !dereferenceable_or_null !{i64 8}
  br label %_38000000.0
_32000000.0:
  br label %_35000000.0
_35000000.0:
  %_35000004 = call dereferenceable_or_null(40) ptr @"scalanative_GC_alloc_small"(ptr @"_SM32java.util.NoSuchElementExceptionG4type", i64 40)
  %_42000020 = getelementptr { { ptr }, ptr, ptr, ptr, i1, i1 }, { { ptr }, ptr, ptr, ptr, i1, i1 }* %_35000004, i32 0, i32 5
  %_42000021 = zext i1 true to i8
  store i8 %_42000021, ptr%_42000020, align 1
  %_42000023 = getelementptr { { ptr }, ptr, ptr, ptr, i1, i1 }, { { ptr }, ptr, ptr, ptr, i1, i1 }* %_35000004, i32 0, i32 4
  %_42000024 = zext i1 true to i8
  store i8 %_42000024, ptr%_42000023, align 1
  %_42000026 = getelementptr { { ptr }, ptr, ptr, ptr, i1, i1 }, { { ptr }, ptr, ptr, ptr, i1, i1 }* %_35000004, i32 0, i32 3
  store ptr @"_SM7__constG2-93", ptr%_42000026, align 8
  %_35000008 = call dereferenceable_or_null(40) ptr @"_SM19java.lang.ThrowableD16fillInStackTraceL19java.lang.ThrowableEO"(ptr nonnull dereferenceable(40) %_35000004)
  br label %_36000000.0
_36000000.0:
  call ptr @"scalanative_throw"(ptr nonnull dereferenceable(40) %_35000004)
  unreachable
_38000000.0:
  %_39000002 = bitcast ptr %_37000002 to ptr
  %_42000029 = icmp ne ptr %_39000002, null
  br i1 %_42000029, label %_42000028.0, label %_42000002.0
_42000028.0:
  br label %_42000009.0
_31000000.0:
  %_23000006 = call i32 @"scalanative_errno"()
  %_40000003 = call nonnull dereferenceable(40) ptr @"_SM29java.nio.file.PosixException$D5applyL16java.lang.StringiL19java.io.IOExceptionEO"(ptr nonnull dereferenceable(8) @"_SM29java.nio.file.PosixException$G8instance", ptr @"_SM7__constG2-95", i32 %_23000006)
  call ptr @"scalanative_throw"(ptr nonnull dereferenceable(40) %_40000003)
  unreachable
_42000002.0:
  call ptr @"_SM34scala.scalanative.runtime.package$D16throwNullPointernEO"(ptr null)
  unreachable
_42000009.0:
  call ptr @"_SM34scala.scalanative.runtime.package$D14throwUndefinednEO"(ptr null)
  unreachable
}

define i32 @"_SM33java.nio.channels.FileChannelImplD4readLAb_iiiEO"(ptr %_1, ptr %_2, i32 %_3, i32 %_4) personality ptr @__gxx_personality_v0 {
_5000000.0:
  %_63000003 = icmp ne ptr %_1, null
  br i1 %_63000003, label %_63000001.0, label %_63000002.0
_63000001.0:
  %_5000002 = icmp eq ptr %_2, null
  br i1 %_5000002, label %_6000000.0, label %_7000000.0
_7000000.0:
  br label %_11000000.0
_11000000.0:
  %_11000002 = icmp slt i32 %_3, 0
  br i1 %_11000002, label %_12000000.0, label %_13000000.0
_12000000.0:
  br label %_14000000.0
_13000000.0:
  %_13000002 = icmp slt i32 %_4, 0
  br label %_14000000.0
_14000000.0:
  %_14000001 = phi i1 [%_13000002, %_13000000.0], [true, %_12000000.0]
  br i1 %_14000001, label %_15000000.0, label %_16000000.0
_15000000.0:
  br label %_17000000.0
_16000000.0:
  %_63000005 = icmp ne ptr %_2, null
  br i1 %_63000005, label %_63000004.0, label %_63000002.0
_63000004.0:
  %_63000006 = getelementptr { ptr, i32, i32 }, { ptr, i32, i32 }* %_2, i32 0, i32 1
  %_16000001 = load i32, ptr %_63000006
  %_16000004 = sub i32 %_16000001, %_3
  %_16000005 = icmp sgt i32 %_4, %_16000004
  br label %_17000000.0
_17000000.0:
  %_17000001 = phi i1 [%_16000005, %_63000004.0], [true, %_15000000.0]
  br i1 %_17000001, label %_18000000.0, label %_19000000.0
_19000000.0:
  br label %_23000000.0
_23000000.0:
  %_23000002 = icmp eq i32 %_4, 0
  br i1 %_23000002, label %_24000000.0, label %_25000000.0
_24000000.0:
  ret i32 0
_25000000.0:
  br label %_26000000.0
_26000000.0:
  br i1 %_11000002, label %_30000000.0, label %_31000000.0
_30000000.0:
  br label %_32000000.0
_31000000.0:
  %_63000007 = getelementptr { ptr, i32, i32 }, { ptr, i32, i32 }* %_2, i32 0, i32 1
  %_31000001 = load i32, ptr %_63000007
  %_31000003 = icmp sge i32 %_3, %_31000001
  br label %_32000000.0
_32000000.0:
  %_32000001 = phi i1 [%_31000003, %_31000000.0], [true, %_30000000.0]
  br i1 %_32000001, label %_33000000.0, label %_34000000.0
_34000000.0:
  br label %_35000000.0
_35000000.0:
  br label %_36000000.0
_36000000.0:
  br label %_37000000.0
_33000000.0:
  %_63000008 = getelementptr { ptr, i32, i32 }, { ptr, i32, i32 }* %_2, i32 0, i32 1
  %_33000001 = load i32, ptr %_63000008
  call ptr @"_SM34scala.scalanative.runtime.package$D16throwOutOfBoundsiinEO"(ptr nonnull dereferenceable(8) @"_SM34scala.scalanative.runtime.package$G8instance", i32 %_3, i32 %_33000001)
  br label %_63000010.0
_37000000.0:
  br label %_38000000.0
_38000000.0:
  %_63000012 = getelementptr { { ptr }, ptr, ptr, i1, i1 }, { { ptr }, ptr, ptr, i1, i1 }* %_1, i32 0, i32 2
  %_38000002 = load ptr, ptr %_63000012, !dereferenceable_or_null !{i64 24}
  %_63000014 = icmp ne ptr %_38000002, null
  br i1 %_63000014, label %_63000013.0, label %_63000002.0
_63000013.0:
  %_63000015 = getelementptr { { ptr }, i64, i1 }, { { ptr }, i64, i1 }* %_38000002, i32 0, i32 1
  %_39000001 = load i64, ptr %_63000015
  %_38000005 = trunc i64 %_39000001 to i32
  %_38000006 = bitcast ptr %_2 to ptr
  %_38000007 = add i32 %_3, 16
  %_38000008 = getelementptr i8, ptr %_38000006, i32 %_38000007
  %_38000009 = zext i32 %_4 to i64
  %_38000010 = call i32 @"read"(i32 %_38000005, ptr %_38000008, i64 %_38000009)
  %_38000012 = icmp eq i32 %_38000010, 0
  br i1 %_38000012, label %_41000000.0, label %_42000000.0
_41000000.0:
  br label %_43000000.0
_42000000.0:
  %_42000002 = icmp slt i32 %_38000010, 0
  br i1 %_42000002, label %_44000000.0, label %_45000000.0
_45000000.0:
  br label %_62000000.0
_62000000.0:
  br label %_43000000.0
_43000000.0:
  %_43000001 = phi i32 [%_38000010, %_62000000.0], [-1, %_41000000.0]
  br label %_63000000.0
_63000000.0:
  ret i32 %_43000001
_6000000.0:
  br label %_9000000.0
_9000000.0:
  %_9000001 = call dereferenceable_or_null(40) ptr @"scalanative_GC_alloc_small"(ptr @"_SM30java.lang.NullPointerExceptionG4type", i64 40)
  %_63000017 = getelementptr { { ptr }, ptr, ptr, ptr, i1, i1 }, { { ptr }, ptr, ptr, ptr, i1, i1 }* %_9000001, i32 0, i32 5
  %_63000018 = zext i1 true to i8
  store i8 %_63000018, ptr%_63000017, align 1
  %_63000020 = getelementptr { { ptr }, ptr, ptr, ptr, i1, i1 }, { { ptr }, ptr, ptr, ptr, i1, i1 }* %_9000001, i32 0, i32 4
  %_63000021 = zext i1 true to i8
  store i8 %_63000021, ptr%_63000020, align 1
  %_9000004 = call dereferenceable_or_null(40) ptr @"_SM19java.lang.ThrowableD16fillInStackTraceL19java.lang.ThrowableEO"(ptr nonnull dereferenceable(40) %_9000001)
  br label %_10000000.0
_10000000.0:
  call ptr @"scalanative_throw"(ptr nonnull dereferenceable(40) %_9000001)
  unreachable
_18000000.0:
  br label %_21000000.0
_21000000.0:
  %_21000001 = call dereferenceable_or_null(40) ptr @"scalanative_GC_alloc_small"(ptr @"_SM35java.lang.IndexOutOfBoundsExceptionG4type", i64 40)
  %_63000024 = getelementptr { { ptr }, ptr, ptr, ptr, i1, i1 }, { { ptr }, ptr, ptr, ptr, i1, i1 }* %_21000001, i32 0, i32 5
  %_63000025 = zext i1 true to i8
  store i8 %_63000025, ptr%_63000024, align 1
  %_63000027 = getelementptr { { ptr }, ptr, ptr, ptr, i1, i1 }, { { ptr }, ptr, ptr, ptr, i1, i1 }* %_21000001, i32 0, i32 4
  %_63000028 = zext i1 true to i8
  store i8 %_63000028, ptr%_63000027, align 1
  %_21000004 = call dereferenceable_or_null(40) ptr @"_SM19java.lang.ThrowableD16fillInStackTraceL19java.lang.ThrowableEO"(ptr nonnull dereferenceable(40) %_21000001)
  br label %_22000000.0
_22000000.0:
  call ptr @"scalanative_throw"(ptr nonnull dereferenceable(40) %_21000001)
  unreachable
_44000000.0:
  %_63000030 = getelementptr { { ptr }, ptr, ptr, i1, i1 }, { { ptr }, ptr, ptr, i1, i1 }* %_1, i32 0, i32 1
  %_44000002 = load ptr, ptr %_63000030, !dereferenceable_or_null !{i64 8}
  %_48000004 = icmp eq ptr %_44000002, @"_SM11scala.None$G8instance"
  br i1 %_48000004, label %_49000000.0, label %_50000000.0
_49000000.0:
  br label %_52000000.0
_50000000.0:
  %_50000001 = call dereferenceable_or_null(32) ptr @"_SM16java.lang.ObjectD8getClassL15java.lang.ClassEO"(ptr dereferenceable_or_null(8) %_44000002)
  %_50000003 = icmp eq ptr %_50000001, @"_SM11scala.None$G4type"
  br i1 %_50000003, label %_53000000.0, label %_54000000.0
_54000000.0:
  %_58000001 = bitcast ptr %_44000002 to ptr
  %_63000032 = icmp ne ptr %_58000001, null
  br i1 %_63000032, label %_63000031.0, label %_63000002.0
_63000031.0:
  %_63000033 = getelementptr { { ptr }, ptr }, { { ptr }, ptr }* %_58000001, i32 0, i32 1
  %_58000002 = load ptr, ptr %_63000033, !dereferenceable_or_null !{i64 8}
  br label %_59000000.0
_53000000.0:
  br label %_56000000.0
_56000000.0:
  %_56000004 = call dereferenceable_or_null(40) ptr @"scalanative_GC_alloc_small"(ptr @"_SM32java.util.NoSuchElementExceptionG4type", i64 40)
  %_63000035 = getelementptr { { ptr }, ptr, ptr, ptr, i1, i1 }, { { ptr }, ptr, ptr, ptr, i1, i1 }* %_56000004, i32 0, i32 5
  %_63000036 = zext i1 true to i8
  store i8 %_63000036, ptr%_63000035, align 1
  %_63000038 = getelementptr { { ptr }, ptr, ptr, ptr, i1, i1 }, { { ptr }, ptr, ptr, ptr, i1, i1 }* %_56000004, i32 0, i32 4
  %_63000039 = zext i1 true to i8
  store i8 %_63000039, ptr%_63000038, align 1
  %_63000041 = getelementptr { { ptr }, ptr, ptr, ptr, i1, i1 }, { { ptr }, ptr, ptr, ptr, i1, i1 }* %_56000004, i32 0, i32 3
  store ptr @"_SM7__constG2-93", ptr%_63000041, align 8
  %_56000008 = call dereferenceable_or_null(40) ptr @"_SM19java.lang.ThrowableD16fillInStackTraceL19java.lang.ThrowableEO"(ptr nonnull dereferenceable(40) %_56000004)
  br label %_57000000.0
_57000000.0:
  call ptr @"scalanative_throw"(ptr nonnull dereferenceable(40) %_56000004)
  unreachable
_59000000.0:
  %_60000002 = bitcast ptr %_58000002 to ptr
  %_63000044 = icmp ne ptr %_60000002, null
  br i1 %_63000044, label %_63000043.0, label %_63000002.0
_63000043.0:
  br label %_63000010.0
_52000000.0:
  %_44000006 = call i32 @"scalanative_errno"()
  %_61000003 = call nonnull dereferenceable(40) ptr @"_SM29java.nio.file.PosixException$D5applyL16java.lang.StringiL19java.io.IOExceptionEO"(ptr nonnull dereferenceable(8) @"_SM29java.nio.file.PosixException$G8instance", ptr @"_SM7__constG2-95", i32 %_44000006)
  call ptr @"scalanative_throw"(ptr nonnull dereferenceable(40) %_61000003)
  unreachable
_63000002.0:
  call ptr @"_SM34scala.scalanative.runtime.package$D16throwNullPointernEO"(ptr null)
  unreachable
_63000010.0:
  call ptr @"_SM34scala.scalanative.runtime.package$D14throwUndefinednEO"(ptr null)
  unreachable
}

define i32 @"_SM33java.nio.channels.FileChannelImplD5writeLAb_iiiEO"(ptr %_1, ptr %_2, i32 %_3, i32 %_4) personality ptr @__gxx_personality_v0 {
_5000000.0:
  %_23000004 = icmp ne ptr %_1, null
  br i1 %_23000004, label %_23000002.0, label %_23000003.0
_23000002.0:
  %_6000002 = icmp eq ptr %_2, null
  br i1 %_6000002, label %_7000000.0, label %_8000000.0
_8000000.0:
  br label %_9000000.0
_7000000.0:
  br label %_10000000.0
_10000000.0:
  %_10000002 = call dereferenceable_or_null(40) ptr @"scalanative_GC_alloc_small"(ptr @"_SM30java.lang.NullPointerExceptionG4type", i64 40)
  %_23000006 = getelementptr { { ptr }, ptr, ptr, ptr, i1, i1 }, { { ptr }, ptr, ptr, ptr, i1, i1 }* %_10000002, i32 0, i32 5
  %_23000007 = zext i1 true to i8
  store i8 %_23000007, ptr%_23000006, align 1
  %_23000009 = getelementptr { { ptr }, ptr, ptr, ptr, i1, i1 }, { { ptr }, ptr, ptr, ptr, i1, i1 }* %_10000002, i32 0, i32 4
  %_23000010 = zext i1 true to i8
  store i8 %_23000010, ptr%_23000009, align 1
  %_23000012 = getelementptr { { ptr }, ptr, ptr, ptr, i1, i1 }, { { ptr }, ptr, ptr, ptr, i1, i1 }* %_10000002, i32 0, i32 3
  store ptr @"_SM7__constG2-97", ptr%_23000012, align 8
  %_10000006 = call dereferenceable_or_null(40) ptr @"_SM19java.lang.ThrowableD16fillInStackTraceL19java.lang.ThrowableEO"(ptr nonnull dereferenceable(40) %_10000002)
  br label %_11000000.0
_11000000.0:
  call ptr @"scalanative_throw"(ptr nonnull dereferenceable(40) %_10000002)
  unreachable
_9000000.0:
  %_5000005 = icmp slt i32 %_3, 0
  br i1 %_5000005, label %_12000000.0, label %_13000000.0
_12000000.0:
  br label %_14000000.0
_13000000.0:
  %_13000002 = icmp slt i32 %_4, 0
  br label %_14000000.0
_14000000.0:
  %_14000001 = phi i1 [%_13000002, %_13000000.0], [true, %_12000000.0]
  br i1 %_14000001, label %_15000000.0, label %_16000000.0
_15000000.0:
  br label %_17000000.0
_16000000.0:
  %_23000015 = icmp ne ptr %_2, null
  br i1 %_23000015, label %_23000014.0, label %_23000003.0
_23000014.0:
  %_23000016 = getelementptr { ptr, i32, i32 }, { ptr, i32, i32 }* %_2, i32 0, i32 1
  %_16000001 = load i32, ptr %_23000016
  %_16000004 = sub i32 %_16000001, %_3
  %_16000005 = icmp sgt i32 %_4, %_16000004
  br label %_17000000.0
_17000000.0:
  %_17000001 = phi i1 [%_16000005, %_23000014.0], [true, %_15000000.0]
  br i1 %_17000001, label %_18000000.0, label %_19000000.0
_19000000.0:
  br label %_23000000.0
_23000000.0:
  %_23000001 = call i32 @"_SM33java.nio.channels.FileChannelImplD10writeArrayLAb_iiiEPT33java.nio.channels.FileChannelImpl"(ptr dereferenceable_or_null(32) %_1, ptr dereferenceable_or_null(16) %_2, i32 %_3, i32 %_4)
  ret i32 %_23000001
_18000000.0:
  br label %_21000000.0
_21000000.0:
  %_21000001 = call dereferenceable_or_null(40) ptr @"scalanative_GC_alloc_small"(ptr @"_SM35java.lang.IndexOutOfBoundsExceptionG4type", i64 40)
  %_23000018 = getelementptr { { ptr }, ptr, ptr, ptr, i1, i1 }, { { ptr }, ptr, ptr, ptr, i1, i1 }* %_21000001, i32 0, i32 5
  %_23000019 = zext i1 true to i8
  store i8 %_23000019, ptr%_23000018, align 1
  %_23000021 = getelementptr { { ptr }, ptr, ptr, ptr, i1, i1 }, { { ptr }, ptr, ptr, ptr, i1, i1 }* %_21000001, i32 0, i32 4
  %_23000022 = zext i1 true to i8
  store i8 %_23000022, ptr%_23000021, align 1
  %_21000004 = call dereferenceable_or_null(40) ptr @"_SM19java.lang.ThrowableD16fillInStackTraceL19java.lang.ThrowableEO"(ptr nonnull dereferenceable(40) %_21000001)
  br label %_22000000.0
_22000000.0:
  call ptr @"scalanative_throw"(ptr nonnull dereferenceable(40) %_21000001)
  unreachable
_23000003.0:
  call ptr @"_SM34scala.scalanative.runtime.package$D16throwNullPointernEO"(ptr null)
  unreachable
}

define nonnull dereferenceable(56) ptr @"_SM17niocharset.UTF_8$D10newDecoderL31java.nio.charset.CharsetDecoderEO"(ptr %_1) personality ptr @__gxx_personality_v0 {
_2000000.0:
  %_3000004 = call dereferenceable_or_null(32) ptr @"_SM35java.nio.charset.CodingErrorAction$G4load"()
  %_3000007 = getelementptr { { ptr }, ptr, ptr, ptr }, { { ptr }, ptr, ptr, ptr }* %_3000004, i32 0, i32 2
  %_3000005 = load ptr, ptr %_3000007, !dereferenceable_or_null !{i64 16}
  %_3000008 = getelementptr { { ptr }, ptr, ptr, ptr }, { { ptr }, ptr, ptr, ptr }* %_3000004, i32 0, i32 2
  %_3000006 = load ptr, ptr %_3000008, !dereferenceable_or_null !{i64 16}
  %_2000002 = call dereferenceable_or_null(56) ptr @"scalanative_GC_alloc_small"(ptr @"_SM24niocharset.UTF_8$DecoderG4type", i64 56)
  %_3000010 = getelementptr { { ptr }, float, i32, ptr, ptr, ptr, float, ptr }, { { ptr }, float, i32, ptr, ptr, ptr, float, ptr }* %_2000002, i32 0, i32 2
  store i32 1, ptr%_3000010, align 4
  %_3000012 = getelementptr { { ptr }, float, i32, ptr, ptr, ptr, float, ptr }, { { ptr }, float, i32, ptr, ptr, ptr, float, ptr }* %_2000002, i32 0, i32 3
  store ptr %_3000006, ptr%_3000012, align 8
  %_3000014 = getelementptr { { ptr }, float, i32, ptr, ptr, ptr, float, ptr }, { { ptr }, float, i32, ptr, ptr, ptr, float, ptr }* %_2000002, i32 0, i32 4
  store ptr %_3000005, ptr%_3000014, align 8
  %_3000016 = getelementptr { { ptr }, float, i32, ptr, ptr, ptr, float, ptr }, { { ptr }, float, i32, ptr, ptr, ptr, float, ptr }* %_2000002, i32 0, i32 7
  store ptr @"_SM7__constG2-99", ptr%_3000016, align 8
  %_3000018 = getelementptr { { ptr }, float, i32, ptr, ptr, ptr, float, ptr }, { { ptr }, float, i32, ptr, ptr, ptr, float, ptr }* %_2000002, i32 0, i32 6
  store float 0x3ff0000000000000, ptr%_3000018, align 4
  %_3000020 = getelementptr { { ptr }, float, i32, ptr, ptr, ptr, float, ptr }, { { ptr }, float, i32, ptr, ptr, ptr, float, ptr }* %_2000002, i32 0, i32 1
  store float 0x3ff0000000000000, ptr%_3000020, align 4
  %_2000009 = call dereferenceable_or_null(56) ptr @"_SM17niocharset.UTF_8$G4load"()
  %_3000022 = getelementptr { { ptr }, float, i32, ptr, ptr, ptr, float, ptr }, { { ptr }, float, i32, ptr, ptr, ptr, float, ptr }* %_2000002, i32 0, i32 5
  store ptr %_2000009, ptr%_3000022, align 8
  ret ptr %_2000002
}

define nonnull dereferenceable(56) ptr @"_SM17niocharset.UTF_8$D10newEncoderL31java.nio.charset.CharsetEncoderEO"(ptr %_1) personality ptr @__gxx_personality_v0 {
_2000000.0:
  %_3000003 = call dereferenceable_or_null(32) ptr @"_SM35java.nio.charset.CodingErrorAction$G4load"()
  %_3000006 = getelementptr { { ptr }, ptr, ptr, ptr }, { { ptr }, ptr, ptr, ptr }* %_3000003, i32 0, i32 2
  %_3000004 = load ptr, ptr %_3000006, !dereferenceable_or_null !{i64 16}
  %_3000007 = getelementptr { { ptr }, ptr, ptr, ptr }, { { ptr }, ptr, ptr, ptr }* %_3000003, i32 0, i32 2
  %_3000005 = load ptr, ptr %_3000007, !dereferenceable_or_null !{i64 16}
  %_2000002 = call dereferenceable_or_null(56) ptr @"scalanative_GC_alloc_small"(ptr @"_SM24niocharset.UTF_8$EncoderG4type", i64 56)
  %_3000009 = getelementptr { { ptr }, i32, ptr, ptr, ptr, float, float, ptr }, { { ptr }, i32, ptr, ptr, ptr, float, float, ptr }* %_2000002, i32 0, i32 2
  store ptr %_3000005, ptr%_3000009, align 8
  %_3000011 = getelementptr { { ptr }, i32, ptr, ptr, ptr, float, float, ptr }, { { ptr }, i32, ptr, ptr, ptr, float, float, ptr }* %_2000002, i32 0, i32 3
  store ptr %_3000004, ptr%_3000011, align 8
  %_2000005 = call dereferenceable_or_null(16) ptr @"_SM36scala.scalanative.runtime.ByteArray$D8snapshotiR_L35scala.scalanative.runtime.ByteArrayEO"(ptr @"_SM36scala.scalanative.runtime.ByteArray$G8instance", i32 1, ptr @"_SM7__constG3-100")
  %_3000014 = getelementptr { { ptr }, i32, ptr, ptr, ptr, float, float, ptr }, { { ptr }, i32, ptr, ptr, ptr, float, float, ptr }* %_2000002, i32 0, i32 7
  store ptr %_2000005, ptr%_3000014, align 8
  %_3000016 = getelementptr { { ptr }, i32, ptr, ptr, ptr, float, float, ptr }, { { ptr }, i32, ptr, ptr, ptr, float, float, ptr }* %_2000002, i32 0, i32 6
  store float 0x4008000000000000, ptr%_3000016, align 4
  %_3000018 = getelementptr { { ptr }, i32, ptr, ptr, ptr, float, float, ptr }, { { ptr }, i32, ptr, ptr, ptr, float, float, ptr }* %_2000002, i32 0, i32 5
  store float 0x3ff19999a0000000, ptr%_3000018, align 4
  %_2000009 = call dereferenceable_or_null(56) ptr @"_SM17niocharset.UTF_8$G4load"()
  %_3000020 = getelementptr { { ptr }, i32, ptr, ptr, ptr, float, float, ptr }, { { ptr }, i32, ptr, ptr, ptr, float, float, ptr }* %_2000002, i32 0, i32 4
  store ptr %_2000009, ptr%_3000020, align 8
  ret ptr %_2000002
}

define dereferenceable_or_null(16) ptr @"_SM17niocharset.UTF_8$D34niocharset$UTF_8$$$lengthByLeadingLAi_EO"(ptr %_1) alwaysinline personality ptr @__gxx_personality_v0 {
_2.0:
  br label %_3.0
_3.0:
  br i1 true, label %_4.0, label %_5.0
_4.0:
  %_75 = icmp ne ptr %_1, null
  br i1 %_75, label %_73.0, label %_74.0
_73.0:
  %_76 = getelementptr { { ptr }, ptr, ptr, i64, ptr, ptr, i64 }, { { ptr }, ptr, ptr, i64, ptr, ptr, i64 }* %_1, i32 0, i32 6
  %_9 = call i64 @"_SM35scala.scalanative.runtime.LazyVals$D3getR_jEO"(ptr nonnull dereferenceable(8) @"_SM35scala.scalanative.runtime.LazyVals$G8instance", ptr %_76)
  %_12 = call i64 @"_SM23scala.runtime.LazyVals$D5STATEjijEO"(ptr nonnull dereferenceable(8) @"_SM23scala.runtime.LazyVals$G8instance", i64 %_9, i32 0)
  %_17 = sext i32 3 to i64
  %_18 = icmp eq i64 %_12, %_17
  br i1 %_18, label %_13.0, label %_14.0
_13.0:
  %_19 = call dereferenceable_or_null(56) ptr @"_SM17niocharset.UTF_8$G4load"()
  %_77 = getelementptr { { ptr }, ptr, ptr, i64, ptr, ptr, i64 }, { { ptr }, ptr, ptr, i64, ptr, ptr, i64 }* %_19, i32 0, i32 5
  %_20 = load ptr, ptr %_77, !dereferenceable_or_null !{i64 16}
  ret ptr %_20
_14.0:
  %_26 = sext i32 0 to i64
  %_27 = icmp eq i64 %_12, %_26
  br i1 %_27, label %_22.0, label %_23.0
_22.0:
  %_78 = getelementptr { { ptr }, ptr, ptr, i64, ptr, ptr, i64 }, { { ptr }, ptr, ptr, i64, ptr, ptr, i64 }* %_1, i32 0, i32 6
  %_35 = call i1 @"_SM35scala.scalanative.runtime.LazyVals$D3CASR_jiizEO"(ptr nonnull dereferenceable(8) @"_SM35scala.scalanative.runtime.LazyVals$G8instance", ptr %_78, i64 %_9, i32 1, i32 0)
  br i1 %_35, label %_28.0, label %_29.0
_28.0:
  br label %_37.0
_37.0:
  %_42 = invoke dereferenceable_or_null(16) ptr @"_SM35scala.scalanative.runtime.IntArray$D8snapshotiR_L34scala.scalanative.runtime.IntArrayEO"(ptr @"_SM35scala.scalanative.runtime.IntArray$G8instance", i32 128, ptr @"_SM7__constG3-101") to label %_37.1 unwind label %_82.landingpad
_37.1:
  %_44 = invoke dereferenceable_or_null(56) ptr @"_SM17niocharset.UTF_8$G4load"() to label %_37.2 unwind label %_84.landingpad
_37.2:
  %_88 = getelementptr { { ptr }, ptr, ptr, i64, ptr, ptr, i64 }, { { ptr }, ptr, ptr, i64, ptr, ptr, i64 }* %_44, i32 0, i32 5
  store ptr %_42, ptr%_88, align 8
  %_95 = getelementptr { { ptr }, ptr, ptr, i64, ptr, ptr, i64 }, { { ptr }, ptr, ptr, i64, ptr, ptr, i64 }* %_1, i32 0, i32 6
  invoke void @"_SM35scala.scalanative.runtime.LazyVals$D7setFlagR_iiuEO"(ptr nonnull dereferenceable(8) @"_SM35scala.scalanative.runtime.LazyVals$G8instance", ptr %_95, i32 3, i32 0) to label %_37.3 unwind label %_101.landingpad
_37.3:
  ret ptr %_42
_36.0:
  %_39 = phi ptr [%_53, %_99.0], [%_51, %_97.0], [%_49, %_93.0], [%_47, %_91.0], [%_45, %_85.0], [%_43, %_83.0], [%_41, %_79.0]
  %_106 = icmp eq ptr %_39, null
  br i1 %_106, label %_103.0, label %_104.0
_103.0:
  br label %_105.0
_104.0:
  %_107 = load ptr, ptr %_39
  %_108 = getelementptr { ptr, i32, i32, ptr }, { ptr, i32, i32, ptr }* %_107, i32 0, i32 1
  %_109 = load i32, ptr %_108
  %_110 = icmp sle i32 207, %_109
  %_111 = icmp sle i32 %_109, 263
  %_112 = and i1 %_110, %_111
  br label %_105.0
_105.0:
  %_56 = phi i1 [%_112, %_104.0], [false, %_103.0]
  br i1 %_56, label %_57.0, label %_58.0
_57.0:
  %_116 = icmp eq ptr %_39, null
  br i1 %_116, label %_114.0, label %_113.0
_113.0:
  %_117 = load ptr, ptr %_39
  %_118 = getelementptr { ptr, i32, i32, ptr }, { ptr, i32, i32, ptr }* %_117, i32 0, i32 1
  %_119 = load i32, ptr %_118
  %_120 = icmp sle i32 207, %_119
  %_121 = icmp sle i32 %_119, 263
  %_122 = and i1 %_120, %_121
  br i1 %_122, label %_114.0, label %_115.0
_114.0:
  %_123 = getelementptr { { ptr }, ptr, ptr, i64, ptr, ptr, i64 }, { { ptr }, ptr, ptr, i64, ptr, ptr, i64 }* %_1, i32 0, i32 6
  call void @"_SM35scala.scalanative.runtime.LazyVals$D7setFlagR_iiuEO"(ptr nonnull dereferenceable(8) @"_SM35scala.scalanative.runtime.LazyVals$G8instance", ptr %_123, i32 0, i32 0)
  %_126 = icmp ne ptr %_39, null
  br i1 %_126, label %_125.0, label %_74.0
_125.0:
  call ptr @"scalanative_throw"(ptr dereferenceable_or_null(40) %_39)
  unreachable
_58.0:
  %_129 = icmp ne ptr %_39, null
  br i1 %_129, label %_128.0, label %_74.0
_128.0:
  call ptr @"scalanative_throw"(ptr dereferenceable_or_null(8) %_39)
  unreachable
_29.0:
  br label %_30.0
_30.0:
  br label %_24.0
_23.0:
  %_131 = getelementptr { { ptr }, ptr, ptr, i64, ptr, ptr, i64 }, { { ptr }, ptr, ptr, i64, ptr, ptr, i64 }* %_1, i32 0, i32 6
  call void @"_SM35scala.scalanative.runtime.LazyVals$D17wait4NotificationR_jiuEO"(ptr nonnull dereferenceable(8) @"_SM35scala.scalanative.runtime.LazyVals$G8instance", ptr %_131, i64 %_9, i32 0)
  br label %_24.0
_24.0:
  br label %_15.0
_15.0:
  br label %_3.0
_5.0:
  ret ptr zeroinitializer
_74.0:
  call ptr @"_SM34scala.scalanative.runtime.package$D16throwNullPointernEO"(ptr null)
  unreachable
_115.0:
  %_134 = phi ptr [%_39, %_113.0]
  %_135 = phi ptr [@"_SM19java.lang.ThrowableG4type", %_113.0]
  %_136 = load ptr, ptr %_134
  call ptr @"_SM34scala.scalanative.runtime.package$D14throwClassCastR_R_nEO"(ptr null, ptr %_136, ptr %_135)
  unreachable
_79.0:
  %_41 = phi ptr [%_81, %_81.landingpad.succ], [%_82, %_82.landingpad.succ]
  br label %_36.0
_83.0:
  %_43 = phi ptr [%_84, %_84.landingpad.succ]
  br label %_36.0
_85.0:
  %_45 = phi ptr [%_87, %_87.landingpad.succ], [%_89, %_89.landingpad.succ]
  br label %_36.0
_91.0:
  %_47 = phi ptr [%_92, %_92.landingpad.succ]
  br label %_36.0
_93.0:
  %_49 = phi ptr [%_94, %_94.landingpad.succ], [%_96, %_96.landingpad.succ]
  br label %_36.0
_97.0:
  %_51 = phi ptr [%_98, %_98.landingpad.succ]
  br label %_36.0
_99.0:
  %_53 = phi ptr [%_101, %_101.landingpad.succ]
  br label %_36.0
_81.landingpad:
  %_169 = landingpad { ptr, i32 } catch ptr @_ZTIN11scalanative16ExceptionWrapperE
  %_170 = extractvalue { ptr, i32 } %_169, 0
  %_171 = extractvalue { ptr, i32 } %_169, 1
  %_172 = call i32 @llvm.eh.typeid.for(ptr @_ZTIN11scalanative16ExceptionWrapperE)
  %_173 = icmp eq i32 %_171, %_172
  br i1 %_173, label %_81.landingpad.succ, label %_81.landingpad.fail
_81.landingpad.succ:
  %_174 = call ptr @__cxa_begin_catch(ptr %_170)
  %_176 = getelementptr ptr, ptr %_174, i32 1
  %_81 = load ptr, ptr %_176
  call void @__cxa_end_catch()br label %_79.0
_81.landingpad.fail:
  resume { ptr, i32 } %_169
_82.landingpad:
  %_177 = landingpad { ptr, i32 } catch ptr @_ZTIN11scalanative16ExceptionWrapperE
  %_178 = extractvalue { ptr, i32 } %_177, 0
  %_179 = extractvalue { ptr, i32 } %_177, 1
  %_180 = call i32 @llvm.eh.typeid.for(ptr @_ZTIN11scalanative16ExceptionWrapperE)
  %_181 = icmp eq i32 %_179, %_180
  br i1 %_181, label %_82.landingpad.succ, label %_82.landingpad.fail
_82.landingpad.succ:
  %_182 = call ptr @__cxa_begin_catch(ptr %_178)
  %_184 = getelementptr ptr, ptr %_182, i32 1
  %_82 = load ptr, ptr %_184
  call void @__cxa_end_catch()br label %_79.0
_82.landingpad.fail:
  resume { ptr, i32 } %_177
_84.landingpad:
  %_185 = landingpad { ptr, i32 } catch ptr @_ZTIN11scalanative16ExceptionWrapperE
  %_186 = extractvalue { ptr, i32 } %_185, 0
  %_187 = extractvalue { ptr, i32 } %_185, 1
  %_188 = call i32 @llvm.eh.typeid.for(ptr @_ZTIN11scalanative16ExceptionWrapperE)
  %_189 = icmp eq i32 %_187, %_188
  br i1 %_189, label %_84.landingpad.succ, label %_84.landingpad.fail
_84.landingpad.succ:
  %_190 = call ptr @__cxa_begin_catch(ptr %_186)
  %_192 = getelementptr ptr, ptr %_190, i32 1
  %_84 = load ptr, ptr %_192
  call void @__cxa_end_catch()br label %_83.0
_84.landingpad.fail:
  resume { ptr, i32 } %_185
_87.landingpad:
  %_193 = landingpad { ptr, i32 } catch ptr @_ZTIN11scalanative16ExceptionWrapperE
  %_194 = extractvalue { ptr, i32 } %_193, 0
  %_195 = extractvalue { ptr, i32 } %_193, 1
  %_196 = call i32 @llvm.eh.typeid.for(ptr @_ZTIN11scalanative16ExceptionWrapperE)
  %_197 = icmp eq i32 %_195, %_196
  br i1 %_197, label %_87.landingpad.succ, label %_87.landingpad.fail
_87.landingpad.succ:
  %_198 = call ptr @__cxa_begin_catch(ptr %_194)
  %_200 = getelementptr ptr, ptr %_198, i32 1
  %_87 = load ptr, ptr %_200
  call void @__cxa_end_catch()br label %_85.0
_87.landingpad.fail:
  resume { ptr, i32 } %_193
_89.landingpad:
  %_201 = landingpad { ptr, i32 } catch ptr @_ZTIN11scalanative16ExceptionWrapperE
  %_202 = extractvalue { ptr, i32 } %_201, 0
  %_203 = extractvalue { ptr, i32 } %_201, 1
  %_204 = call i32 @llvm.eh.typeid.for(ptr @_ZTIN11scalanative16ExceptionWrapperE)
  %_205 = icmp eq i32 %_203, %_204
  br i1 %_205, label %_89.landingpad.succ, label %_89.landingpad.fail
_89.landingpad.succ:
  %_206 = call ptr @__cxa_begin_catch(ptr %_202)
  %_208 = getelementptr ptr, ptr %_206, i32 1
  %_89 = load ptr, ptr %_208
  call void @__cxa_end_catch()br label %_85.0
_89.landingpad.fail:
  resume { ptr, i32 } %_201
_92.landingpad:
  %_209 = landingpad { ptr, i32 } catch ptr @_ZTIN11scalanative16ExceptionWrapperE
  %_210 = extractvalue { ptr, i32 } %_209, 0
  %_211 = extractvalue { ptr, i32 } %_209, 1
  %_212 = call i32 @llvm.eh.typeid.for(ptr @_ZTIN11scalanative16ExceptionWrapperE)
  %_213 = icmp eq i32 %_211, %_212
  br i1 %_213, label %_92.landingpad.succ, label %_92.landingpad.fail
_92.landingpad.succ:
  %_214 = call ptr @__cxa_begin_catch(ptr %_210)
  %_216 = getelementptr ptr, ptr %_214, i32 1
  %_92 = load ptr, ptr %_216
  call void @__cxa_end_catch()br label %_91.0
_92.landingpad.fail:
  resume { ptr, i32 } %_209
_94.landingpad:
  %_217 = landingpad { ptr, i32 } catch ptr @_ZTIN11scalanative16ExceptionWrapperE
  %_218 = extractvalue { ptr, i32 } %_217, 0
  %_219 = extractvalue { ptr, i32 } %_217, 1
  %_220 = call i32 @llvm.eh.typeid.for(ptr @_ZTIN11scalanative16ExceptionWrapperE)
  %_221 = icmp eq i32 %_219, %_220
  br i1 %_221, label %_94.landingpad.succ, label %_94.landingpad.fail
_94.landingpad.succ:
  %_222 = call ptr @__cxa_begin_catch(ptr %_218)
  %_224 = getelementptr ptr, ptr %_222, i32 1
  %_94 = load ptr, ptr %_224
  call void @__cxa_end_catch()br label %_93.0
_94.landingpad.fail:
  resume { ptr, i32 } %_217
_96.landingpad:
  %_225 = landingpad { ptr, i32 } catch ptr @_ZTIN11scalanative16ExceptionWrapperE
  %_226 = extractvalue { ptr, i32 } %_225, 0
  %_227 = extractvalue { ptr, i32 } %_225, 1
  %_228 = call i32 @llvm.eh.typeid.for(ptr @_ZTIN11scalanative16ExceptionWrapperE)
  %_229 = icmp eq i32 %_227, %_228
  br i1 %_229, label %_96.landingpad.succ, label %_96.landingpad.fail
_96.landingpad.succ:
  %_230 = call ptr @__cxa_begin_catch(ptr %_226)
  %_232 = getelementptr ptr, ptr %_230, i32 1
  %_96 = load ptr, ptr %_232
  call void @__cxa_end_catch()br label %_93.0
_96.landingpad.fail:
  resume { ptr, i32 } %_225
_98.landingpad:
  %_233 = landingpad { ptr, i32 } catch ptr @_ZTIN11scalanative16ExceptionWrapperE
  %_234 = extractvalue { ptr, i32 } %_233, 0
  %_235 = extractvalue { ptr, i32 } %_233, 1
  %_236 = call i32 @llvm.eh.typeid.for(ptr @_ZTIN11scalanative16ExceptionWrapperE)
  %_237 = icmp eq i32 %_235, %_236
  br i1 %_237, label %_98.landingpad.succ, label %_98.landingpad.fail
_98.landingpad.succ:
  %_238 = call ptr @__cxa_begin_catch(ptr %_234)
  %_240 = getelementptr ptr, ptr %_238, i32 1
  %_98 = load ptr, ptr %_240
  call void @__cxa_end_catch()br label %_97.0
_98.landingpad.fail:
  resume { ptr, i32 } %_233
_101.landingpad:
  %_241 = landingpad { ptr, i32 } catch ptr @_ZTIN11scalanative16ExceptionWrapperE
  %_242 = extractvalue { ptr, i32 } %_241, 0
  %_243 = extractvalue { ptr, i32 } %_241, 1
  %_244 = call i32 @llvm.eh.typeid.for(ptr @_ZTIN11scalanative16ExceptionWrapperE)
  %_245 = icmp eq i32 %_243, %_244
  br i1 %_245, label %_101.landingpad.succ, label %_101.landingpad.fail
_101.landingpad.succ:
  %_246 = call ptr @__cxa_begin_catch(ptr %_242)
  %_248 = getelementptr ptr, ptr %_246, i32 1
  %_101 = load ptr, ptr %_248
  call void @__cxa_end_catch()br label %_99.0
_101.landingpad.fail:
  resume { ptr, i32 } %_241
}

define dereferenceable_or_null(56) ptr @"_SM17niocharset.UTF_8$G4load"() noinline personality ptr @__gxx_personality_v0 {
_1.0:
  %_4 = getelementptr ptr, ptr @"__modules", i32 13
  %_5 = load ptr, ptr %_4, !dereferenceable_or_null !{i64 56}
  %_6 = icmp ne ptr %_5, null
  br i1 %_6, label %_2.0, label %_3.0
_2.0:
  ret ptr %_5
_3.0:
  %_7 = call dereferenceable_or_null(56) ptr @"scalanative_GC_alloc_small"(ptr @"_SM17niocharset.UTF_8$G4type", i64 56)
  store ptr %_7, ptr%_4, align 8
  call void @"_SM17niocharset.UTF_8$RE"(ptr dereferenceable_or_null(56) %_7)
  ret ptr %_7
}

define void @"_SM17niocharset.UTF_8$RE"(ptr %_1) personality ptr @__gxx_personality_v0 {
_2000000.0:
  %_3000008 = icmp ne ptr %_1, null
  br i1 %_3000008, label %_3000006.0, label %_3000007.0
_3000006.0:
  %_3000010 = getelementptr { { ptr }, ptr, ptr, i64, ptr }, { { ptr }, ptr, ptr, i64, ptr }* %_1, i32 0, i32 1
  store ptr @"_SM7__constG3-103", ptr%_3000010, align 8
  %_3000002 = call dereferenceable_or_null(16) ptr @"_SM38scala.scalanative.runtime.ObjectArray$D5allociL37scala.scalanative.runtime.ObjectArrayEO"(ptr @"_SM38scala.scalanative.runtime.ObjectArray$G8instance", i32 2)
  %_3000014 = getelementptr { ptr, i32, i32 }, { ptr, i32, i32 }* %_3000002, i32 0, i32 1
  %_3000013 = load i32, ptr %_3000014
  %_3000017 = icmp sge i32 0, 0
  %_3000018 = icmp slt i32 0, %_3000013
  %_3000019 = and i1 %_3000017, %_3000018
  br i1 %_3000019, label %_3000015.0, label %_3000016.0
_3000015.0:
  %_3000020 = getelementptr { { ptr, i32, i32 }, [0 x ptr] }, { { ptr, i32, i32 }, [0 x ptr] }* %_3000002, i32 0, i32 1, i32 0
  store ptr @"_SM7__constG3-105", ptr%_3000020, align 8
  %_3000023 = getelementptr { ptr, i32, i32 }, { ptr, i32, i32 }* %_3000002, i32 0, i32 1
  %_3000022 = load i32, ptr %_3000023
  %_3000025 = icmp sge i32 1, 0
  %_3000026 = icmp slt i32 1, %_3000022
  %_3000027 = and i1 %_3000025, %_3000026
  br i1 %_3000027, label %_3000024.0, label %_3000016.0
_3000024.0:
  %_3000028 = getelementptr { { ptr, i32, i32 }, [0 x ptr] }, { { ptr, i32, i32 }, [0 x ptr] }* %_3000002, i32 0, i32 1, i32 1
  store ptr @"_SM7__constG3-107", ptr%_3000028, align 8
  %_3000030 = getelementptr { { ptr }, ptr, ptr, i64, ptr }, { { ptr }, ptr, ptr, i64, ptr }* %_1, i32 0, i32 4
  store ptr %_3000002, ptr%_3000030, align 8
  ret void
_3000007.0:
  call ptr @"_SM34scala.scalanative.runtime.package$D16throwNullPointernEO"(ptr null)
  unreachable
_3000016.0:
  %_3000032 = phi i32 [0, %_3000006.0], [1, %_3000015.0]
  %_3000033 = phi i32 [%_3000013, %_3000006.0], [%_3000022, %_3000015.0]
  call ptr @"_SM34scala.scalanative.runtime.package$D16throwOutOfBoundsiinEO"(ptr null, i32 %_3000032, i32 %_3000033)
  unreachable
}

define dereferenceable_or_null(16) ptr @"_SM24niocharset.UTF_8$DecoderD10decodeLoopL19java.nio.ByteBufferL19java.nio.CharBufferL28java.nio.charset.CoderResultEO"(ptr %_1, ptr %_2, ptr %_3) personality ptr @__gxx_personality_v0 {
_4000000.0:
  %_32000004 = icmp ne ptr %_1, null
  br i1 %_32000004, label %_32000002.0, label %_32000003.0
_32000002.0:
  %_5000001 = call dereferenceable_or_null(32) ptr @"_SM16java.lang.ObjectD8getClassL15java.lang.ClassEO"(ptr dereferenceable_or_null(56) %_2)
  %_5000003 = icmp eq ptr %_5000001, @"_SM23java.nio.HeapByteBufferG4type"
  br i1 %_5000003, label %_6000000.0, label %_7000000.0
_7000000.0:
  %_7000002 = icmp eq ptr %_5000001, @"_SM23java.nio.HeapCharBufferG4type"
  br label %_8000000.0
_6000000.0:
  %_32000006 = icmp ne ptr %_2, null
  br i1 %_32000006, label %_32000005.0, label %_32000003.0
_32000005.0:
  %_32000007 = getelementptr { { ptr }, i32, i32, i32, i32, ptr, i32, ptr, i1 }, { { ptr }, i32, i32, i32, i32, ptr, i32, ptr, i1 }* %_2, i32 0, i32 7
  %_6000001 = load ptr, ptr %_32000007, !dereferenceable_or_null !{i64 16}
  br label %_9000000.0
_8000000.0:
  %_8000002 = bitcast ptr %_2 to ptr
  %_32000009 = icmp ne ptr %_8000002, null
  br i1 %_32000009, label %_32000008.0, label %_32000003.0
_32000008.0:
  %_32000010 = getelementptr { { ptr }, i32, i32, i32, i32, ptr, i32, ptr }, { { ptr }, i32, i32, i32, i32, ptr, i32, ptr }* %_8000002, i32 0, i32 7
  %_8000003 = load ptr, ptr %_32000010, !dereferenceable_or_null !{i64 16}
  br label %_9000000.0
_9000000.0:
  %_9000001 = phi ptr [%_8000003, %_32000008.0], [%_6000001, %_32000005.0]
  %_9000004 = icmp eq ptr %_9000001, null
  %_9000005 = xor i1 %_9000004, true
  br i1 %_9000005, label %_10000000.0, label %_11000000.0
_10000000.0:
  %_10000002 = bitcast ptr %_2 to ptr
  %_32000012 = icmp ne ptr %_10000002, null
  br i1 %_32000012, label %_32000011.0, label %_32000003.0
_32000011.0:
  %_32000013 = getelementptr { { ptr }, i32, i32, i32, i32, ptr, i32, ptr, i1, i1 }, { { ptr }, i32, i32, i32, i32, ptr, i32, ptr, i1, i1 }* %_10000002, i32 0, i32 9
  %_32000014 = load i8, ptr %_32000013
  %_10000003 = trunc i8 %_32000014 to i1
  %_10000005 = xor i1 %_10000003, true
  br label %_12000000.0
_11000000.0:
  br label %_12000000.0
_12000000.0:
  %_12000001 = phi i1 [false, %_11000000.0], [%_10000005, %_32000011.0]
  br i1 %_12000001, label %_13000000.0, label %_14000000.0
_13000000.0:
  %_15000001 = call dereferenceable_or_null(32) ptr @"_SM16java.lang.ObjectD8getClassL15java.lang.ClassEO"(ptr dereferenceable_or_null(48) %_3)
  %_15000003 = icmp eq ptr %_15000001, @"_SM23java.nio.HeapByteBufferG4type"
  br i1 %_15000003, label %_16000000.0, label %_17000000.0
_17000000.0:
  %_17000002 = icmp eq ptr %_15000001, @"_SM23java.nio.HeapCharBufferG4type"
  br label %_18000000.0
_16000000.0:
  %_16000002 = bitcast ptr %_3 to ptr
  %_32000016 = icmp ne ptr %_16000002, null
  br i1 %_32000016, label %_32000015.0, label %_32000003.0
_32000015.0:
  %_32000017 = getelementptr { { ptr }, i32, i32, i32, i32, ptr, i32, ptr, i1 }, { { ptr }, i32, i32, i32, i32, ptr, i32, ptr, i1 }* %_16000002, i32 0, i32 7
  %_16000003 = load ptr, ptr %_32000017, !dereferenceable_or_null !{i64 16}
  br label %_19000000.0
_18000000.0:
  %_32000019 = icmp ne ptr %_3, null
  br i1 %_32000019, label %_32000018.0, label %_32000003.0
_32000018.0:
  %_32000020 = getelementptr { { ptr }, i32, i32, i32, i32, ptr, i32, ptr }, { { ptr }, i32, i32, i32, i32, ptr, i32, ptr }* %_3, i32 0, i32 7
  %_18000001 = load ptr, ptr %_32000020, !dereferenceable_or_null !{i64 16}
  br label %_19000000.0
_19000000.0:
  %_19000001 = phi ptr [%_18000001, %_32000018.0], [%_16000003, %_32000015.0]
  %_19000004 = icmp eq ptr %_19000001, null
  %_19000005 = xor i1 %_19000004, true
  br i1 %_19000005, label %_20000000.0, label %_21000000.0
_20000000.0:
  %_20000001 = call dereferenceable_or_null(32) ptr @"_SM16java.lang.ObjectD8getClassL15java.lang.ClassEO"(ptr dereferenceable_or_null(48) %_3)
  %_20000003 = icmp eq ptr %_20000001, @"_SM23java.nio.HeapCharBufferG4type"
  br i1 %_20000003, label %_22000000.0, label %_23000000.0
_22000000.0:
  %_24000001 = bitcast ptr %_3 to ptr
  %_32000022 = icmp ne ptr %_24000001, null
  br i1 %_32000022, label %_32000021.0, label %_32000003.0
_32000021.0:
  %_32000023 = getelementptr { { ptr }, i32, i32, i32, i32, ptr, i32, ptr, i1 }, { { ptr }, i32, i32, i32, i32, ptr, i32, ptr, i1 }* %_24000001, i32 0, i32 8
  %_32000024 = load i8, ptr %_32000023
  %_24000002 = trunc i8 %_32000024 to i1
  br label %_25000000.0
_23000000.0:
  br label %_25000000.0
_25000000.0:
  %_25000001 = phi i1 [true, %_23000000.0], [%_24000002, %_32000021.0]
  %_25000003 = xor i1 %_25000001, true
  br label %_27000000.0
_21000000.0:
  br label %_27000000.0
_27000000.0:
  %_27000001 = phi i1 [false, %_21000000.0], [%_25000003, %_25000000.0]
  br label %_28000000.0
_14000000.0:
  br label %_28000000.0
_28000000.0:
  %_28000001 = phi i1 [false, %_14000000.0], [%_27000001, %_27000000.0]
  br i1 %_28000001, label %_29000000.0, label %_30000000.0
_29000000.0:
  %_29000001 = call dereferenceable_or_null(16) ptr @"_SM24niocharset.UTF_8$DecoderD15decodeLoopArrayL19java.nio.ByteBufferL19java.nio.CharBufferL28java.nio.charset.CoderResultEPT24niocharset.UTF_8$Decoder"(ptr dereferenceable_or_null(56) %_1, ptr dereferenceable_or_null(56) %_2, ptr dereferenceable_or_null(48) %_3)
  br label %_31000000.0
_30000000.0:
  %_32000001 = call dereferenceable_or_null(16) ptr @"_SM24niocharset.UTF_8$DecoderD6loop$2L19java.nio.ByteBufferL19java.nio.CharBufferL28java.nio.charset.CoderResultEPT24niocharset.UTF_8$Decoder"(ptr dereferenceable_or_null(56) %_1, ptr dereferenceable_or_null(56) %_2, ptr dereferenceable_or_null(48) %_3)
  br label %_31000000.0
_31000000.0:
  %_31000001 = phi ptr [%_32000001, %_30000000.0], [%_29000001, %_29000000.0]
  ret ptr %_31000001
_32000003.0:
  call ptr @"_SM34scala.scalanative.runtime.package$D16throwNullPointernEO"(ptr null)
  unreachable
}

define dereferenceable_or_null(16) ptr @"_SM24niocharset.UTF_8$DecoderD15decodeLoopArrayL19java.nio.ByteBufferL19java.nio.CharBufferL28java.nio.charset.CoderResultEPT24niocharset.UTF_8$Decoder"(ptr %_1, ptr %_2, ptr %_3) personality ptr @__gxx_personality_v0 {
_4000000.0:
  %_78000004 = icmp ne ptr %_1, null
  br i1 %_78000004, label %_78000002.0, label %_78000003.0
_78000002.0:
  %_5000001 = call dereferenceable_or_null(32) ptr @"_SM16java.lang.ObjectD8getClassL15java.lang.ClassEO"(ptr dereferenceable_or_null(56) %_2)
  %_5000003 = icmp eq ptr %_5000001, @"_SM23java.nio.HeapByteBufferG4type"
  br i1 %_5000003, label %_6000000.0, label %_7000000.0
_7000000.0:
  %_7000002 = icmp eq ptr %_5000001, @"_SM23java.nio.HeapCharBufferG4type"
  br label %_8000000.0
_6000000.0:
  %_78000006 = icmp ne ptr %_2, null
  br i1 %_78000006, label %_78000005.0, label %_78000003.0
_78000005.0:
  %_78000007 = getelementptr { { ptr }, i32, i32, i32, i32, ptr, i32, ptr, i1 }, { { ptr }, i32, i32, i32, i32, ptr, i32, ptr, i1 }* %_2, i32 0, i32 7
  %_6000001 = load ptr, ptr %_78000007, !dereferenceable_or_null !{i64 16}
  br label %_9000000.0
_8000000.0:
  %_8000002 = bitcast ptr %_2 to ptr
  %_78000009 = icmp ne ptr %_8000002, null
  br i1 %_78000009, label %_78000008.0, label %_78000003.0
_78000008.0:
  %_78000010 = getelementptr { { ptr }, i32, i32, i32, i32, ptr, i32, ptr }, { { ptr }, i32, i32, i32, i32, ptr, i32, ptr }* %_8000002, i32 0, i32 7
  %_8000003 = load ptr, ptr %_78000010, !dereferenceable_or_null !{i64 16}
  br label %_9000000.0
_9000000.0:
  %_9000001 = phi ptr [%_8000003, %_78000008.0], [%_6000001, %_78000005.0]
  %_9000003 = icmp eq ptr %_9000001, null
  br i1 %_9000003, label %_10000000.0, label %_11000000.0
_11000000.0:
  br label %_12000000.0
_12000000.0:
  %_12000002 = bitcast ptr %_2 to ptr
  %_78000012 = icmp ne ptr %_12000002, null
  br i1 %_78000012, label %_78000011.0, label %_78000003.0
_78000011.0:
  %_78000013 = getelementptr { { ptr }, i32, i32, i32, i32, ptr, i32, ptr, i1, i1 }, { { ptr }, i32, i32, i32, i32, ptr, i32, ptr, i1, i1 }* %_12000002, i32 0, i32 9
  %_78000014 = load i8, ptr %_78000013
  %_12000003 = trunc i8 %_78000014 to i1
  br i1 %_12000003, label %_13000000.0, label %_14000000.0
_14000000.0:
  br label %_15000000.0
_10000000.0:
  br label %_16000000.0
_16000000.0:
  %_16000002 = call dereferenceable_or_null(40) ptr @"scalanative_GC_alloc_small"(ptr @"_SM39java.lang.UnsupportedOperationExceptionG4type", i64 40)
  %_78000016 = getelementptr { { ptr }, ptr, ptr, ptr, i1, i1 }, { { ptr }, ptr, ptr, ptr, i1, i1 }* %_16000002, i32 0, i32 5
  %_78000017 = zext i1 true to i8
  store i8 %_78000017, ptr%_78000016, align 1
  %_78000019 = getelementptr { { ptr }, ptr, ptr, ptr, i1, i1 }, { { ptr }, ptr, ptr, ptr, i1, i1 }* %_16000002, i32 0, i32 4
  %_78000020 = zext i1 true to i8
  store i8 %_78000020, ptr%_78000019, align 1
  %_16000005 = call dereferenceable_or_null(40) ptr @"_SM19java.lang.ThrowableD16fillInStackTraceL19java.lang.ThrowableEO"(ptr nonnull dereferenceable(40) %_16000002)
  br label %_17000000.0
_13000000.0:
  br label %_18000000.0
_18000000.0:
  %_18000002 = call dereferenceable_or_null(40) ptr @"scalanative_GC_alloc_small"(ptr @"_SM32java.nio.ReadOnlyBufferExceptionG4type", i64 40)
  %_78000022 = getelementptr { { ptr }, ptr, ptr, ptr, i1, i1 }, { { ptr }, ptr, ptr, ptr, i1, i1 }* %_18000002, i32 0, i32 5
  %_78000023 = zext i1 true to i8
  store i8 %_78000023, ptr%_78000022, align 1
  %_78000025 = getelementptr { { ptr }, ptr, ptr, ptr, i1, i1 }, { { ptr }, ptr, ptr, ptr, i1, i1 }* %_18000002, i32 0, i32 4
  %_78000026 = zext i1 true to i8
  store i8 %_78000026, ptr%_78000025, align 1
  %_18000005 = call dereferenceable_or_null(40) ptr @"_SM19java.lang.ThrowableD16fillInStackTraceL19java.lang.ThrowableEO"(ptr nonnull dereferenceable(40) %_18000002)
  br label %_19000000.0
_17000000.0:
  call ptr @"scalanative_throw"(ptr nonnull dereferenceable(40) %_16000002)
  unreachable
_19000000.0:
  call ptr @"scalanative_throw"(ptr nonnull dereferenceable(40) %_18000002)
  unreachable
_15000000.0:
  %_78000032 = icmp eq ptr %_9000001, null
  br i1 %_78000032, label %_78000030.0, label %_78000029.0
_78000029.0:
  %_78000033 = load ptr, ptr %_9000001
  %_78000034 = icmp eq ptr %_78000033, @"_SM35scala.scalanative.runtime.ByteArrayG4type"
  br i1 %_78000034, label %_78000030.0, label %_78000031.0
_78000030.0:
  %_20000001 = call dereferenceable_or_null(32) ptr @"_SM16java.lang.ObjectD8getClassL15java.lang.ClassEO"(ptr dereferenceable_or_null(56) %_2)
  %_20000003 = icmp eq ptr %_20000001, @"_SM23java.nio.HeapByteBufferG4type"
  br i1 %_20000003, label %_21000000.0, label %_22000000.0
_22000000.0:
  %_22000002 = icmp eq ptr %_20000001, @"_SM23java.nio.HeapCharBufferG4type"
  br label %_23000000.0
_21000000.0:
  %_78000035 = getelementptr { { ptr }, i32, i32, i32, i32, ptr, i32, ptr, i1 }, { { ptr }, i32, i32, i32, i32, ptr, i32, ptr, i1 }* %_2, i32 0, i32 6
  %_21000001 = load i32, ptr %_78000035
  br label %_24000000.0
_23000000.0:
  %_23000002 = bitcast ptr %_2 to ptr
  %_78000037 = icmp ne ptr %_23000002, null
  br i1 %_78000037, label %_78000036.0, label %_78000003.0
_78000036.0:
  %_78000038 = getelementptr { { ptr }, i32, i32, i32, i32, ptr, i32, ptr }, { { ptr }, i32, i32, i32, i32, ptr, i32, ptr }* %_23000002, i32 0, i32 6
  %_23000003 = load i32, ptr %_78000038
  br label %_24000000.0
_24000000.0:
  %_24000001 = phi i32 [%_23000003, %_78000036.0], [%_21000001, %_21000000.0]
  %_24000003 = icmp eq i32 %_24000001, -1
  br i1 %_24000003, label %_25000000.0, label %_26000000.0
_26000000.0:
  br label %_27000000.0
_27000000.0:
  %_78000039 = getelementptr { { ptr }, i32, i32, i32, i32, ptr, i32, ptr, i1, i1 }, { { ptr }, i32, i32, i32, i32, ptr, i32, ptr, i1, i1 }* %_12000002, i32 0, i32 9
  %_78000040 = load i8, ptr %_78000039
  %_27000002 = trunc i8 %_78000040 to i1
  br i1 %_27000002, label %_28000000.0, label %_29000000.0
_29000000.0:
  br label %_30000000.0
_25000000.0:
  br label %_31000000.0
_31000000.0:
  %_31000002 = call dereferenceable_or_null(40) ptr @"scalanative_GC_alloc_small"(ptr @"_SM39java.lang.UnsupportedOperationExceptionG4type", i64 40)
  %_78000042 = getelementptr { { ptr }, ptr, ptr, ptr, i1, i1 }, { { ptr }, ptr, ptr, ptr, i1, i1 }* %_31000002, i32 0, i32 5
  %_78000043 = zext i1 true to i8
  store i8 %_78000043, ptr%_78000042, align 1
  %_78000045 = getelementptr { { ptr }, ptr, ptr, ptr, i1, i1 }, { { ptr }, ptr, ptr, ptr, i1, i1 }* %_31000002, i32 0, i32 4
  %_78000046 = zext i1 true to i8
  store i8 %_78000046, ptr%_78000045, align 1
  %_31000005 = call dereferenceable_or_null(40) ptr @"_SM19java.lang.ThrowableD16fillInStackTraceL19java.lang.ThrowableEO"(ptr nonnull dereferenceable(40) %_31000002)
  br label %_32000000.0
_28000000.0:
  br label %_33000000.0
_33000000.0:
  %_33000002 = call dereferenceable_or_null(40) ptr @"scalanative_GC_alloc_small"(ptr @"_SM32java.nio.ReadOnlyBufferExceptionG4type", i64 40)
  %_78000048 = getelementptr { { ptr }, ptr, ptr, ptr, i1, i1 }, { { ptr }, ptr, ptr, ptr, i1, i1 }* %_33000002, i32 0, i32 5
  %_78000049 = zext i1 true to i8
  store i8 %_78000049, ptr%_78000048, align 1
  %_78000051 = getelementptr { { ptr }, ptr, ptr, ptr, i1, i1 }, { { ptr }, ptr, ptr, ptr, i1, i1 }* %_33000002, i32 0, i32 4
  %_78000052 = zext i1 true to i8
  store i8 %_78000052, ptr%_78000051, align 1
  %_33000005 = call dereferenceable_or_null(40) ptr @"_SM19java.lang.ThrowableD16fillInStackTraceL19java.lang.ThrowableEO"(ptr nonnull dereferenceable(40) %_33000002)
  br label %_34000000.0
_32000000.0:
  call ptr @"scalanative_throw"(ptr nonnull dereferenceable(40) %_31000002)
  unreachable
_34000000.0:
  call ptr @"scalanative_throw"(ptr nonnull dereferenceable(40) %_33000002)
  unreachable
_30000000.0:
  %_78000055 = getelementptr { { ptr }, i32, i32, i32, i32, ptr }, { { ptr }, i32, i32, i32, i32, ptr }* %_2, i32 0, i32 4
  %_35000001 = load i32, ptr %_78000055
  %_78000056 = getelementptr { { ptr }, i32, i32, i32, i32, ptr }, { { ptr }, i32, i32, i32, i32, ptr }* %_2, i32 0, i32 1
  %_36000001 = load i32, ptr %_78000056
  %_37000001 = call dereferenceable_or_null(32) ptr @"_SM16java.lang.ObjectD8getClassL15java.lang.ClassEO"(ptr dereferenceable_or_null(48) %_3)
  %_37000003 = icmp eq ptr %_37000001, @"_SM23java.nio.HeapByteBufferG4type"
  br i1 %_37000003, label %_38000000.0, label %_39000000.0
_39000000.0:
  %_39000002 = icmp eq ptr %_37000001, @"_SM23java.nio.HeapCharBufferG4type"
  br label %_40000000.0
_38000000.0:
  %_38000002 = bitcast ptr %_3 to ptr
  %_78000058 = icmp ne ptr %_38000002, null
  br i1 %_78000058, label %_78000057.0, label %_78000003.0
_78000057.0:
  %_78000059 = getelementptr { { ptr }, i32, i32, i32, i32, ptr, i32, ptr, i1 }, { { ptr }, i32, i32, i32, i32, ptr, i32, ptr, i1 }* %_38000002, i32 0, i32 7
  %_38000003 = load ptr, ptr %_78000059, !dereferenceable_or_null !{i64 16}
  br label %_41000000.0
_40000000.0:
  %_78000061 = icmp ne ptr %_3, null
  br i1 %_78000061, label %_78000060.0, label %_78000003.0
_78000060.0:
  %_78000062 = getelementptr { { ptr }, i32, i32, i32, i32, ptr, i32, ptr }, { { ptr }, i32, i32, i32, i32, ptr, i32, ptr }* %_3, i32 0, i32 7
  %_40000001 = load ptr, ptr %_78000062, !dereferenceable_or_null !{i64 16}
  br label %_41000000.0
_41000000.0:
  %_41000001 = phi ptr [%_40000001, %_78000060.0], [%_38000003, %_78000057.0]
  %_41000003 = icmp eq ptr %_41000001, null
  br i1 %_41000003, label %_42000000.0, label %_43000000.0
_43000000.0:
  br label %_44000000.0
_44000000.0:
  %_44000001 = call dereferenceable_or_null(32) ptr @"_SM16java.lang.ObjectD8getClassL15java.lang.ClassEO"(ptr dereferenceable_or_null(48) %_3)
  %_44000003 = icmp eq ptr %_44000001, @"_SM23java.nio.HeapCharBufferG4type"
  br i1 %_44000003, label %_45000000.0, label %_46000000.0
_45000000.0:
  %_47000001 = bitcast ptr %_3 to ptr
  %_78000064 = icmp ne ptr %_47000001, null
  br i1 %_78000064, label %_78000063.0, label %_78000003.0
_78000063.0:
  %_78000065 = getelementptr { { ptr }, i32, i32, i32, i32, ptr, i32, ptr, i1 }, { { ptr }, i32, i32, i32, i32, ptr, i32, ptr, i1 }* %_47000001, i32 0, i32 8
  %_78000066 = load i8, ptr %_78000065
  %_47000002 = trunc i8 %_78000066 to i1
  br label %_48000000.0
_46000000.0:
  br label %_48000000.0
_48000000.0:
  %_48000001 = phi i1 [true, %_46000000.0], [%_47000002, %_78000063.0]
  br i1 %_48000001, label %_50000000.0, label %_51000000.0
_51000000.0:
  br label %_52000000.0
_42000000.0:
  br label %_53000000.0
_53000000.0:
  %_53000002 = call dereferenceable_or_null(40) ptr @"scalanative_GC_alloc_small"(ptr @"_SM39java.lang.UnsupportedOperationExceptionG4type", i64 40)
  %_78000068 = getelementptr { { ptr }, ptr, ptr, ptr, i1, i1 }, { { ptr }, ptr, ptr, ptr, i1, i1 }* %_53000002, i32 0, i32 5
  %_78000069 = zext i1 true to i8
  store i8 %_78000069, ptr%_78000068, align 1
  %_78000071 = getelementptr { { ptr }, ptr, ptr, ptr, i1, i1 }, { { ptr }, ptr, ptr, ptr, i1, i1 }* %_53000002, i32 0, i32 4
  %_78000072 = zext i1 true to i8
  store i8 %_78000072, ptr%_78000071, align 1
  %_53000005 = call dereferenceable_or_null(40) ptr @"_SM19java.lang.ThrowableD16fillInStackTraceL19java.lang.ThrowableEO"(ptr nonnull dereferenceable(40) %_53000002)
  br label %_54000000.0
_50000000.0:
  br label %_55000000.0
_55000000.0:
  %_55000002 = call dereferenceable_or_null(40) ptr @"scalanative_GC_alloc_small"(ptr @"_SM32java.nio.ReadOnlyBufferExceptionG4type", i64 40)
  %_78000074 = getelementptr { { ptr }, ptr, ptr, ptr, i1, i1 }, { { ptr }, ptr, ptr, ptr, i1, i1 }* %_55000002, i32 0, i32 5
  %_78000075 = zext i1 true to i8
  store i8 %_78000075, ptr%_78000074, align 1
  %_78000077 = getelementptr { { ptr }, ptr, ptr, ptr, i1, i1 }, { { ptr }, ptr, ptr, ptr, i1, i1 }* %_55000002, i32 0, i32 4
  %_78000078 = zext i1 true to i8
  store i8 %_78000078, ptr%_78000077, align 1
  %_55000005 = call dereferenceable_or_null(40) ptr @"_SM19java.lang.ThrowableD16fillInStackTraceL19java.lang.ThrowableEO"(ptr nonnull dereferenceable(40) %_55000002)
  br label %_56000000.0
_54000000.0:
  call ptr @"scalanative_throw"(ptr nonnull dereferenceable(40) %_53000002)
  unreachable
_56000000.0:
  call ptr @"scalanative_throw"(ptr nonnull dereferenceable(40) %_55000002)
  unreachable
_52000000.0:
  %_78000083 = icmp eq ptr %_41000001, null
  br i1 %_78000083, label %_78000082.0, label %_78000081.0
_78000081.0:
  %_78000084 = load ptr, ptr %_41000001
  %_78000085 = icmp eq ptr %_78000084, @"_SM35scala.scalanative.runtime.CharArrayG4type"
  br i1 %_78000085, label %_78000082.0, label %_78000031.0
_78000082.0:
  %_57000001 = call dereferenceable_or_null(32) ptr @"_SM16java.lang.ObjectD8getClassL15java.lang.ClassEO"(ptr dereferenceable_or_null(48) %_3)
  %_57000003 = icmp eq ptr %_57000001, @"_SM23java.nio.HeapByteBufferG4type"
  br i1 %_57000003, label %_58000000.0, label %_59000000.0
_59000000.0:
  %_59000002 = icmp eq ptr %_57000001, @"_SM23java.nio.HeapCharBufferG4type"
  br label %_60000000.0
_58000000.0:
  %_58000002 = bitcast ptr %_3 to ptr
  %_78000087 = icmp ne ptr %_58000002, null
  br i1 %_78000087, label %_78000086.0, label %_78000003.0
_78000086.0:
  %_78000088 = getelementptr { { ptr }, i32, i32, i32, i32, ptr, i32, ptr, i1 }, { { ptr }, i32, i32, i32, i32, ptr, i32, ptr, i1 }* %_58000002, i32 0, i32 6
  %_58000003 = load i32, ptr %_78000088
  br label %_61000000.0
_60000000.0:
  %_78000089 = getelementptr { { ptr }, i32, i32, i32, i32, ptr, i32, ptr }, { { ptr }, i32, i32, i32, i32, ptr, i32, ptr }* %_3, i32 0, i32 6
  %_60000001 = load i32, ptr %_78000089
  br label %_61000000.0
_61000000.0:
  %_61000001 = phi i32 [%_60000001, %_60000000.0], [%_58000003, %_78000086.0]
  %_61000003 = icmp eq i32 %_61000001, -1
  br i1 %_61000003, label %_62000000.0, label %_63000000.0
_63000000.0:
  br label %_64000000.0
_64000000.0:
  %_64000001 = call dereferenceable_or_null(32) ptr @"_SM16java.lang.ObjectD8getClassL15java.lang.ClassEO"(ptr dereferenceable_or_null(48) %_3)
  %_64000003 = icmp eq ptr %_64000001, @"_SM23java.nio.HeapCharBufferG4type"
  br i1 %_64000003, label %_65000000.0, label %_66000000.0
_65000000.0:
  %_67000001 = bitcast ptr %_3 to ptr
  %_78000091 = icmp ne ptr %_67000001, null
  br i1 %_78000091, label %_78000090.0, label %_78000003.0
_78000090.0:
  %_78000092 = getelementptr { { ptr }, i32, i32, i32, i32, ptr, i32, ptr, i1 }, { { ptr }, i32, i32, i32, i32, ptr, i32, ptr, i1 }* %_67000001, i32 0, i32 8
  %_78000093 = load i8, ptr %_78000092
  %_67000002 = trunc i8 %_78000093 to i1
  br label %_68000000.0
_66000000.0:
  br label %_68000000.0
_68000000.0:
  %_68000001 = phi i1 [true, %_66000000.0], [%_67000002, %_78000090.0]
  br i1 %_68000001, label %_70000000.0, label %_71000000.0
_71000000.0:
  br label %_72000000.0
_62000000.0:
  br label %_73000000.0
_73000000.0:
  %_73000002 = call dereferenceable_or_null(40) ptr @"scalanative_GC_alloc_small"(ptr @"_SM39java.lang.UnsupportedOperationExceptionG4type", i64 40)
  %_78000095 = getelementptr { { ptr }, ptr, ptr, ptr, i1, i1 }, { { ptr }, ptr, ptr, ptr, i1, i1 }* %_73000002, i32 0, i32 5
  %_78000096 = zext i1 true to i8
  store i8 %_78000096, ptr%_78000095, align 1
  %_78000098 = getelementptr { { ptr }, ptr, ptr, ptr, i1, i1 }, { { ptr }, ptr, ptr, ptr, i1, i1 }* %_73000002, i32 0, i32 4
  %_78000099 = zext i1 true to i8
  store i8 %_78000099, ptr%_78000098, align 1
  %_73000005 = call dereferenceable_or_null(40) ptr @"_SM19java.lang.ThrowableD16fillInStackTraceL19java.lang.ThrowableEO"(ptr nonnull dereferenceable(40) %_73000002)
  br label %_74000000.0
_70000000.0:
  br label %_75000000.0
_75000000.0:
  %_75000002 = call dereferenceable_or_null(40) ptr @"scalanative_GC_alloc_small"(ptr @"_SM32java.nio.ReadOnlyBufferExceptionG4type", i64 40)
  %_78000101 = getelementptr { { ptr }, ptr, ptr, ptr, i1, i1 }, { { ptr }, ptr, ptr, ptr, i1, i1 }* %_75000002, i32 0, i32 5
  %_78000102 = zext i1 true to i8
  store i8 %_78000102, ptr%_78000101, align 1
  %_78000104 = getelementptr { { ptr }, ptr, ptr, ptr, i1, i1 }, { { ptr }, ptr, ptr, ptr, i1, i1 }* %_75000002, i32 0, i32 4
  %_78000105 = zext i1 true to i8
  store i8 %_78000105, ptr%_78000104, align 1
  %_75000005 = call dereferenceable_or_null(40) ptr @"_SM19java.lang.ThrowableD16fillInStackTraceL19java.lang.ThrowableEO"(ptr nonnull dereferenceable(40) %_75000002)
  br label %_76000000.0
_74000000.0:
  call ptr @"scalanative_throw"(ptr nonnull dereferenceable(40) %_73000002)
  unreachable
_76000000.0:
  call ptr @"scalanative_throw"(ptr nonnull dereferenceable(40) %_75000002)
  unreachable
_72000000.0:
  %_78000108 = getelementptr { { ptr }, i32, i32, i32, i32, ptr }, { { ptr }, i32, i32, i32, i32, ptr }* %_3, i32 0, i32 4
  %_77000001 = load i32, ptr %_78000108
  %_78000109 = getelementptr { { ptr }, i32, i32, i32, i32, ptr }, { { ptr }, i32, i32, i32, i32, ptr }* %_3, i32 0, i32 1
  %_78000001 = load i32, ptr %_78000109
  %_4000005 = add i32 %_36000001, %_24000001
  %_4000006 = add i32 %_78000001, %_61000001
  %_4000007 = add i32 %_35000001, %_24000001
  %_4000008 = add i32 %_77000001, %_61000001
  %_4000009 = call dereferenceable_or_null(16) ptr @"_SM24niocharset.UTF_8$DecoderD6loop$1L19java.nio.ByteBufferL19java.nio.CharBufferLAb_iiLAc_iiiiL28java.nio.charset.CoderResultEPT24niocharset.UTF_8$Decoder"(ptr dereferenceable_or_null(56) %_1, ptr dereferenceable_or_null(56) %_2, ptr dereferenceable_or_null(48) %_3, ptr dereferenceable_or_null(16) %_9000001, i32 %_24000001, i32 %_4000005, ptr dereferenceable_or_null(16) %_41000001, i32 %_61000001, i32 %_4000006, i32 %_4000007, i32 %_4000008)
  ret ptr %_4000009
_78000003.0:
  call ptr @"_SM34scala.scalanative.runtime.package$D16throwNullPointernEO"(ptr null)
  unreachable
_78000031.0:
  %_78000111 = phi ptr [%_9000001, %_78000029.0], [%_41000001, %_78000081.0]
  %_78000112 = phi ptr [@"_SM35scala.scalanative.runtime.ByteArrayG4type", %_78000029.0], [@"_SM35scala.scalanative.runtime.CharArrayG4type", %_78000081.0]
  %_78000113 = load ptr, ptr %_78000111
  call ptr @"_SM34scala.scalanative.runtime.package$D14throwClassCastR_R_nEO"(ptr null, ptr %_78000113, ptr %_78000112)
  unreachable
}

define dereferenceable_or_null(16) ptr @"_SM24niocharset.UTF_8$DecoderD6loop$1L19java.nio.ByteBufferL19java.nio.CharBufferLAb_iiLAc_iiiiL28java.nio.charset.CoderResultEPT24niocharset.UTF_8$Decoder"(ptr %_1, ptr %_2, ptr %_3, ptr %_4, i32 %_5, i32 %_6, ptr %_7, i32 %_8, i32 %_9, i32 %_10, i32 %_11) inlinehint personality ptr @__gxx_personality_v0 {
_12000000.0:
  br label %_13000000.0
_13000000.0:
  %_13000001 = phi i32 [%_11, %_12000000.0], [%_28000001, %_28000000.0]
  %_13000002 = phi i32 [%_10, %_12000000.0], [%_28000002, %_28000000.0]
  br label %_14000000.0
_14000000.0:
  br label %_15000000.0
_15000000.0:
  %_15000002 = icmp eq i32 %_13000002, %_6
  br i1 %_15000002, label %_16000000.0, label %_17000000.0
_16000000.0:
  %_16000001 = call dereferenceable_or_null(104) ptr @"_SM29java.nio.charset.CoderResult$G4load"()
  %_236000002 = getelementptr { { ptr }, ptr, ptr, ptr, ptr, ptr, ptr, ptr, ptr, ptr, ptr, ptr, ptr }, { { ptr }, ptr, ptr, ptr, ptr, ptr, ptr, ptr, ptr, ptr, ptr, ptr, ptr }* %_16000001, i32 0, i32 12
  %_151000001 = load ptr, ptr %_236000002, !dereferenceable_or_null !{i64 16}
  %_152000002 = sub i32 %_13000002, %_5
  %_152000003 = call dereferenceable_or_null(32) ptr @"_SM15java.nio.BufferD8positioniL15java.nio.BufferEO"(ptr dereferenceable_or_null(56) %_2, i32 %_152000002)
  %_152000005 = sub i32 %_13000001, %_8
  %_152000006 = call dereferenceable_or_null(32) ptr @"_SM15java.nio.BufferD8positioniL15java.nio.BufferEO"(ptr dereferenceable_or_null(48) %_3, i32 %_152000005)
  br label %_20000000.0
_17000000.0:
  %_236000006 = icmp ne ptr %_4, null
  br i1 %_236000006, label %_236000004.0, label %_236000005.0
_236000004.0:
  %_236000007 = getelementptr { ptr, i32, i32 }, { ptr, i32, i32 }* %_4, i32 0, i32 1
  %_236000003 = load i32, ptr %_236000007
  %_236000010 = icmp sge i32 %_13000002, 0
  %_236000011 = icmp slt i32 %_13000002, %_236000003
  %_236000012 = and i1 %_236000010, %_236000011
  br i1 %_236000012, label %_236000008.0, label %_236000009.0
_236000008.0:
  %_236000013 = getelementptr { { ptr, i32, i32 }, [0 x i8] }, { { ptr, i32, i32 }, [0 x i8] }* %_4, i32 0, i32 1, i32 %_13000002
  %_17000001 = load i8, ptr %_236000013
  %_17000004 = sext i8 %_17000001 to i32
  %_17000005 = icmp sge i32 %_17000004, 0
  br i1 %_17000005, label %_21000000.0, label %_22000000.0
_21000000.0:
  %_21000002 = icmp eq i32 %_13000001, %_9
  br i1 %_21000002, label %_23000000.0, label %_24000000.0
_23000000.0:
  %_23000001 = call dereferenceable_or_null(104) ptr @"_SM29java.nio.charset.CoderResult$G4load"()
  %_236000014 = getelementptr { { ptr }, ptr, ptr, ptr, ptr, ptr, ptr, ptr, ptr, ptr, ptr, ptr, ptr }, { { ptr }, ptr, ptr, ptr, ptr, ptr, ptr, ptr, ptr, ptr, ptr, ptr, ptr }* %_23000001, i32 0, i32 1
  %_153000001 = load ptr, ptr %_236000014, !dereferenceable_or_null !{i64 16}
  %_154000002 = sub i32 %_13000002, %_5
  %_154000003 = call dereferenceable_or_null(32) ptr @"_SM15java.nio.BufferD8positioniL15java.nio.BufferEO"(ptr dereferenceable_or_null(56) %_2, i32 %_154000002)
  %_154000005 = sub i32 %_13000001, %_8
  %_154000006 = call dereferenceable_or_null(32) ptr @"_SM15java.nio.BufferD8positioniL15java.nio.BufferEO"(ptr dereferenceable_or_null(48) %_3, i32 %_154000005)
  br label %_27000000.0
_24000000.0:
  %_24000002 = trunc i32 %_17000004 to i16
  %_236000018 = icmp ne ptr %_7, null
  br i1 %_236000018, label %_236000017.0, label %_236000005.0
_236000017.0:
  %_236000019 = getelementptr { ptr, i32, i32 }, { ptr, i32, i32 }* %_7, i32 0, i32 1
  %_236000016 = load i32, ptr %_236000019
  %_236000021 = icmp sge i32 %_13000001, 0
  %_236000022 = icmp slt i32 %_13000001, %_236000016
  %_236000023 = and i1 %_236000021, %_236000022
  br i1 %_236000023, label %_236000020.0, label %_236000009.0
_236000020.0:
  %_236000024 = getelementptr { { ptr, i32, i32 }, [0 x i16] }, { { ptr, i32, i32 }, [0 x i16] }* %_7, i32 0, i32 1, i32 %_13000001
  store i16 %_24000002, ptr%_236000024, align 2
  %_24000006 = add i32 %_13000001, 1
  %_24000007 = add i32 %_13000002, 1
  br label %_28000000.0
_27000000.0:
  br label %_29000000.0
_22000000.0:
  %_22000002 = call dereferenceable_or_null(56) ptr @"_SM17niocharset.UTF_8$G4load"()
  %_22000003 = call dereferenceable_or_null(16) ptr @"_SM17niocharset.UTF_8$D34niocharset$UTF_8$$$lengthByLeadingLAi_EO"(ptr nonnull dereferenceable(56) %_22000002)
  %_22000005 = and i32 %_17000004, 127
  %_236000027 = icmp ne ptr %_22000003, null
  br i1 %_236000027, label %_236000026.0, label %_236000005.0
_236000026.0:
  %_236000028 = getelementptr { ptr, i32, i32 }, { ptr, i32, i32 }* %_22000003, i32 0, i32 1
  %_236000025 = load i32, ptr %_236000028
  %_236000030 = icmp sge i32 %_22000005, 0
  %_236000031 = icmp slt i32 %_22000005, %_236000025
  %_236000032 = and i1 %_236000030, %_236000031
  br i1 %_236000032, label %_236000029.0, label %_236000009.0
_236000029.0:
  %_236000033 = getelementptr { { ptr, i32, i32 }, [0 x i32] }, { { ptr, i32, i32 }, [0 x i32] }* %_22000003, i32 0, i32 1, i32 %_22000005
  %_22000006 = load i32, ptr %_236000033
  %_22000008 = icmp eq i32 %_22000006, -1
  br i1 %_22000008, label %_30000000.0, label %_31000000.0
_30000000.0:
  %_30000001 = call dereferenceable_or_null(104) ptr @"_SM29java.nio.charset.CoderResult$G4load"()
  br label %_156000000.0
_156000000.0:
  br label %_157000000.0
_157000000.0:
  %_236000034 = getelementptr { { ptr }, ptr, ptr, ptr, ptr, ptr, ptr, ptr, ptr, ptr, ptr, ptr, ptr }, { { ptr }, ptr, ptr, ptr, ptr, ptr, ptr, ptr, ptr, ptr, ptr, ptr, ptr }* %_30000001, i32 0, i32 5
  %_157000001 = load ptr, ptr %_236000034, !dereferenceable_or_null !{i64 16}
  br label %_158000000.0
_158000000.0:
  %_159000002 = sub i32 %_13000002, %_5
  %_159000003 = call dereferenceable_or_null(32) ptr @"_SM15java.nio.BufferD8positioniL15java.nio.BufferEO"(ptr dereferenceable_or_null(56) %_2, i32 %_159000002)
  %_159000005 = sub i32 %_13000001, %_8
  %_159000006 = call dereferenceable_or_null(32) ptr @"_SM15java.nio.BufferD8positioniL15java.nio.BufferEO"(ptr dereferenceable_or_null(48) %_3, i32 %_159000005)
  br label %_37000000.0
_31000000.0:
  %_31000003 = add i32 %_13000002, 1
  %_31000004 = icmp sge i32 %_31000003, %_6
  br i1 %_31000004, label %_38000000.0, label %_39000000.0
_38000000.0:
  %_38000002 = call dereferenceable_or_null(104) ptr @"_SM29java.nio.charset.CoderResult$G4load"()
  %_236000035 = getelementptr { { ptr }, ptr, ptr, ptr, ptr, ptr, ptr, ptr, ptr, ptr, ptr, ptr, ptr }, { { ptr }, ptr, ptr, ptr, ptr, ptr, ptr, ptr, ptr, ptr, ptr, ptr, ptr }* %_38000002, i32 0, i32 12
  %_160000001 = load ptr, ptr %_236000035, !dereferenceable_or_null !{i64 16}
  %_38000003 = call dereferenceable_or_null(24) ptr @"scalanative_GC_alloc_small"(ptr @"_SM33niocharset.UTF_8$DecodedMultiByteG4type", i64 24)
  %_236000037 = getelementptr { { ptr }, i16, i16, ptr }, { { ptr }, i16, i16, ptr }* %_38000003, i32 0, i32 3
  store ptr %_160000001, ptr%_236000037, align 8
  br label %_42000000.0
_39000000.0:
  %_236000039 = getelementptr { ptr, i32, i32 }, { ptr, i32, i32 }* %_4, i32 0, i32 1
  %_236000038 = load i32, ptr %_236000039
  %_236000041 = icmp sge i32 %_31000003, 0
  %_236000042 = icmp slt i32 %_31000003, %_236000038
  %_236000043 = and i1 %_236000041, %_236000042
  br i1 %_236000043, label %_236000040.0, label %_236000009.0
_236000040.0:
  %_236000044 = getelementptr { { ptr, i32, i32 }, [0 x i8] }, { { ptr, i32, i32 }, [0 x i8] }* %_4, i32 0, i32 1, i32 %_31000003
  %_39000001 = load i8, ptr %_236000044
  %_39000003 = sext i8 %_39000001 to i32
  %_39000004 = and i32 %_39000003, 192
  %_39000005 = icmp ne i32 %_39000004, 128
  br i1 %_39000005, label %_45000000.0, label %_46000000.0
_45000000.0:
  %_45000002 = call dereferenceable_or_null(104) ptr @"_SM29java.nio.charset.CoderResult$G4load"()
  br label %_165000000.0
_165000000.0:
  br label %_166000000.0
_166000000.0:
  %_236000045 = getelementptr { { ptr }, ptr, ptr, ptr, ptr, ptr, ptr, ptr, ptr, ptr, ptr, ptr, ptr }, { { ptr }, ptr, ptr, ptr, ptr, ptr, ptr, ptr, ptr, ptr, ptr, ptr, ptr }* %_45000002, i32 0, i32 5
  %_166000001 = load ptr, ptr %_236000045, !dereferenceable_or_null !{i64 16}
  br label %_167000000.0
_167000000.0:
  %_45000003 = call dereferenceable_or_null(24) ptr @"scalanative_GC_alloc_small"(ptr @"_SM33niocharset.UTF_8$DecodedMultiByteG4type", i64 24)
  %_236000047 = getelementptr { { ptr }, i16, i16, ptr }, { { ptr }, i16, i16, ptr }* %_45000003, i32 0, i32 3
  store ptr %_166000001, ptr%_236000047, align 8
  br label %_52000000.0
_46000000.0:
  %_46000002 = icmp eq i32 %_22000006, 2
  br i1 %_46000002, label %_53000000.0, label %_54000000.0
_53000000.0:
  %_170000006 = and i32 %_17000004, 31
  %_236000048 = and i32 6, 31
  %_170000007 = shl i32 %_170000006, %_236000048
  %_170000008 = and i32 %_39000003, 63
  %_170000009 = or i32 %_170000007, %_170000008
  %_170000010 = icmp slt i32 %_170000009, 128
  br i1 %_170000010, label %_171000000.0, label %_172000000.0
_171000000.0:
  %_171000001 = call dereferenceable_or_null(104) ptr @"_SM29java.nio.charset.CoderResult$G4load"()
  br label %_173000000.0
_173000000.0:
  br label %_174000000.0
_174000000.0:
  %_236000049 = getelementptr { { ptr }, ptr, ptr, ptr, ptr, ptr, ptr, ptr, ptr, ptr, ptr, ptr, ptr }, { { ptr }, ptr, ptr, ptr, ptr, ptr, ptr, ptr, ptr, ptr, ptr, ptr, ptr }* %_171000001, i32 0, i32 5
  %_174000001 = load ptr, ptr %_236000049, !dereferenceable_or_null !{i64 16}
  br label %_175000000.0
_175000000.0:
  %_175000002 = call dereferenceable_or_null(24) ptr @"scalanative_GC_alloc_small"(ptr @"_SM33niocharset.UTF_8$DecodedMultiByteG4type", i64 24)
  %_236000051 = getelementptr { { ptr }, i16, i16, ptr }, { { ptr }, i16, i16, ptr }* %_175000002, i32 0, i32 3
  store ptr %_174000001, ptr%_236000051, align 8
  br label %_176000000.0
_172000000.0:
  %_172000003 = call dereferenceable_or_null(24) ptr @"scalanative_GC_alloc_small"(ptr @"_SM33niocharset.UTF_8$DecodedMultiByteG4type", i64 24)
  %_172000004 = trunc i32 %_170000009 to i16
  %_236000053 = getelementptr { { ptr }, i16, i16, ptr }, { { ptr }, i16, i16, ptr }* %_172000003, i32 0, i32 2
  store i16 %_172000004, ptr%_236000053, align 2
  br label %_176000000.0
_176000000.0:
  %_176000001 = phi ptr [%_172000003, %_172000000.0], [%_175000002, %_175000000.0]
  br label %_63000000.0
_54000000.0:
  %_54000003 = add i32 %_13000002, 2
  %_54000004 = icmp sge i32 %_54000003, %_6
  br i1 %_54000004, label %_64000000.0, label %_65000000.0
_64000000.0:
  %_64000002 = call dereferenceable_or_null(104) ptr @"_SM29java.nio.charset.CoderResult$G4load"()
  %_236000054 = getelementptr { { ptr }, ptr, ptr, ptr, ptr, ptr, ptr, ptr, ptr, ptr, ptr, ptr, ptr }, { { ptr }, ptr, ptr, ptr, ptr, ptr, ptr, ptr, ptr, ptr, ptr, ptr, ptr }* %_64000002, i32 0, i32 12
  %_177000001 = load ptr, ptr %_236000054, !dereferenceable_or_null !{i64 16}
  %_64000003 = call dereferenceable_or_null(24) ptr @"scalanative_GC_alloc_small"(ptr @"_SM33niocharset.UTF_8$DecodedMultiByteG4type", i64 24)
  %_236000056 = getelementptr { { ptr }, i16, i16, ptr }, { { ptr }, i16, i16, ptr }* %_64000003, i32 0, i32 3
  store ptr %_177000001, ptr%_236000056, align 8
  br label %_68000000.0
_65000000.0:
  %_236000058 = getelementptr { ptr, i32, i32 }, { ptr, i32, i32 }* %_4, i32 0, i32 1
  %_236000057 = load i32, ptr %_236000058
  %_236000060 = icmp sge i32 %_54000003, 0
  %_236000061 = icmp slt i32 %_54000003, %_236000057
  %_236000062 = and i1 %_236000060, %_236000061
  br i1 %_236000062, label %_236000059.0, label %_236000009.0
_236000059.0:
  %_236000063 = getelementptr { { ptr, i32, i32 }, [0 x i8] }, { { ptr, i32, i32 }, [0 x i8] }* %_4, i32 0, i32 1, i32 %_54000003
  %_65000001 = load i8, ptr %_236000063
  %_65000002 = sext i8 %_65000001 to i32
  %_65000003 = and i32 %_65000002, 192
  %_65000004 = icmp ne i32 %_65000003, 128
  br i1 %_65000004, label %_71000000.0, label %_72000000.0
_71000000.0:
  %_71000002 = call dereferenceable_or_null(104) ptr @"_SM29java.nio.charset.CoderResult$G4load"()
  br label %_182000000.0
_182000000.0:
  br label %_183000000.0
_183000000.0:
  %_236000064 = getelementptr { { ptr }, ptr, ptr, ptr, ptr, ptr, ptr, ptr, ptr, ptr, ptr, ptr, ptr }, { { ptr }, ptr, ptr, ptr, ptr, ptr, ptr, ptr, ptr, ptr, ptr, ptr, ptr }* %_71000002, i32 0, i32 4
  %_183000001 = load ptr, ptr %_236000064, !dereferenceable_or_null !{i64 16}
  br label %_184000000.0
_184000000.0:
  %_71000003 = call dereferenceable_or_null(24) ptr @"scalanative_GC_alloc_small"(ptr @"_SM33niocharset.UTF_8$DecodedMultiByteG4type", i64 24)
  %_236000066 = getelementptr { { ptr }, i16, i16, ptr }, { { ptr }, i16, i16, ptr }* %_71000003, i32 0, i32 3
  store ptr %_183000001, ptr%_236000066, align 8
  br label %_78000000.0
_72000000.0:
  %_72000002 = icmp eq i32 %_22000006, 3
  br i1 %_72000002, label %_79000000.0, label %_80000000.0
_79000000.0:
  %_188000009 = and i32 %_17000004, 15
  %_236000067 = and i32 12, 31
  %_188000010 = shl i32 %_188000009, %_236000067
  %_188000011 = and i32 %_39000003, 63
  %_236000068 = and i32 6, 31
  %_188000012 = shl i32 %_188000011, %_236000068
  %_188000013 = or i32 %_188000010, %_188000012
  %_188000014 = and i32 %_65000002, 63
  %_188000015 = or i32 %_188000013, %_188000014
  %_188000016 = icmp slt i32 %_188000015, 2048
  br i1 %_188000016, label %_189000000.0, label %_190000000.0
_189000000.0:
  %_189000001 = call dereferenceable_or_null(104) ptr @"_SM29java.nio.charset.CoderResult$G4load"()
  br label %_191000000.0
_191000000.0:
  br label %_192000000.0
_192000000.0:
  %_236000069 = getelementptr { { ptr }, ptr, ptr, ptr, ptr, ptr, ptr, ptr, ptr, ptr, ptr, ptr, ptr }, { { ptr }, ptr, ptr, ptr, ptr, ptr, ptr, ptr, ptr, ptr, ptr, ptr, ptr }* %_189000001, i32 0, i32 5
  %_192000001 = load ptr, ptr %_236000069, !dereferenceable_or_null !{i64 16}
  br label %_193000000.0
_193000000.0:
  %_193000002 = call dereferenceable_or_null(24) ptr @"scalanative_GC_alloc_small"(ptr @"_SM33niocharset.UTF_8$DecodedMultiByteG4type", i64 24)
  %_236000071 = getelementptr { { ptr }, i16, i16, ptr }, { { ptr }, i16, i16, ptr }* %_193000002, i32 0, i32 3
  store ptr %_192000001, ptr%_236000071, align 8
  br label %_194000000.0
_190000000.0:
  %_190000002 = icmp sge i32 %_188000015, 55296
  br i1 %_190000002, label %_195000000.0, label %_196000000.0
_195000000.0:
  %_195000002 = icmp sle i32 %_188000015, 57343
  br label %_197000000.0
_196000000.0:
  br label %_197000000.0
_197000000.0:
  %_197000001 = phi i1 [false, %_196000000.0], [%_195000002, %_195000000.0]
  br i1 %_197000001, label %_198000000.0, label %_199000000.0
_198000000.0:
  %_198000001 = call dereferenceable_or_null(104) ptr @"_SM29java.nio.charset.CoderResult$G4load"()
  br label %_200000000.0
_200000000.0:
  br label %_201000000.0
_201000000.0:
  %_236000072 = getelementptr { { ptr }, ptr, ptr, ptr, ptr, ptr, ptr, ptr, ptr, ptr, ptr, ptr, ptr }, { { ptr }, ptr, ptr, ptr, ptr, ptr, ptr, ptr, ptr, ptr, ptr, ptr, ptr }* %_198000001, i32 0, i32 3
  %_201000001 = load ptr, ptr %_236000072, !dereferenceable_or_null !{i64 16}
  br label %_202000000.0
_202000000.0:
  %_202000002 = call dereferenceable_or_null(24) ptr @"scalanative_GC_alloc_small"(ptr @"_SM33niocharset.UTF_8$DecodedMultiByteG4type", i64 24)
  %_236000074 = getelementptr { { ptr }, i16, i16, ptr }, { { ptr }, i16, i16, ptr }* %_202000002, i32 0, i32 3
  store ptr %_201000001, ptr%_236000074, align 8
  br label %_203000000.0
_199000000.0:
  %_199000003 = call dereferenceable_or_null(24) ptr @"scalanative_GC_alloc_small"(ptr @"_SM33niocharset.UTF_8$DecodedMultiByteG4type", i64 24)
  %_199000004 = trunc i32 %_188000015 to i16
  %_236000076 = getelementptr { { ptr }, i16, i16, ptr }, { { ptr }, i16, i16, ptr }* %_199000003, i32 0, i32 2
  store i16 %_199000004, ptr%_236000076, align 2
  br label %_203000000.0
_203000000.0:
  %_203000001 = phi ptr [%_199000003, %_199000000.0], [%_202000002, %_202000000.0]
  br label %_194000000.0
_194000000.0:
  %_194000001 = phi ptr [%_203000001, %_203000000.0], [%_193000002, %_193000000.0]
  br label %_99000000.0
_80000000.0:
  %_80000003 = add i32 %_13000002, 3
  %_80000004 = icmp sge i32 %_80000003, %_6
  br i1 %_80000004, label %_100000000.0, label %_101000000.0
_100000000.0:
  %_100000002 = call dereferenceable_or_null(104) ptr @"_SM29java.nio.charset.CoderResult$G4load"()
  %_236000077 = getelementptr { { ptr }, ptr, ptr, ptr, ptr, ptr, ptr, ptr, ptr, ptr, ptr, ptr, ptr }, { { ptr }, ptr, ptr, ptr, ptr, ptr, ptr, ptr, ptr, ptr, ptr, ptr, ptr }* %_100000002, i32 0, i32 12
  %_204000001 = load ptr, ptr %_236000077, !dereferenceable_or_null !{i64 16}
  %_100000003 = call dereferenceable_or_null(24) ptr @"scalanative_GC_alloc_small"(ptr @"_SM33niocharset.UTF_8$DecodedMultiByteG4type", i64 24)
  %_236000079 = getelementptr { { ptr }, i16, i16, ptr }, { { ptr }, i16, i16, ptr }* %_100000003, i32 0, i32 3
  store ptr %_204000001, ptr%_236000079, align 8
  br label %_104000000.0
_101000000.0:
  %_236000081 = getelementptr { ptr, i32, i32 }, { ptr, i32, i32 }* %_4, i32 0, i32 1
  %_236000080 = load i32, ptr %_236000081
  %_236000083 = icmp sge i32 %_80000003, 0
  %_236000084 = icmp slt i32 %_80000003, %_236000080
  %_236000085 = and i1 %_236000083, %_236000084
  br i1 %_236000085, label %_236000082.0, label %_236000009.0
_236000082.0:
  %_236000086 = getelementptr { { ptr, i32, i32 }, [0 x i8] }, { { ptr, i32, i32 }, [0 x i8] }* %_4, i32 0, i32 1, i32 %_80000003
  %_101000001 = load i8, ptr %_236000086
  %_101000002 = sext i8 %_101000001 to i32
  %_101000003 = and i32 %_101000002, 192
  %_101000004 = icmp ne i32 %_101000003, 128
  br i1 %_101000004, label %_107000000.0, label %_108000000.0
_107000000.0:
  %_107000002 = call dereferenceable_or_null(104) ptr @"_SM29java.nio.charset.CoderResult$G4load"()
  br label %_209000000.0
_209000000.0:
  br label %_210000000.0
_210000000.0:
  %_236000087 = getelementptr { { ptr }, ptr, ptr, ptr, ptr, ptr, ptr, ptr, ptr, ptr, ptr, ptr, ptr }, { { ptr }, ptr, ptr, ptr, ptr, ptr, ptr, ptr, ptr, ptr, ptr, ptr, ptr }* %_107000002, i32 0, i32 3
  %_210000001 = load ptr, ptr %_236000087, !dereferenceable_or_null !{i64 16}
  br label %_211000000.0
_211000000.0:
  %_107000003 = call dereferenceable_or_null(24) ptr @"scalanative_GC_alloc_small"(ptr @"_SM33niocharset.UTF_8$DecodedMultiByteG4type", i64 24)
  %_236000089 = getelementptr { { ptr }, i16, i16, ptr }, { { ptr }, i16, i16, ptr }* %_107000003, i32 0, i32 3
  store ptr %_210000001, ptr%_236000089, align 8
  br label %_114000000.0
_108000000.0:
  %_216000012 = and i32 %_17000004, 7
  %_236000090 = and i32 18, 31
  %_216000013 = shl i32 %_216000012, %_236000090
  %_216000014 = and i32 %_39000003, 63
  %_236000091 = and i32 12, 31
  %_216000015 = shl i32 %_216000014, %_236000091
  %_216000016 = or i32 %_216000013, %_216000015
  %_216000017 = and i32 %_65000002, 63
  %_236000092 = and i32 6, 31
  %_216000018 = shl i32 %_216000017, %_236000092
  %_216000019 = or i32 %_216000016, %_216000018
  %_216000020 = and i32 %_101000002, 63
  %_216000021 = or i32 %_216000019, %_216000020
  %_216000022 = icmp slt i32 %_216000021, 65536
  br i1 %_216000022, label %_217000000.0, label %_218000000.0
_217000000.0:
  br label %_219000000.0
_218000000.0:
  %_218000002 = icmp sgt i32 %_216000021, 1114111
  br label %_219000000.0
_219000000.0:
  %_219000001 = phi i1 [%_218000002, %_218000000.0], [true, %_217000000.0]
  br i1 %_219000001, label %_220000000.0, label %_221000000.0
_220000000.0:
  %_220000001 = call dereferenceable_or_null(104) ptr @"_SM29java.nio.charset.CoderResult$G4load"()
  br label %_222000000.0
_222000000.0:
  br label %_223000000.0
_223000000.0:
  %_236000093 = getelementptr { { ptr }, ptr, ptr, ptr, ptr, ptr, ptr, ptr, ptr, ptr, ptr, ptr, ptr }, { { ptr }, ptr, ptr, ptr, ptr, ptr, ptr, ptr, ptr, ptr, ptr, ptr, ptr }* %_220000001, i32 0, i32 5
  %_223000001 = load ptr, ptr %_236000093, !dereferenceable_or_null !{i64 16}
  br label %_224000000.0
_224000000.0:
  %_224000002 = call dereferenceable_or_null(24) ptr @"scalanative_GC_alloc_small"(ptr @"_SM33niocharset.UTF_8$DecodedMultiByteG4type", i64 24)
  %_236000095 = getelementptr { { ptr }, i16, i16, ptr }, { { ptr }, i16, i16, ptr }* %_224000002, i32 0, i32 3
  store ptr %_223000001, ptr%_236000095, align 8
  br label %_225000000.0
_221000000.0:
  %_221000009 = call dereferenceable_or_null(24) ptr @"scalanative_GC_alloc_small"(ptr @"_SM33niocharset.UTF_8$DecodedMultiByteG4type", i64 24)
  %_221000010 = sub i32 %_216000021, 65536
  %_221000011 = and i32 %_221000010, 1023
  %_221000012 = or i32 %_221000011, 56320
  %_221000013 = trunc i32 %_221000012 to i16
  %_236000097 = getelementptr { { ptr }, i16, i16, ptr }, { { ptr }, i16, i16, ptr }* %_221000009, i32 0, i32 1
  store i16 %_221000013, ptr%_236000097, align 2
  %_236000098 = and i32 10, 31
  %_221000015 = ashr i32 %_221000010, %_236000098
  %_221000016 = or i32 %_221000015, 55296
  %_221000017 = trunc i32 %_221000016 to i16
  %_236000100 = getelementptr { { ptr }, i16, i16, ptr }, { { ptr }, i16, i16, ptr }* %_221000009, i32 0, i32 2
  store i16 %_221000017, ptr%_236000100, align 2
  br label %_225000000.0
_225000000.0:
  %_225000001 = phi ptr [%_221000009, %_221000000.0], [%_224000002, %_224000000.0]
  br label %_114000000.0
_114000000.0:
  %_114000001 = phi ptr [%_225000001, %_225000000.0], [%_107000003, %_211000000.0]
  br label %_104000000.0
_104000000.0:
  %_104000001 = phi ptr [%_114000001, %_114000000.0], [%_100000003, %_100000000.0]
  br label %_99000000.0
_99000000.0:
  %_99000001 = phi ptr [%_104000001, %_104000000.0], [%_194000001, %_194000000.0]
  br label %_78000000.0
_78000000.0:
  %_78000001 = phi ptr [%_99000001, %_99000000.0], [%_71000003, %_184000000.0]
  br label %_68000000.0
_68000000.0:
  %_68000001 = phi ptr [%_78000001, %_78000000.0], [%_64000003, %_64000000.0]
  br label %_63000000.0
_63000000.0:
  %_63000001 = phi ptr [%_68000001, %_68000000.0], [%_176000001, %_176000000.0]
  br label %_52000000.0
_52000000.0:
  %_52000001 = phi ptr [%_63000001, %_63000000.0], [%_45000003, %_167000000.0]
  br label %_42000000.0
_42000000.0:
  %_42000001 = phi ptr [%_52000001, %_52000000.0], [%_38000003, %_38000000.0]
  %_236000101 = getelementptr { { ptr }, i16, i16, ptr }, { { ptr }, i16, i16, ptr }* %_42000001, i32 0, i32 3
  %_226000001 = load ptr, ptr %_236000101, !dereferenceable_or_null !{i64 16}
  %_42000004 = icmp eq ptr %_226000001, null
  %_42000005 = xor i1 %_42000004, true
  br i1 %_42000005, label %_129000000.0, label %_130000000.0
_129000000.0:
  %_236000102 = getelementptr { { ptr }, i16, i16, ptr }, { { ptr }, i16, i16, ptr }* %_42000001, i32 0, i32 3
  %_227000001 = load ptr, ptr %_236000102, !dereferenceable_or_null !{i64 16}
  %_228000002 = sub i32 %_13000002, %_5
  %_228000003 = call dereferenceable_or_null(32) ptr @"_SM15java.nio.BufferD8positioniL15java.nio.BufferEO"(ptr dereferenceable_or_null(56) %_2, i32 %_228000002)
  %_228000005 = sub i32 %_13000001, %_8
  %_228000006 = call dereferenceable_or_null(32) ptr @"_SM15java.nio.BufferD8positioniL15java.nio.BufferEO"(ptr dereferenceable_or_null(48) %_3, i32 %_228000005)
  br label %_133000000.0
_130000000.0:
  %_236000103 = getelementptr { { ptr }, i16, i16, ptr }, { { ptr }, i16, i16, ptr }* %_42000001, i32 0, i32 1
  %_229000001 = load i16, ptr %_236000103
  %_130000003 = zext i16 %_229000001 to i32
  %_130000004 = icmp eq i32 %_130000003, 0
  br i1 %_130000004, label %_135000000.0, label %_136000000.0
_135000000.0:
  %_135000002 = icmp eq i32 %_13000001, %_9
  br i1 %_135000002, label %_137000000.0, label %_138000000.0
_137000000.0:
  %_137000001 = call dereferenceable_or_null(104) ptr @"_SM29java.nio.charset.CoderResult$G4load"()
  %_236000104 = getelementptr { { ptr }, ptr, ptr, ptr, ptr, ptr, ptr, ptr, ptr, ptr, ptr, ptr, ptr }, { { ptr }, ptr, ptr, ptr, ptr, ptr, ptr, ptr, ptr, ptr, ptr, ptr, ptr }* %_137000001, i32 0, i32 1
  %_230000001 = load ptr, ptr %_236000104, !dereferenceable_or_null !{i64 16}
  %_231000002 = sub i32 %_13000002, %_5
  %_231000003 = call dereferenceable_or_null(32) ptr @"_SM15java.nio.BufferD8positioniL15java.nio.BufferEO"(ptr dereferenceable_or_null(56) %_2, i32 %_231000002)
  %_231000005 = sub i32 %_13000001, %_8
  %_231000006 = call dereferenceable_or_null(32) ptr @"_SM15java.nio.BufferD8positioniL15java.nio.BufferEO"(ptr dereferenceable_or_null(48) %_3, i32 %_231000005)
  br label %_141000000.0
_138000000.0:
  %_236000105 = getelementptr { { ptr }, i16, i16, ptr }, { { ptr }, i16, i16, ptr }* %_42000001, i32 0, i32 2
  %_232000001 = load i16, ptr %_236000105
  %_236000108 = getelementptr { ptr, i32, i32 }, { ptr, i32, i32 }* %_7, i32 0, i32 1
  %_236000107 = load i32, ptr %_236000108
  %_236000110 = icmp sge i32 %_13000001, 0
  %_236000111 = icmp slt i32 %_13000001, %_236000107
  %_236000112 = and i1 %_236000110, %_236000111
  br i1 %_236000112, label %_236000109.0, label %_236000009.0
_236000109.0:
  %_236000113 = getelementptr { { ptr, i32, i32 }, [0 x i16] }, { { ptr, i32, i32 }, [0 x i16] }* %_7, i32 0, i32 1, i32 %_13000001
  store i16 %_232000001, ptr%_236000113, align 2
  %_138000004 = add i32 %_13000001, 1
  %_138000005 = add i32 %_13000002, %_22000006
  br label %_28000000.0
_141000000.0:
  br label %_143000000.0
_136000000.0:
  %_136000003 = add i32 %_13000001, 2
  %_136000004 = icmp sgt i32 %_136000003, %_9
  br i1 %_136000004, label %_144000000.0, label %_145000000.0
_144000000.0:
  %_144000001 = call dereferenceable_or_null(104) ptr @"_SM29java.nio.charset.CoderResult$G4load"()
  %_236000114 = getelementptr { { ptr }, ptr, ptr, ptr, ptr, ptr, ptr, ptr, ptr, ptr, ptr, ptr, ptr }, { { ptr }, ptr, ptr, ptr, ptr, ptr, ptr, ptr, ptr, ptr, ptr, ptr, ptr }* %_144000001, i32 0, i32 1
  %_233000001 = load ptr, ptr %_236000114, !dereferenceable_or_null !{i64 16}
  %_234000002 = sub i32 %_13000002, %_5
  %_234000003 = call dereferenceable_or_null(32) ptr @"_SM15java.nio.BufferD8positioniL15java.nio.BufferEO"(ptr dereferenceable_or_null(56) %_2, i32 %_234000002)
  %_234000005 = sub i32 %_13000001, %_8
  %_234000006 = call dereferenceable_or_null(32) ptr @"_SM15java.nio.BufferD8positioniL15java.nio.BufferEO"(ptr dereferenceable_or_null(48) %_3, i32 %_234000005)
  br label %_148000000.0
_145000000.0:
  %_236000115 = getelementptr { { ptr }, i16, i16, ptr }, { { ptr }, i16, i16, ptr }* %_42000001, i32 0, i32 2
  %_235000001 = load i16, ptr %_236000115
  %_236000118 = getelementptr { ptr, i32, i32 }, { ptr, i32, i32 }* %_7, i32 0, i32 1
  %_236000117 = load i32, ptr %_236000118
  %_236000120 = icmp sge i32 %_13000001, 0
  %_236000121 = icmp slt i32 %_13000001, %_236000117
  %_236000122 = and i1 %_236000120, %_236000121
  br i1 %_236000122, label %_236000119.0, label %_236000009.0
_236000119.0:
  %_236000123 = getelementptr { { ptr, i32, i32 }, [0 x i16] }, { { ptr, i32, i32 }, [0 x i16] }* %_7, i32 0, i32 1, i32 %_13000001
  store i16 %_235000001, ptr%_236000123, align 2
  %_236000124 = getelementptr { { ptr }, i16, i16, ptr }, { { ptr }, i16, i16, ptr }* %_42000001, i32 0, i32 1
  %_236000001 = load i16, ptr %_236000124
  %_145000003 = add i32 %_13000001, 1
  %_236000127 = getelementptr { ptr, i32, i32 }, { ptr, i32, i32 }* %_7, i32 0, i32 1
  %_236000126 = load i32, ptr %_236000127
  %_236000129 = icmp sge i32 %_145000003, 0
  %_236000130 = icmp slt i32 %_145000003, %_236000126
  %_236000131 = and i1 %_236000129, %_236000130
  br i1 %_236000131, label %_236000128.0, label %_236000009.0
_236000128.0:
  %_236000132 = getelementptr { { ptr, i32, i32 }, [0 x i16] }, { { ptr, i32, i32 }, [0 x i16] }* %_7, i32 0, i32 1, i32 %_145000003
  store i16 %_236000001, ptr%_236000132, align 2
  %_145000006 = add i32 %_13000002, %_22000006
  br label %_28000000.0
_148000000.0:
  br label %_143000000.0
_143000000.0:
  %_143000001 = phi ptr [%_233000001, %_148000000.0], [%_230000001, %_141000000.0]
  br label %_133000000.0
_133000000.0:
  %_133000001 = phi ptr [%_143000001, %_143000000.0], [%_227000001, %_129000000.0]
  br label %_37000000.0
_37000000.0:
  %_37000001 = phi ptr [%_133000001, %_133000000.0], [%_157000001, %_158000000.0]
  br label %_29000000.0
_29000000.0:
  %_29000001 = phi ptr [%_37000001, %_37000000.0], [%_153000001, %_27000000.0]
  br label %_20000000.0
_20000000.0:
  %_20000001 = phi ptr [%_29000001, %_29000000.0], [%_151000001, %_16000000.0]
  ret ptr %_20000001
_28000000.0:
  %_28000001 = phi i32 [%_136000003, %_236000128.0], [%_138000004, %_236000109.0], [%_24000006, %_236000020.0]
  %_28000002 = phi i32 [%_145000006, %_236000128.0], [%_138000005, %_236000109.0], [%_24000007, %_236000020.0]
  br label %_13000000.0
_236000005.0:
  call ptr @"_SM34scala.scalanative.runtime.package$D16throwNullPointernEO"(ptr null)
  unreachable
_236000009.0:
  %_236000134 = phi i32 [%_13000002, %_236000004.0], [%_22000005, %_236000026.0], [%_31000003, %_39000000.0], [%_54000003, %_65000000.0], [%_80000003, %_101000000.0], [%_13000001, %_145000000.0], [%_145000003, %_236000119.0], [%_13000001, %_138000000.0], [%_13000001, %_236000017.0]
  %_236000135 = phi i32 [%_236000003, %_236000004.0], [%_236000025, %_236000026.0], [%_236000038, %_39000000.0], [%_236000057, %_65000000.0], [%_236000080, %_101000000.0], [%_236000117, %_145000000.0], [%_236000126, %_236000119.0], [%_236000107, %_138000000.0], [%_236000016, %_236000017.0]
  call ptr @"_SM34scala.scalanative.runtime.package$D16throwOutOfBoundsiinEO"(ptr null, i32 %_236000134, i32 %_236000135)
  unreachable
}

define dereferenceable_or_null(16) ptr @"_SM24niocharset.UTF_8$DecoderD6loop$2L19java.nio.ByteBufferL19java.nio.CharBufferL28java.nio.charset.CoderResultEPT24niocharset.UTF_8$Decoder"(ptr %_1, ptr %_2, ptr %_3) inlinehint personality ptr @__gxx_personality_v0 {
_4000000.0:
  br label %_5000000.0
_5000000.0:
  br label %_6000000.0
_6000000.0:
  br label %_7000000.0
_7000000.0:
  %_149000004 = icmp ne ptr %_2, null
  br i1 %_149000004, label %_149000002.0, label %_149000003.0
_149000002.0:
  %_149000005 = getelementptr { { ptr }, i32, i32, i32, i32, ptr }, { { ptr }, i32, i32, i32, i32, ptr }* %_2, i32 0, i32 4
  %_8000001 = load i32, ptr %_149000005
  %_149000006 = getelementptr { { ptr }, i32, i32, i32, i32, ptr }, { { ptr }, i32, i32, i32, i32, ptr }* %_2, i32 0, i32 4
  %_9000001 = load i32, ptr %_149000006
  %_149000007 = getelementptr { { ptr }, i32, i32, i32, i32, ptr }, { { ptr }, i32, i32, i32, i32, ptr }* %_2, i32 0, i32 1
  %_9000002 = load i32, ptr %_149000007
  %_7000002 = icmp ne i32 %_9000001, %_9000002
  %_7000003 = xor i1 %_7000002, true
  br i1 %_7000003, label %_10000000.0, label %_11000000.0
_10000000.0:
  %_10000001 = call dereferenceable_or_null(104) ptr @"_SM29java.nio.charset.CoderResult$G4load"()
  %_149000008 = getelementptr { { ptr }, ptr, ptr, ptr, ptr, ptr, ptr, ptr, ptr, ptr, ptr, ptr, ptr }, { { ptr }, ptr, ptr, ptr, ptr, ptr, ptr, ptr, ptr, ptr, ptr, ptr, ptr }* %_10000001, i32 0, i32 12
  %_12000001 = load ptr, ptr %_149000008, !dereferenceable_or_null !{i64 16}
  br label %_13000000.0
_11000000.0:
  %_11000001 = call i8 @"_SM19java.nio.ByteBufferD3getbEO"(ptr dereferenceable_or_null(56) %_2)
  %_11000004 = sext i8 %_11000001 to i32
  %_11000005 = icmp sge i32 %_11000004, 0
  br i1 %_11000005, label %_14000000.0, label %_15000000.0
_14000000.0:
  %_149000010 = icmp ne ptr %_3, null
  br i1 %_149000010, label %_149000009.0, label %_149000003.0
_149000009.0:
  %_149000011 = getelementptr { { ptr }, i32, i32, i32, i32, ptr }, { { ptr }, i32, i32, i32, i32, ptr }* %_3, i32 0, i32 4
  %_16000001 = load i32, ptr %_149000011
  %_149000012 = getelementptr { { ptr }, i32, i32, i32, i32, ptr }, { { ptr }, i32, i32, i32, i32, ptr }* %_3, i32 0, i32 1
  %_16000002 = load i32, ptr %_149000012
  %_14000002 = icmp ne i32 %_16000001, %_16000002
  %_14000003 = xor i1 %_14000002, true
  br i1 %_14000003, label %_17000000.0, label %_18000000.0
_17000000.0:
  %_17000001 = call dereferenceable_or_null(104) ptr @"_SM29java.nio.charset.CoderResult$G4load"()
  %_149000013 = getelementptr { { ptr }, ptr, ptr, ptr, ptr, ptr, ptr, ptr, ptr, ptr, ptr, ptr, ptr }, { { ptr }, ptr, ptr, ptr, ptr, ptr, ptr, ptr, ptr, ptr, ptr, ptr, ptr }* %_17000001, i32 0, i32 1
  %_19000001 = load ptr, ptr %_149000013, !dereferenceable_or_null !{i64 16}
  %_20000001 = call dereferenceable_or_null(32) ptr @"_SM15java.nio.BufferD8positioniL15java.nio.BufferEO"(ptr dereferenceable_or_null(56) %_2, i32 %_8000001)
  br label %_21000000.0
_18000000.0:
  %_18000003 = trunc i32 %_11000004 to i16
  %_18000009 = call dereferenceable_or_null(32) ptr @"_SM16java.lang.ObjectD8getClassL15java.lang.ClassEO"(ptr dereferenceable_or_null(48) %_3)
  %_18000010 = icmp eq ptr %_18000009, @"_SM23java.nio.HeapCharBufferG4type"
  br i1 %_18000010, label %_18000005.0, label %_18000006.0
_18000005.0:
  %_18000011 = call dereferenceable_or_null(48) ptr @"_SM19java.nio.CharBufferD3putcL19java.nio.CharBufferEO"(ptr dereferenceable_or_null(48) %_3, i16 %_18000003)
  br label %_18000007.0
_18000006.0:
  %_18000012 = bitcast ptr %_3 to ptr
  %_18000013 = call dereferenceable_or_null(48) ptr @"_SM25java.nio.StringCharBufferD3putcL19java.nio.CharBufferEO"(ptr dereferenceable_or_null(64) %_18000012, i16 %_18000003)
  br label %_18000007.0
_18000007.0:
  %_18000014 = phi ptr [%_18000013, %_18000006.0], [%_18000011, %_18000005.0]
  br label %_22000000.0
_21000000.0:
  br label %_23000000.0
_15000000.0:
  %_15000002 = call dereferenceable_or_null(56) ptr @"_SM17niocharset.UTF_8$G4load"()
  %_15000003 = call dereferenceable_or_null(16) ptr @"_SM17niocharset.UTF_8$D34niocharset$UTF_8$$$lengthByLeadingLAi_EO"(ptr nonnull dereferenceable(56) %_15000002)
  %_15000005 = and i32 %_11000004, 127
  %_149000016 = icmp ne ptr %_15000003, null
  br i1 %_149000016, label %_149000015.0, label %_149000003.0
_149000015.0:
  %_149000017 = getelementptr { ptr, i32, i32 }, { ptr, i32, i32 }* %_15000003, i32 0, i32 1
  %_149000014 = load i32, ptr %_149000017
  %_149000020 = icmp sge i32 %_15000005, 0
  %_149000021 = icmp slt i32 %_15000005, %_149000014
  %_149000022 = and i1 %_149000020, %_149000021
  br i1 %_149000022, label %_149000018.0, label %_149000019.0
_149000018.0:
  %_149000023 = getelementptr { { ptr, i32, i32 }, [0 x i32] }, { { ptr, i32, i32 }, [0 x i32] }* %_15000003, i32 0, i32 1, i32 %_15000005
  %_15000006 = load i32, ptr %_149000023
  %_15000008 = icmp eq i32 %_15000006, -1
  br i1 %_15000008, label %_24000000.0, label %_25000000.0
_24000000.0:
  %_24000001 = call dereferenceable_or_null(104) ptr @"_SM29java.nio.charset.CoderResult$G4load"()
  br label %_27000000.0
_27000000.0:
  br label %_28000000.0
_28000000.0:
  %_149000024 = getelementptr { { ptr }, ptr, ptr, ptr, ptr, ptr, ptr, ptr, ptr, ptr, ptr, ptr, ptr }, { { ptr }, ptr, ptr, ptr, ptr, ptr, ptr, ptr, ptr, ptr, ptr, ptr, ptr }* %_24000001, i32 0, i32 5
  %_28000001 = load ptr, ptr %_149000024, !dereferenceable_or_null !{i64 16}
  br label %_29000000.0
_29000000.0:
  %_30000001 = call dereferenceable_or_null(32) ptr @"_SM15java.nio.BufferD8positioniL15java.nio.BufferEO"(ptr dereferenceable_or_null(56) %_2, i32 %_8000001)
  br label %_31000000.0
_25000000.0:
  %_149000025 = getelementptr { { ptr }, i32, i32, i32, i32, ptr }, { { ptr }, i32, i32, i32, i32, ptr }* %_2, i32 0, i32 4
  %_32000001 = load i32, ptr %_149000025
  %_149000026 = getelementptr { { ptr }, i32, i32, i32, i32, ptr }, { { ptr }, i32, i32, i32, i32, ptr }* %_2, i32 0, i32 1
  %_32000002 = load i32, ptr %_149000026
  %_25000001 = icmp ne i32 %_32000001, %_32000002
  br i1 %_25000001, label %_33000000.0, label %_34000000.0
_33000000.0:
  %_33000001 = call i8 @"_SM19java.nio.ByteBufferD3getbEO"(ptr dereferenceable_or_null(56) %_2)
  %_33000003 = sext i8 %_33000001 to i32
  %_33000004 = and i32 %_33000003, 192
  %_33000005 = icmp ne i32 %_33000004, 128
  br i1 %_33000005, label %_37000000.0, label %_38000000.0
_37000000.0:
  %_37000002 = call dereferenceable_or_null(104) ptr @"_SM29java.nio.charset.CoderResult$G4load"()
  br label %_40000000.0
_40000000.0:
  br label %_41000000.0
_41000000.0:
  %_149000027 = getelementptr { { ptr }, ptr, ptr, ptr, ptr, ptr, ptr, ptr, ptr, ptr, ptr, ptr, ptr }, { { ptr }, ptr, ptr, ptr, ptr, ptr, ptr, ptr, ptr, ptr, ptr, ptr, ptr }* %_37000002, i32 0, i32 5
  %_41000001 = load ptr, ptr %_149000027, !dereferenceable_or_null !{i64 16}
  br label %_42000000.0
_42000000.0:
  %_37000003 = call dereferenceable_or_null(24) ptr @"scalanative_GC_alloc_small"(ptr @"_SM33niocharset.UTF_8$DecodedMultiByteG4type", i64 24)
  %_149000029 = getelementptr { { ptr }, i16, i16, ptr }, { { ptr }, i16, i16, ptr }* %_37000003, i32 0, i32 3
  store ptr %_41000001, ptr%_149000029, align 8
  br label %_44000000.0
_38000000.0:
  %_38000002 = icmp eq i32 %_15000006, 2
  br i1 %_38000002, label %_45000000.0, label %_46000000.0
_45000000.0:
  %_48000006 = and i32 %_11000004, 31
  %_149000030 = and i32 6, 31
  %_48000007 = shl i32 %_48000006, %_149000030
  %_48000008 = and i32 %_33000003, 63
  %_48000009 = or i32 %_48000007, %_48000008
  %_48000010 = icmp slt i32 %_48000009, 128
  br i1 %_48000010, label %_49000000.0, label %_50000000.0
_49000000.0:
  %_49000001 = call dereferenceable_or_null(104) ptr @"_SM29java.nio.charset.CoderResult$G4load"()
  br label %_51000000.0
_51000000.0:
  br label %_52000000.0
_52000000.0:
  %_149000031 = getelementptr { { ptr }, ptr, ptr, ptr, ptr, ptr, ptr, ptr, ptr, ptr, ptr, ptr, ptr }, { { ptr }, ptr, ptr, ptr, ptr, ptr, ptr, ptr, ptr, ptr, ptr, ptr, ptr }* %_49000001, i32 0, i32 5
  %_52000001 = load ptr, ptr %_149000031, !dereferenceable_or_null !{i64 16}
  br label %_53000000.0
_53000000.0:
  %_53000002 = call dereferenceable_or_null(24) ptr @"scalanative_GC_alloc_small"(ptr @"_SM33niocharset.UTF_8$DecodedMultiByteG4type", i64 24)
  %_149000033 = getelementptr { { ptr }, i16, i16, ptr }, { { ptr }, i16, i16, ptr }* %_53000002, i32 0, i32 3
  store ptr %_52000001, ptr%_149000033, align 8
  br label %_54000000.0
_50000000.0:
  %_50000003 = call dereferenceable_or_null(24) ptr @"scalanative_GC_alloc_small"(ptr @"_SM33niocharset.UTF_8$DecodedMultiByteG4type", i64 24)
  %_50000004 = trunc i32 %_48000009 to i16
  %_149000035 = getelementptr { { ptr }, i16, i16, ptr }, { { ptr }, i16, i16, ptr }* %_50000003, i32 0, i32 2
  store i16 %_50000004, ptr%_149000035, align 2
  br label %_54000000.0
_54000000.0:
  %_54000001 = phi ptr [%_50000003, %_50000000.0], [%_53000002, %_53000000.0]
  br label %_55000000.0
_46000000.0:
  %_149000036 = getelementptr { { ptr }, i32, i32, i32, i32, ptr }, { { ptr }, i32, i32, i32, i32, ptr }* %_2, i32 0, i32 4
  %_56000001 = load i32, ptr %_149000036
  %_149000037 = getelementptr { { ptr }, i32, i32, i32, i32, ptr }, { { ptr }, i32, i32, i32, i32, ptr }* %_2, i32 0, i32 1
  %_56000002 = load i32, ptr %_149000037
  %_46000001 = icmp ne i32 %_56000001, %_56000002
  br i1 %_46000001, label %_57000000.0, label %_58000000.0
_57000000.0:
  %_57000001 = call i8 @"_SM19java.nio.ByteBufferD3getbEO"(ptr dereferenceable_or_null(56) %_2)
  %_57000002 = sext i8 %_57000001 to i32
  %_57000003 = and i32 %_57000002, 192
  %_57000004 = icmp ne i32 %_57000003, 128
  br i1 %_57000004, label %_61000000.0, label %_62000000.0
_61000000.0:
  %_61000002 = call dereferenceable_or_null(104) ptr @"_SM29java.nio.charset.CoderResult$G4load"()
  br label %_64000000.0
_64000000.0:
  br label %_65000000.0
_65000000.0:
  %_149000038 = getelementptr { { ptr }, ptr, ptr, ptr, ptr, ptr, ptr, ptr, ptr, ptr, ptr, ptr, ptr }, { { ptr }, ptr, ptr, ptr, ptr, ptr, ptr, ptr, ptr, ptr, ptr, ptr, ptr }* %_61000002, i32 0, i32 4
  %_65000001 = load ptr, ptr %_149000038, !dereferenceable_or_null !{i64 16}
  br label %_66000000.0
_66000000.0:
  %_61000003 = call dereferenceable_or_null(24) ptr @"scalanative_GC_alloc_small"(ptr @"_SM33niocharset.UTF_8$DecodedMultiByteG4type", i64 24)
  %_149000040 = getelementptr { { ptr }, i16, i16, ptr }, { { ptr }, i16, i16, ptr }* %_61000003, i32 0, i32 3
  store ptr %_65000001, ptr%_149000040, align 8
  br label %_68000000.0
_62000000.0:
  %_62000002 = icmp eq i32 %_15000006, 3
  br i1 %_62000002, label %_69000000.0, label %_70000000.0
_69000000.0:
  %_73000009 = and i32 %_11000004, 15
  %_149000041 = and i32 12, 31
  %_73000010 = shl i32 %_73000009, %_149000041
  %_73000011 = and i32 %_33000003, 63
  %_149000042 = and i32 6, 31
  %_73000012 = shl i32 %_73000011, %_149000042
  %_73000013 = or i32 %_73000010, %_73000012
  %_73000014 = and i32 %_57000002, 63
  %_73000015 = or i32 %_73000013, %_73000014
  %_73000016 = icmp slt i32 %_73000015, 2048
  br i1 %_73000016, label %_74000000.0, label %_75000000.0
_74000000.0:
  %_74000001 = call dereferenceable_or_null(104) ptr @"_SM29java.nio.charset.CoderResult$G4load"()
  br label %_76000000.0
_76000000.0:
  br label %_77000000.0
_77000000.0:
  %_149000043 = getelementptr { { ptr }, ptr, ptr, ptr, ptr, ptr, ptr, ptr, ptr, ptr, ptr, ptr, ptr }, { { ptr }, ptr, ptr, ptr, ptr, ptr, ptr, ptr, ptr, ptr, ptr, ptr, ptr }* %_74000001, i32 0, i32 5
  %_77000001 = load ptr, ptr %_149000043, !dereferenceable_or_null !{i64 16}
  br label %_78000000.0
_78000000.0:
  %_78000002 = call dereferenceable_or_null(24) ptr @"scalanative_GC_alloc_small"(ptr @"_SM33niocharset.UTF_8$DecodedMultiByteG4type", i64 24)
  %_149000045 = getelementptr { { ptr }, i16, i16, ptr }, { { ptr }, i16, i16, ptr }* %_78000002, i32 0, i32 3
  store ptr %_77000001, ptr%_149000045, align 8
  br label %_79000000.0
_75000000.0:
  %_75000002 = icmp sge i32 %_73000015, 55296
  br i1 %_75000002, label %_80000000.0, label %_81000000.0
_80000000.0:
  %_80000002 = icmp sle i32 %_73000015, 57343
  br label %_82000000.0
_81000000.0:
  br label %_82000000.0
_82000000.0:
  %_82000001 = phi i1 [false, %_81000000.0], [%_80000002, %_80000000.0]
  br i1 %_82000001, label %_83000000.0, label %_84000000.0
_83000000.0:
  %_83000001 = call dereferenceable_or_null(104) ptr @"_SM29java.nio.charset.CoderResult$G4load"()
  br label %_85000000.0
_85000000.0:
  br label %_86000000.0
_86000000.0:
  %_149000046 = getelementptr { { ptr }, ptr, ptr, ptr, ptr, ptr, ptr, ptr, ptr, ptr, ptr, ptr, ptr }, { { ptr }, ptr, ptr, ptr, ptr, ptr, ptr, ptr, ptr, ptr, ptr, ptr, ptr }* %_83000001, i32 0, i32 3
  %_86000001 = load ptr, ptr %_149000046, !dereferenceable_or_null !{i64 16}
  br label %_87000000.0
_87000000.0:
  %_87000002 = call dereferenceable_or_null(24) ptr @"scalanative_GC_alloc_small"(ptr @"_SM33niocharset.UTF_8$DecodedMultiByteG4type", i64 24)
  %_149000048 = getelementptr { { ptr }, i16, i16, ptr }, { { ptr }, i16, i16, ptr }* %_87000002, i32 0, i32 3
  store ptr %_86000001, ptr%_149000048, align 8
  br label %_88000000.0
_84000000.0:
  %_84000003 = call dereferenceable_or_null(24) ptr @"scalanative_GC_alloc_small"(ptr @"_SM33niocharset.UTF_8$DecodedMultiByteG4type", i64 24)
  %_84000004 = trunc i32 %_73000015 to i16
  %_149000050 = getelementptr { { ptr }, i16, i16, ptr }, { { ptr }, i16, i16, ptr }* %_84000003, i32 0, i32 2
  store i16 %_84000004, ptr%_149000050, align 2
  br label %_88000000.0
_88000000.0:
  %_88000001 = phi ptr [%_84000003, %_84000000.0], [%_87000002, %_87000000.0]
  br label %_79000000.0
_79000000.0:
  %_79000001 = phi ptr [%_88000001, %_88000000.0], [%_78000002, %_78000000.0]
  br label %_89000000.0
_70000000.0:
  %_149000051 = getelementptr { { ptr }, i32, i32, i32, i32, ptr }, { { ptr }, i32, i32, i32, i32, ptr }* %_2, i32 0, i32 4
  %_90000001 = load i32, ptr %_149000051
  %_149000052 = getelementptr { { ptr }, i32, i32, i32, i32, ptr }, { { ptr }, i32, i32, i32, i32, ptr }* %_2, i32 0, i32 1
  %_90000002 = load i32, ptr %_149000052
  %_70000001 = icmp ne i32 %_90000001, %_90000002
  br i1 %_70000001, label %_91000000.0, label %_92000000.0
_91000000.0:
  %_91000001 = call i8 @"_SM19java.nio.ByteBufferD3getbEO"(ptr dereferenceable_or_null(56) %_2)
  %_91000002 = sext i8 %_91000001 to i32
  %_91000003 = and i32 %_91000002, 192
  %_91000004 = icmp ne i32 %_91000003, 128
  br i1 %_91000004, label %_95000000.0, label %_96000000.0
_95000000.0:
  %_95000002 = call dereferenceable_or_null(104) ptr @"_SM29java.nio.charset.CoderResult$G4load"()
  br label %_98000000.0
_98000000.0:
  br label %_99000000.0
_99000000.0:
  %_149000053 = getelementptr { { ptr }, ptr, ptr, ptr, ptr, ptr, ptr, ptr, ptr, ptr, ptr, ptr, ptr }, { { ptr }, ptr, ptr, ptr, ptr, ptr, ptr, ptr, ptr, ptr, ptr, ptr, ptr }* %_95000002, i32 0, i32 3
  %_99000001 = load ptr, ptr %_149000053, !dereferenceable_or_null !{i64 16}
  br label %_100000000.0
_100000000.0:
  %_95000003 = call dereferenceable_or_null(24) ptr @"scalanative_GC_alloc_small"(ptr @"_SM33niocharset.UTF_8$DecodedMultiByteG4type", i64 24)
  %_149000055 = getelementptr { { ptr }, i16, i16, ptr }, { { ptr }, i16, i16, ptr }* %_95000003, i32 0, i32 3
  store ptr %_99000001, ptr%_149000055, align 8
  br label %_102000000.0
_96000000.0:
  %_106000012 = and i32 %_11000004, 7
  %_149000056 = and i32 18, 31
  %_106000013 = shl i32 %_106000012, %_149000056
  %_106000014 = and i32 %_33000003, 63
  %_149000057 = and i32 12, 31
  %_106000015 = shl i32 %_106000014, %_149000057
  %_106000016 = or i32 %_106000013, %_106000015
  %_106000017 = and i32 %_57000002, 63
  %_149000058 = and i32 6, 31
  %_106000018 = shl i32 %_106000017, %_149000058
  %_106000019 = or i32 %_106000016, %_106000018
  %_106000020 = and i32 %_91000002, 63
  %_106000021 = or i32 %_106000019, %_106000020
  %_106000022 = icmp slt i32 %_106000021, 65536
  br i1 %_106000022, label %_107000000.0, label %_108000000.0
_107000000.0:
  br label %_109000000.0
_108000000.0:
  %_108000002 = icmp sgt i32 %_106000021, 1114111
  br label %_109000000.0
_109000000.0:
  %_109000001 = phi i1 [%_108000002, %_108000000.0], [true, %_107000000.0]
  br i1 %_109000001, label %_110000000.0, label %_111000000.0
_110000000.0:
  %_110000001 = call dereferenceable_or_null(104) ptr @"_SM29java.nio.charset.CoderResult$G4load"()
  br label %_112000000.0
_112000000.0:
  br label %_113000000.0
_113000000.0:
  %_149000059 = getelementptr { { ptr }, ptr, ptr, ptr, ptr, ptr, ptr, ptr, ptr, ptr, ptr, ptr, ptr }, { { ptr }, ptr, ptr, ptr, ptr, ptr, ptr, ptr, ptr, ptr, ptr, ptr, ptr }* %_110000001, i32 0, i32 5
  %_113000001 = load ptr, ptr %_149000059, !dereferenceable_or_null !{i64 16}
  br label %_114000000.0
_114000000.0:
  %_114000002 = call dereferenceable_or_null(24) ptr @"scalanative_GC_alloc_small"(ptr @"_SM33niocharset.UTF_8$DecodedMultiByteG4type", i64 24)
  %_149000061 = getelementptr { { ptr }, i16, i16, ptr }, { { ptr }, i16, i16, ptr }* %_114000002, i32 0, i32 3
  store ptr %_113000001, ptr%_149000061, align 8
  br label %_115000000.0
_111000000.0:
  %_111000009 = call dereferenceable_or_null(24) ptr @"scalanative_GC_alloc_small"(ptr @"_SM33niocharset.UTF_8$DecodedMultiByteG4type", i64 24)
  %_111000010 = sub i32 %_106000021, 65536
  %_111000011 = and i32 %_111000010, 1023
  %_111000012 = or i32 %_111000011, 56320
  %_111000013 = trunc i32 %_111000012 to i16
  %_149000063 = getelementptr { { ptr }, i16, i16, ptr }, { { ptr }, i16, i16, ptr }* %_111000009, i32 0, i32 1
  store i16 %_111000013, ptr%_149000063, align 2
  %_149000064 = and i32 10, 31
  %_111000015 = ashr i32 %_111000010, %_149000064
  %_111000016 = or i32 %_111000015, 55296
  %_111000017 = trunc i32 %_111000016 to i16
  %_149000066 = getelementptr { { ptr }, i16, i16, ptr }, { { ptr }, i16, i16, ptr }* %_111000009, i32 0, i32 2
  store i16 %_111000017, ptr%_149000066, align 2
  br label %_115000000.0
_115000000.0:
  %_115000001 = phi ptr [%_111000009, %_111000000.0], [%_114000002, %_114000000.0]
  br label %_102000000.0
_102000000.0:
  %_102000001 = phi ptr [%_115000001, %_115000000.0], [%_95000003, %_100000000.0]
  br label %_116000000.0
_92000000.0:
  %_92000002 = call dereferenceable_or_null(104) ptr @"_SM29java.nio.charset.CoderResult$G4load"()
  %_149000067 = getelementptr { { ptr }, ptr, ptr, ptr, ptr, ptr, ptr, ptr, ptr, ptr, ptr, ptr, ptr }, { { ptr }, ptr, ptr, ptr, ptr, ptr, ptr, ptr, ptr, ptr, ptr, ptr, ptr }* %_92000002, i32 0, i32 12
  %_117000001 = load ptr, ptr %_149000067, !dereferenceable_or_null !{i64 16}
  %_92000003 = call dereferenceable_or_null(24) ptr @"scalanative_GC_alloc_small"(ptr @"_SM33niocharset.UTF_8$DecodedMultiByteG4type", i64 24)
  %_149000069 = getelementptr { { ptr }, i16, i16, ptr }, { { ptr }, i16, i16, ptr }* %_92000003, i32 0, i32 3
  store ptr %_117000001, ptr%_149000069, align 8
  br label %_116000000.0
_116000000.0:
  %_116000001 = phi ptr [%_92000003, %_92000000.0], [%_102000001, %_102000000.0]
  br label %_89000000.0
_89000000.0:
  %_89000001 = phi ptr [%_116000001, %_116000000.0], [%_79000001, %_79000000.0]
  br label %_68000000.0
_68000000.0:
  %_68000001 = phi ptr [%_89000001, %_89000000.0], [%_61000003, %_66000000.0]
  br label %_119000000.0
_58000000.0:
  %_58000002 = call dereferenceable_or_null(104) ptr @"_SM29java.nio.charset.CoderResult$G4load"()
  %_149000070 = getelementptr { { ptr }, ptr, ptr, ptr, ptr, ptr, ptr, ptr, ptr, ptr, ptr, ptr, ptr }, { { ptr }, ptr, ptr, ptr, ptr, ptr, ptr, ptr, ptr, ptr, ptr, ptr, ptr }* %_58000002, i32 0, i32 12
  %_120000001 = load ptr, ptr %_149000070, !dereferenceable_or_null !{i64 16}
  %_58000003 = call dereferenceable_or_null(24) ptr @"scalanative_GC_alloc_small"(ptr @"_SM33niocharset.UTF_8$DecodedMultiByteG4type", i64 24)
  %_149000072 = getelementptr { { ptr }, i16, i16, ptr }, { { ptr }, i16, i16, ptr }* %_58000003, i32 0, i32 3
  store ptr %_120000001, ptr%_149000072, align 8
  br label %_119000000.0
_119000000.0:
  %_119000001 = phi ptr [%_58000003, %_58000000.0], [%_68000001, %_68000000.0]
  br label %_55000000.0
_55000000.0:
  %_55000001 = phi ptr [%_119000001, %_119000000.0], [%_54000001, %_54000000.0]
  br label %_44000000.0
_44000000.0:
  %_44000001 = phi ptr [%_55000001, %_55000000.0], [%_37000003, %_42000000.0]
  br label %_122000000.0
_34000000.0:
  %_34000002 = call dereferenceable_or_null(104) ptr @"_SM29java.nio.charset.CoderResult$G4load"()
  %_149000073 = getelementptr { { ptr }, ptr, ptr, ptr, ptr, ptr, ptr, ptr, ptr, ptr, ptr, ptr, ptr }, { { ptr }, ptr, ptr, ptr, ptr, ptr, ptr, ptr, ptr, ptr, ptr, ptr, ptr }* %_34000002, i32 0, i32 12
  %_123000001 = load ptr, ptr %_149000073, !dereferenceable_or_null !{i64 16}
  %_34000003 = call dereferenceable_or_null(24) ptr @"scalanative_GC_alloc_small"(ptr @"_SM33niocharset.UTF_8$DecodedMultiByteG4type", i64 24)
  %_149000075 = getelementptr { { ptr }, i16, i16, ptr }, { { ptr }, i16, i16, ptr }* %_34000003, i32 0, i32 3
  store ptr %_123000001, ptr%_149000075, align 8
  br label %_122000000.0
_122000000.0:
  %_122000001 = phi ptr [%_34000003, %_34000000.0], [%_44000001, %_44000000.0]
  %_149000076 = getelementptr { { ptr }, i16, i16, ptr }, { { ptr }, i16, i16, ptr }* %_122000001, i32 0, i32 3
  %_125000001 = load ptr, ptr %_149000076, !dereferenceable_or_null !{i64 16}
  %_122000004 = icmp eq ptr %_125000001, null
  %_122000005 = xor i1 %_122000004, true
  br i1 %_122000005, label %_126000000.0, label %_127000000.0
_126000000.0:
  %_149000077 = getelementptr { { ptr }, i16, i16, ptr }, { { ptr }, i16, i16, ptr }* %_122000001, i32 0, i32 3
  %_128000001 = load ptr, ptr %_149000077, !dereferenceable_or_null !{i64 16}
  %_129000001 = call dereferenceable_or_null(32) ptr @"_SM15java.nio.BufferD8positioniL15java.nio.BufferEO"(ptr dereferenceable_or_null(56) %_2, i32 %_8000001)
  br label %_130000000.0
_127000000.0:
  %_149000078 = getelementptr { { ptr }, i16, i16, ptr }, { { ptr }, i16, i16, ptr }* %_122000001, i32 0, i32 1
  %_131000001 = load i16, ptr %_149000078
  %_127000003 = zext i16 %_131000001 to i32
  %_127000004 = icmp eq i32 %_127000003, 0
  br i1 %_127000004, label %_132000000.0, label %_133000000.0
_132000000.0:
  %_149000079 = getelementptr { { ptr }, i32, i32, i32, i32, ptr }, { { ptr }, i32, i32, i32, i32, ptr }* %_3, i32 0, i32 4
  %_134000001 = load i32, ptr %_149000079
  %_149000080 = getelementptr { { ptr }, i32, i32, i32, i32, ptr }, { { ptr }, i32, i32, i32, i32, ptr }* %_3, i32 0, i32 1
  %_134000002 = load i32, ptr %_149000080
  %_132000002 = icmp ne i32 %_134000001, %_134000002
  %_132000003 = xor i1 %_132000002, true
  br i1 %_132000003, label %_135000000.0, label %_136000000.0
_135000000.0:
  %_135000001 = call dereferenceable_or_null(104) ptr @"_SM29java.nio.charset.CoderResult$G4load"()
  %_149000081 = getelementptr { { ptr }, ptr, ptr, ptr, ptr, ptr, ptr, ptr, ptr, ptr, ptr, ptr, ptr }, { { ptr }, ptr, ptr, ptr, ptr, ptr, ptr, ptr, ptr, ptr, ptr, ptr, ptr }* %_135000001, i32 0, i32 1
  %_137000001 = load ptr, ptr %_149000081, !dereferenceable_or_null !{i64 16}
  %_138000001 = call dereferenceable_or_null(32) ptr @"_SM15java.nio.BufferD8positioniL15java.nio.BufferEO"(ptr dereferenceable_or_null(56) %_2, i32 %_8000001)
  br label %_139000000.0
_136000000.0:
  %_149000082 = getelementptr { { ptr }, i16, i16, ptr }, { { ptr }, i16, i16, ptr }* %_122000001, i32 0, i32 2
  %_140000001 = load i16, ptr %_149000082
  %_136000007 = call dereferenceable_or_null(32) ptr @"_SM16java.lang.ObjectD8getClassL15java.lang.ClassEO"(ptr dereferenceable_or_null(48) %_3)
  %_136000008 = icmp eq ptr %_136000007, @"_SM23java.nio.HeapCharBufferG4type"
  br i1 %_136000008, label %_136000003.0, label %_136000004.0
_136000003.0:
  %_136000009 = call dereferenceable_or_null(48) ptr @"_SM19java.nio.CharBufferD3putcL19java.nio.CharBufferEO"(ptr dereferenceable_or_null(48) %_3, i16 %_140000001)
  br label %_136000005.0
_136000004.0:
  %_136000010 = bitcast ptr %_3 to ptr
  %_136000011 = call dereferenceable_or_null(48) ptr @"_SM25java.nio.StringCharBufferD3putcL19java.nio.CharBufferEO"(ptr dereferenceable_or_null(64) %_136000010, i16 %_140000001)
  br label %_136000005.0
_136000005.0:
  %_136000012 = phi ptr [%_136000011, %_136000004.0], [%_136000009, %_136000003.0]
  br label %_22000000.0
_139000000.0:
  br label %_141000000.0
_133000000.0:
  %_149000083 = getelementptr { { ptr }, i32, i32, i32, i32, ptr }, { { ptr }, i32, i32, i32, i32, ptr }* %_3, i32 0, i32 1
  %_142000001 = load i32, ptr %_149000083
  %_149000084 = getelementptr { { ptr }, i32, i32, i32, i32, ptr }, { { ptr }, i32, i32, i32, i32, ptr }* %_3, i32 0, i32 4
  %_142000002 = load i32, ptr %_149000084
  %_133000002 = sub i32 %_142000001, %_142000002
  %_133000003 = icmp slt i32 %_133000002, 2
  br i1 %_133000003, label %_143000000.0, label %_144000000.0
_143000000.0:
  %_143000001 = call dereferenceable_or_null(104) ptr @"_SM29java.nio.charset.CoderResult$G4load"()
  %_149000085 = getelementptr { { ptr }, ptr, ptr, ptr, ptr, ptr, ptr, ptr, ptr, ptr, ptr, ptr, ptr }, { { ptr }, ptr, ptr, ptr, ptr, ptr, ptr, ptr, ptr, ptr, ptr, ptr, ptr }* %_143000001, i32 0, i32 1
  %_145000001 = load ptr, ptr %_149000085, !dereferenceable_or_null !{i64 16}
  %_146000001 = call dereferenceable_or_null(32) ptr @"_SM15java.nio.BufferD8positioniL15java.nio.BufferEO"(ptr dereferenceable_or_null(56) %_2, i32 %_8000001)
  br label %_147000000.0
_144000000.0:
  %_149000086 = getelementptr { { ptr }, i16, i16, ptr }, { { ptr }, i16, i16, ptr }* %_122000001, i32 0, i32 2
  %_148000001 = load i16, ptr %_149000086
  %_144000007 = call dereferenceable_or_null(32) ptr @"_SM16java.lang.ObjectD8getClassL15java.lang.ClassEO"(ptr dereferenceable_or_null(48) %_3)
  %_144000008 = icmp eq ptr %_144000007, @"_SM23java.nio.HeapCharBufferG4type"
  br i1 %_144000008, label %_144000003.0, label %_144000004.0
_144000003.0:
  %_144000009 = call dereferenceable_or_null(48) ptr @"_SM19java.nio.CharBufferD3putcL19java.nio.CharBufferEO"(ptr dereferenceable_or_null(48) %_3, i16 %_148000001)
  br label %_144000005.0
_144000004.0:
  %_144000010 = bitcast ptr %_3 to ptr
  %_144000011 = call dereferenceable_or_null(48) ptr @"_SM25java.nio.StringCharBufferD3putcL19java.nio.CharBufferEO"(ptr dereferenceable_or_null(64) %_144000010, i16 %_148000001)
  br label %_144000005.0
_144000005.0:
  %_144000012 = phi ptr [%_144000011, %_144000004.0], [%_144000009, %_144000003.0]
  %_149000087 = getelementptr { { ptr }, i16, i16, ptr }, { { ptr }, i16, i16, ptr }* %_122000001, i32 0, i32 1
  %_149000001 = load i16, ptr %_149000087
  %_144000018 = call dereferenceable_or_null(32) ptr @"_SM16java.lang.ObjectD8getClassL15java.lang.ClassEO"(ptr dereferenceable_or_null(48) %_3)
  %_144000019 = icmp eq ptr %_144000018, @"_SM23java.nio.HeapCharBufferG4type"
  br i1 %_144000019, label %_144000014.0, label %_144000015.0
_144000014.0:
  %_144000020 = call dereferenceable_or_null(48) ptr @"_SM19java.nio.CharBufferD3putcL19java.nio.CharBufferEO"(ptr dereferenceable_or_null(48) %_3, i16 %_149000001)
  br label %_144000016.0
_144000015.0:
  %_144000021 = bitcast ptr %_3 to ptr
  %_144000022 = call dereferenceable_or_null(48) ptr @"_SM25java.nio.StringCharBufferD3putcL19java.nio.CharBufferEO"(ptr dereferenceable_or_null(64) %_144000021, i16 %_149000001)
  br label %_144000016.0
_144000016.0:
  %_144000023 = phi ptr [%_144000022, %_144000015.0], [%_144000020, %_144000014.0]
  br label %_22000000.0
_147000000.0:
  br label %_141000000.0
_141000000.0:
  %_141000001 = phi ptr [%_145000001, %_147000000.0], [%_137000001, %_139000000.0]
  br label %_130000000.0
_130000000.0:
  %_130000001 = phi ptr [%_141000001, %_141000000.0], [%_128000001, %_126000000.0]
  br label %_31000000.0
_31000000.0:
  %_31000001 = phi ptr [%_130000001, %_130000000.0], [%_28000001, %_29000000.0]
  br label %_23000000.0
_23000000.0:
  %_23000001 = phi ptr [%_31000001, %_31000000.0], [%_19000001, %_21000000.0]
  br label %_13000000.0
_13000000.0:
  %_13000001 = phi ptr [%_23000001, %_23000000.0], [%_12000001, %_10000000.0]
  ret ptr %_13000001
_22000000.0:
  br label %_5000000.0
_149000003.0:
  call ptr @"_SM34scala.scalanative.runtime.package$D16throwNullPointernEO"(ptr null)
  unreachable
_149000019.0:
  %_149000089 = phi i32 [%_15000005, %_149000015.0]
  %_149000090 = phi i32 [%_149000014, %_149000015.0]
  call ptr @"_SM34scala.scalanative.runtime.package$D16throwOutOfBoundsiinEO"(ptr null, i32 %_149000089, i32 %_149000090)
  unreachable
}

define dereferenceable_or_null(16) ptr @"_SM24niocharset.UTF_8$EncoderD10encodeLoopL19java.nio.CharBufferL19java.nio.ByteBufferL28java.nio.charset.CoderResultEO"(ptr %_1, ptr %_2, ptr %_3) personality ptr @__gxx_personality_v0 {
_4000000.0:
  %_31000004 = icmp ne ptr %_1, null
  br i1 %_31000004, label %_31000002.0, label %_31000003.0
_31000002.0:
  %_5000001 = call dereferenceable_or_null(32) ptr @"_SM16java.lang.ObjectD8getClassL15java.lang.ClassEO"(ptr dereferenceable_or_null(48) %_2)
  %_5000003 = icmp eq ptr %_5000001, @"_SM23java.nio.HeapByteBufferG4type"
  br i1 %_5000003, label %_6000000.0, label %_7000000.0
_7000000.0:
  %_7000002 = icmp eq ptr %_5000001, @"_SM23java.nio.HeapCharBufferG4type"
  br label %_8000000.0
_6000000.0:
  %_6000002 = bitcast ptr %_2 to ptr
  %_31000006 = icmp ne ptr %_6000002, null
  br i1 %_31000006, label %_31000005.0, label %_31000003.0
_31000005.0:
  %_31000007 = getelementptr { { ptr }, i32, i32, i32, i32, ptr, i32, ptr, i1 }, { { ptr }, i32, i32, i32, i32, ptr, i32, ptr, i1 }* %_6000002, i32 0, i32 7
  %_6000003 = load ptr, ptr %_31000007, !dereferenceable_or_null !{i64 16}
  br label %_9000000.0
_8000000.0:
  %_31000009 = icmp ne ptr %_2, null
  br i1 %_31000009, label %_31000008.0, label %_31000003.0
_31000008.0:
  %_31000010 = getelementptr { { ptr }, i32, i32, i32, i32, ptr, i32, ptr }, { { ptr }, i32, i32, i32, i32, ptr, i32, ptr }* %_2, i32 0, i32 7
  %_8000001 = load ptr, ptr %_31000010, !dereferenceable_or_null !{i64 16}
  br label %_9000000.0
_9000000.0:
  %_9000001 = phi ptr [%_8000001, %_31000008.0], [%_6000003, %_31000005.0]
  %_9000004 = icmp eq ptr %_9000001, null
  %_9000005 = xor i1 %_9000004, true
  br i1 %_9000005, label %_10000000.0, label %_11000000.0
_10000000.0:
  %_10000001 = call dereferenceable_or_null(32) ptr @"_SM16java.lang.ObjectD8getClassL15java.lang.ClassEO"(ptr dereferenceable_or_null(48) %_2)
  %_10000003 = icmp eq ptr %_10000001, @"_SM23java.nio.HeapCharBufferG4type"
  br i1 %_10000003, label %_12000000.0, label %_13000000.0
_12000000.0:
  %_14000001 = bitcast ptr %_2 to ptr
  %_31000012 = icmp ne ptr %_14000001, null
  br i1 %_31000012, label %_31000011.0, label %_31000003.0
_31000011.0:
  %_31000013 = getelementptr { { ptr }, i32, i32, i32, i32, ptr, i32, ptr, i1 }, { { ptr }, i32, i32, i32, i32, ptr, i32, ptr, i1 }* %_14000001, i32 0, i32 8
  %_31000014 = load i8, ptr %_31000013
  %_14000002 = trunc i8 %_31000014 to i1
  br label %_15000000.0
_13000000.0:
  br label %_15000000.0
_15000000.0:
  %_15000001 = phi i1 [true, %_13000000.0], [%_14000002, %_31000011.0]
  %_15000003 = xor i1 %_15000001, true
  br label %_17000000.0
_11000000.0:
  br label %_17000000.0
_17000000.0:
  %_17000001 = phi i1 [false, %_11000000.0], [%_15000003, %_15000000.0]
  br i1 %_17000001, label %_18000000.0, label %_19000000.0
_18000000.0:
  %_20000001 = call dereferenceable_or_null(32) ptr @"_SM16java.lang.ObjectD8getClassL15java.lang.ClassEO"(ptr dereferenceable_or_null(56) %_3)
  %_20000003 = icmp eq ptr %_20000001, @"_SM23java.nio.HeapByteBufferG4type"
  br i1 %_20000003, label %_21000000.0, label %_22000000.0
_22000000.0:
  %_22000002 = icmp eq ptr %_20000001, @"_SM23java.nio.HeapCharBufferG4type"
  br label %_23000000.0
_21000000.0:
  %_31000016 = icmp ne ptr %_3, null
  br i1 %_31000016, label %_31000015.0, label %_31000003.0
_31000015.0:
  %_31000017 = getelementptr { { ptr }, i32, i32, i32, i32, ptr, i32, ptr, i1 }, { { ptr }, i32, i32, i32, i32, ptr, i32, ptr, i1 }* %_3, i32 0, i32 7
  %_21000001 = load ptr, ptr %_31000017, !dereferenceable_or_null !{i64 16}
  br label %_24000000.0
_23000000.0:
  %_23000002 = bitcast ptr %_3 to ptr
  %_31000019 = icmp ne ptr %_23000002, null
  br i1 %_31000019, label %_31000018.0, label %_31000003.0
_31000018.0:
  %_31000020 = getelementptr { { ptr }, i32, i32, i32, i32, ptr, i32, ptr }, { { ptr }, i32, i32, i32, i32, ptr, i32, ptr }* %_23000002, i32 0, i32 7
  %_23000003 = load ptr, ptr %_31000020, !dereferenceable_or_null !{i64 16}
  br label %_24000000.0
_24000000.0:
  %_24000001 = phi ptr [%_23000003, %_31000018.0], [%_21000001, %_31000015.0]
  %_24000004 = icmp eq ptr %_24000001, null
  %_24000005 = xor i1 %_24000004, true
  br i1 %_24000005, label %_25000000.0, label %_26000000.0
_25000000.0:
  %_25000002 = bitcast ptr %_3 to ptr
  %_31000022 = icmp ne ptr %_25000002, null
  br i1 %_31000022, label %_31000021.0, label %_31000003.0
_31000021.0:
  %_31000023 = getelementptr { { ptr }, i32, i32, i32, i32, ptr, i32, ptr, i1, i1 }, { { ptr }, i32, i32, i32, i32, ptr, i32, ptr, i1, i1 }* %_25000002, i32 0, i32 9
  %_31000024 = load i8, ptr %_31000023
  %_25000003 = trunc i8 %_31000024 to i1
  %_25000005 = xor i1 %_25000003, true
  br label %_27000000.0
_26000000.0:
  br label %_27000000.0
_27000000.0:
  %_27000001 = phi i1 [false, %_26000000.0], [%_25000005, %_31000021.0]
  br label %_28000000.0
_19000000.0:
  br label %_28000000.0
_28000000.0:
  %_28000001 = phi i1 [false, %_19000000.0], [%_27000001, %_27000000.0]
  br i1 %_28000001, label %_29000000.0, label %_30000000.0
_29000000.0:
  %_29000001 = call dereferenceable_or_null(16) ptr @"_SM24niocharset.UTF_8$EncoderD15encodeLoopArrayL19java.nio.CharBufferL19java.nio.ByteBufferL28java.nio.charset.CoderResultEPT24niocharset.UTF_8$Encoder"(ptr dereferenceable_or_null(56) %_1, ptr dereferenceable_or_null(48) %_2, ptr dereferenceable_or_null(56) %_3)
  br label %_31000000.0
_30000000.0:
  %_30000001 = call dereferenceable_or_null(16) ptr @"_SM24niocharset.UTF_8$EncoderD17encodeLoopNoArrayL19java.nio.CharBufferL19java.nio.ByteBufferL28java.nio.charset.CoderResultEPT24niocharset.UTF_8$Encoder"(ptr dereferenceable_or_null(56) %_1, ptr dereferenceable_or_null(48) %_2, ptr dereferenceable_or_null(56) %_3)
  br label %_31000000.0
_31000000.0:
  %_31000001 = phi ptr [%_30000001, %_30000000.0], [%_29000001, %_29000000.0]
  ret ptr %_31000001
_31000003.0:
  call ptr @"_SM34scala.scalanative.runtime.package$D16throwNullPointernEO"(ptr null)
  unreachable
}

define dereferenceable_or_null(16) ptr @"_SM24niocharset.UTF_8$EncoderD15encodeLoopArrayL19java.nio.CharBufferL19java.nio.ByteBufferL28java.nio.charset.CoderResultEPT24niocharset.UTF_8$Encoder"(ptr %_1, ptr %_2, ptr %_3) personality ptr @__gxx_personality_v0 {
_4000000.0:
  %_5000001 = call dereferenceable_or_null(32) ptr @"_SM16java.lang.ObjectD8getClassL15java.lang.ClassEO"(ptr dereferenceable_or_null(48) %_2)
  %_5000003 = icmp eq ptr %_5000001, @"_SM23java.nio.HeapByteBufferG4type"
  br i1 %_5000003, label %_6000000.0, label %_7000000.0
_7000000.0:
  %_7000002 = icmp eq ptr %_5000001, @"_SM23java.nio.HeapCharBufferG4type"
  br label %_8000000.0
_6000000.0:
  %_6000002 = bitcast ptr %_2 to ptr
  %_122000009 = icmp ne ptr %_6000002, null
  br i1 %_122000009, label %_122000007.0, label %_122000008.0
_122000007.0:
  %_122000010 = getelementptr { { ptr }, i32, i32, i32, i32, ptr, i32, ptr, i1 }, { { ptr }, i32, i32, i32, i32, ptr, i32, ptr, i1 }* %_6000002, i32 0, i32 7
  %_6000003 = load ptr, ptr %_122000010, !dereferenceable_or_null !{i64 16}
  br label %_9000000.0
_8000000.0:
  %_122000012 = icmp ne ptr %_2, null
  br i1 %_122000012, label %_122000011.0, label %_122000008.0
_122000011.0:
  %_122000013 = getelementptr { { ptr }, i32, i32, i32, i32, ptr, i32, ptr }, { { ptr }, i32, i32, i32, i32, ptr, i32, ptr }* %_2, i32 0, i32 7
  %_8000001 = load ptr, ptr %_122000013, !dereferenceable_or_null !{i64 16}
  br label %_9000000.0
_9000000.0:
  %_9000001 = phi ptr [%_8000001, %_122000011.0], [%_6000003, %_122000007.0]
  %_9000003 = icmp eq ptr %_9000001, null
  br i1 %_9000003, label %_10000000.0, label %_11000000.0
_11000000.0:
  br label %_12000000.0
_12000000.0:
  %_12000001 = call dereferenceable_or_null(32) ptr @"_SM16java.lang.ObjectD8getClassL15java.lang.ClassEO"(ptr dereferenceable_or_null(48) %_2)
  %_12000003 = icmp eq ptr %_12000001, @"_SM23java.nio.HeapCharBufferG4type"
  br i1 %_12000003, label %_13000000.0, label %_14000000.0
_13000000.0:
  %_15000001 = bitcast ptr %_2 to ptr
  %_122000015 = icmp ne ptr %_15000001, null
  br i1 %_122000015, label %_122000014.0, label %_122000008.0
_122000014.0:
  %_122000016 = getelementptr { { ptr }, i32, i32, i32, i32, ptr, i32, ptr, i1 }, { { ptr }, i32, i32, i32, i32, ptr, i32, ptr, i1 }* %_15000001, i32 0, i32 8
  %_122000017 = load i8, ptr %_122000016
  %_15000002 = trunc i8 %_122000017 to i1
  br label %_16000000.0
_14000000.0:
  br label %_16000000.0
_16000000.0:
  %_16000001 = phi i1 [true, %_14000000.0], [%_15000002, %_122000014.0]
  br i1 %_16000001, label %_18000000.0, label %_19000000.0
_19000000.0:
  br label %_20000000.0
_10000000.0:
  br label %_21000000.0
_21000000.0:
  %_21000002 = call dereferenceable_or_null(40) ptr @"scalanative_GC_alloc_small"(ptr @"_SM39java.lang.UnsupportedOperationExceptionG4type", i64 40)
  %_122000019 = getelementptr { { ptr }, ptr, ptr, ptr, i1, i1 }, { { ptr }, ptr, ptr, ptr, i1, i1 }* %_21000002, i32 0, i32 5
  %_122000020 = zext i1 true to i8
  store i8 %_122000020, ptr%_122000019, align 1
  %_122000022 = getelementptr { { ptr }, ptr, ptr, ptr, i1, i1 }, { { ptr }, ptr, ptr, ptr, i1, i1 }* %_21000002, i32 0, i32 4
  %_122000023 = zext i1 true to i8
  store i8 %_122000023, ptr%_122000022, align 1
  %_21000005 = call dereferenceable_or_null(40) ptr @"_SM19java.lang.ThrowableD16fillInStackTraceL19java.lang.ThrowableEO"(ptr nonnull dereferenceable(40) %_21000002)
  br label %_22000000.0
_18000000.0:
  br label %_23000000.0
_23000000.0:
  %_23000002 = call dereferenceable_or_null(40) ptr @"scalanative_GC_alloc_small"(ptr @"_SM32java.nio.ReadOnlyBufferExceptionG4type", i64 40)
  %_122000025 = getelementptr { { ptr }, ptr, ptr, ptr, i1, i1 }, { { ptr }, ptr, ptr, ptr, i1, i1 }* %_23000002, i32 0, i32 5
  %_122000026 = zext i1 true to i8
  store i8 %_122000026, ptr%_122000025, align 1
  %_122000028 = getelementptr { { ptr }, ptr, ptr, ptr, i1, i1 }, { { ptr }, ptr, ptr, ptr, i1, i1 }* %_23000002, i32 0, i32 4
  %_122000029 = zext i1 true to i8
  store i8 %_122000029, ptr%_122000028, align 1
  %_23000005 = call dereferenceable_or_null(40) ptr @"_SM19java.lang.ThrowableD16fillInStackTraceL19java.lang.ThrowableEO"(ptr nonnull dereferenceable(40) %_23000002)
  br label %_24000000.0
_22000000.0:
  call ptr @"scalanative_throw"(ptr nonnull dereferenceable(40) %_21000002)
  unreachable
_24000000.0:
  call ptr @"scalanative_throw"(ptr nonnull dereferenceable(40) %_23000002)
  unreachable
_20000000.0:
  %_122000035 = icmp eq ptr %_9000001, null
  br i1 %_122000035, label %_122000033.0, label %_122000032.0
_122000032.0:
  %_122000036 = load ptr, ptr %_9000001
  %_122000037 = icmp eq ptr %_122000036, @"_SM35scala.scalanative.runtime.CharArrayG4type"
  br i1 %_122000037, label %_122000033.0, label %_122000034.0
_122000033.0:
  %_25000001 = call dereferenceable_or_null(32) ptr @"_SM16java.lang.ObjectD8getClassL15java.lang.ClassEO"(ptr dereferenceable_or_null(48) %_2)
  %_25000003 = icmp eq ptr %_25000001, @"_SM23java.nio.HeapByteBufferG4type"
  br i1 %_25000003, label %_26000000.0, label %_27000000.0
_27000000.0:
  %_27000002 = icmp eq ptr %_25000001, @"_SM23java.nio.HeapCharBufferG4type"
  br label %_28000000.0
_26000000.0:
  %_26000002 = bitcast ptr %_2 to ptr
  %_122000039 = icmp ne ptr %_26000002, null
  br i1 %_122000039, label %_122000038.0, label %_122000008.0
_122000038.0:
  %_122000040 = getelementptr { { ptr }, i32, i32, i32, i32, ptr, i32, ptr, i1 }, { { ptr }, i32, i32, i32, i32, ptr, i32, ptr, i1 }* %_26000002, i32 0, i32 6
  %_26000003 = load i32, ptr %_122000040
  br label %_29000000.0
_28000000.0:
  %_122000041 = getelementptr { { ptr }, i32, i32, i32, i32, ptr, i32, ptr }, { { ptr }, i32, i32, i32, i32, ptr, i32, ptr }* %_2, i32 0, i32 6
  %_28000001 = load i32, ptr %_122000041
  br label %_29000000.0
_29000000.0:
  %_29000001 = phi i32 [%_28000001, %_28000000.0], [%_26000003, %_122000038.0]
  %_29000003 = icmp eq i32 %_29000001, -1
  br i1 %_29000003, label %_30000000.0, label %_31000000.0
_31000000.0:
  br label %_32000000.0
_32000000.0:
  %_32000001 = call dereferenceable_or_null(32) ptr @"_SM16java.lang.ObjectD8getClassL15java.lang.ClassEO"(ptr dereferenceable_or_null(48) %_2)
  %_32000003 = icmp eq ptr %_32000001, @"_SM23java.nio.HeapCharBufferG4type"
  br i1 %_32000003, label %_33000000.0, label %_34000000.0
_33000000.0:
  %_35000001 = bitcast ptr %_2 to ptr
  %_122000043 = icmp ne ptr %_35000001, null
  br i1 %_122000043, label %_122000042.0, label %_122000008.0
_122000042.0:
  %_122000044 = getelementptr { { ptr }, i32, i32, i32, i32, ptr, i32, ptr, i1 }, { { ptr }, i32, i32, i32, i32, ptr, i32, ptr, i1 }* %_35000001, i32 0, i32 8
  %_122000045 = load i8, ptr %_122000044
  %_35000002 = trunc i8 %_122000045 to i1
  br label %_36000000.0
_34000000.0:
  br label %_36000000.0
_36000000.0:
  %_36000001 = phi i1 [true, %_34000000.0], [%_35000002, %_122000042.0]
  br i1 %_36000001, label %_38000000.0, label %_39000000.0
_39000000.0:
  br label %_40000000.0
_30000000.0:
  br label %_41000000.0
_41000000.0:
  %_41000002 = call dereferenceable_or_null(40) ptr @"scalanative_GC_alloc_small"(ptr @"_SM39java.lang.UnsupportedOperationExceptionG4type", i64 40)
  %_122000047 = getelementptr { { ptr }, ptr, ptr, ptr, i1, i1 }, { { ptr }, ptr, ptr, ptr, i1, i1 }* %_41000002, i32 0, i32 5
  %_122000048 = zext i1 true to i8
  store i8 %_122000048, ptr%_122000047, align 1
  %_122000050 = getelementptr { { ptr }, ptr, ptr, ptr, i1, i1 }, { { ptr }, ptr, ptr, ptr, i1, i1 }* %_41000002, i32 0, i32 4
  %_122000051 = zext i1 true to i8
  store i8 %_122000051, ptr%_122000050, align 1
  %_41000005 = call dereferenceable_or_null(40) ptr @"_SM19java.lang.ThrowableD16fillInStackTraceL19java.lang.ThrowableEO"(ptr nonnull dereferenceable(40) %_41000002)
  br label %_42000000.0
_38000000.0:
  br label %_43000000.0
_43000000.0:
  %_43000002 = call dereferenceable_or_null(40) ptr @"scalanative_GC_alloc_small"(ptr @"_SM32java.nio.ReadOnlyBufferExceptionG4type", i64 40)
  %_122000053 = getelementptr { { ptr }, ptr, ptr, ptr, i1, i1 }, { { ptr }, ptr, ptr, ptr, i1, i1 }* %_43000002, i32 0, i32 5
  %_122000054 = zext i1 true to i8
  store i8 %_122000054, ptr%_122000053, align 1
  %_122000056 = getelementptr { { ptr }, ptr, ptr, ptr, i1, i1 }, { { ptr }, ptr, ptr, ptr, i1, i1 }* %_43000002, i32 0, i32 4
  %_122000057 = zext i1 true to i8
  store i8 %_122000057, ptr%_122000056, align 1
  %_43000005 = call dereferenceable_or_null(40) ptr @"_SM19java.lang.ThrowableD16fillInStackTraceL19java.lang.ThrowableEO"(ptr nonnull dereferenceable(40) %_43000002)
  br label %_44000000.0
_42000000.0:
  call ptr @"scalanative_throw"(ptr nonnull dereferenceable(40) %_41000002)
  unreachable
_44000000.0:
  call ptr @"scalanative_throw"(ptr nonnull dereferenceable(40) %_43000002)
  unreachable
_40000000.0:
  %_122000060 = getelementptr { { ptr }, i32, i32, i32, i32, ptr }, { { ptr }, i32, i32, i32, i32, ptr }* %_2, i32 0, i32 4
  %_45000001 = load i32, ptr %_122000060
  %_122000061 = getelementptr { { ptr }, i32, i32, i32, i32, ptr }, { { ptr }, i32, i32, i32, i32, ptr }* %_2, i32 0, i32 1
  %_46000001 = load i32, ptr %_122000061
  %_47000001 = call dereferenceable_or_null(32) ptr @"_SM16java.lang.ObjectD8getClassL15java.lang.ClassEO"(ptr dereferenceable_or_null(56) %_3)
  %_47000003 = icmp eq ptr %_47000001, @"_SM23java.nio.HeapByteBufferG4type"
  br i1 %_47000003, label %_48000000.0, label %_49000000.0
_49000000.0:
  %_49000002 = icmp eq ptr %_47000001, @"_SM23java.nio.HeapCharBufferG4type"
  br label %_50000000.0
_48000000.0:
  %_122000063 = icmp ne ptr %_3, null
  br i1 %_122000063, label %_122000062.0, label %_122000008.0
_122000062.0:
  %_122000064 = getelementptr { { ptr }, i32, i32, i32, i32, ptr, i32, ptr, i1 }, { { ptr }, i32, i32, i32, i32, ptr, i32, ptr, i1 }* %_3, i32 0, i32 7
  %_48000001 = load ptr, ptr %_122000064, !dereferenceable_or_null !{i64 16}
  br label %_51000000.0
_50000000.0:
  %_50000002 = bitcast ptr %_3 to ptr
  %_122000066 = icmp ne ptr %_50000002, null
  br i1 %_122000066, label %_122000065.0, label %_122000008.0
_122000065.0:
  %_122000067 = getelementptr { { ptr }, i32, i32, i32, i32, ptr, i32, ptr }, { { ptr }, i32, i32, i32, i32, ptr, i32, ptr }* %_50000002, i32 0, i32 7
  %_50000003 = load ptr, ptr %_122000067, !dereferenceable_or_null !{i64 16}
  br label %_51000000.0
_51000000.0:
  %_51000001 = phi ptr [%_50000003, %_122000065.0], [%_48000001, %_122000062.0]
  %_51000003 = icmp eq ptr %_51000001, null
  br i1 %_51000003, label %_52000000.0, label %_53000000.0
_53000000.0:
  br label %_54000000.0
_54000000.0:
  %_54000002 = bitcast ptr %_3 to ptr
  %_122000069 = icmp ne ptr %_54000002, null
  br i1 %_122000069, label %_122000068.0, label %_122000008.0
_122000068.0:
  %_122000070 = getelementptr { { ptr }, i32, i32, i32, i32, ptr, i32, ptr, i1, i1 }, { { ptr }, i32, i32, i32, i32, ptr, i32, ptr, i1, i1 }* %_54000002, i32 0, i32 9
  %_122000071 = load i8, ptr %_122000070
  %_54000003 = trunc i8 %_122000071 to i1
  br i1 %_54000003, label %_55000000.0, label %_56000000.0
_56000000.0:
  br label %_57000000.0
_52000000.0:
  br label %_58000000.0
_58000000.0:
  %_58000002 = call dereferenceable_or_null(40) ptr @"scalanative_GC_alloc_small"(ptr @"_SM39java.lang.UnsupportedOperationExceptionG4type", i64 40)
  %_122000073 = getelementptr { { ptr }, ptr, ptr, ptr, i1, i1 }, { { ptr }, ptr, ptr, ptr, i1, i1 }* %_58000002, i32 0, i32 5
  %_122000074 = zext i1 true to i8
  store i8 %_122000074, ptr%_122000073, align 1
  %_122000076 = getelementptr { { ptr }, ptr, ptr, ptr, i1, i1 }, { { ptr }, ptr, ptr, ptr, i1, i1 }* %_58000002, i32 0, i32 4
  %_122000077 = zext i1 true to i8
  store i8 %_122000077, ptr%_122000076, align 1
  %_58000005 = call dereferenceable_or_null(40) ptr @"_SM19java.lang.ThrowableD16fillInStackTraceL19java.lang.ThrowableEO"(ptr nonnull dereferenceable(40) %_58000002)
  br label %_59000000.0
_55000000.0:
  br label %_60000000.0
_60000000.0:
  %_60000002 = call dereferenceable_or_null(40) ptr @"scalanative_GC_alloc_small"(ptr @"_SM32java.nio.ReadOnlyBufferExceptionG4type", i64 40)
  %_122000079 = getelementptr { { ptr }, ptr, ptr, ptr, i1, i1 }, { { ptr }, ptr, ptr, ptr, i1, i1 }* %_60000002, i32 0, i32 5
  %_122000080 = zext i1 true to i8
  store i8 %_122000080, ptr%_122000079, align 1
  %_122000082 = getelementptr { { ptr }, ptr, ptr, ptr, i1, i1 }, { { ptr }, ptr, ptr, ptr, i1, i1 }* %_60000002, i32 0, i32 4
  %_122000083 = zext i1 true to i8
  store i8 %_122000083, ptr%_122000082, align 1
  %_60000005 = call dereferenceable_or_null(40) ptr @"_SM19java.lang.ThrowableD16fillInStackTraceL19java.lang.ThrowableEO"(ptr nonnull dereferenceable(40) %_60000002)
  br label %_61000000.0
_59000000.0:
  call ptr @"scalanative_throw"(ptr nonnull dereferenceable(40) %_58000002)
  unreachable
_61000000.0:
  call ptr @"scalanative_throw"(ptr nonnull dereferenceable(40) %_60000002)
  unreachable
_57000000.0:
  %_122000088 = icmp eq ptr %_51000001, null
  br i1 %_122000088, label %_122000087.0, label %_122000086.0
_122000086.0:
  %_122000089 = load ptr, ptr %_51000001
  %_122000090 = icmp eq ptr %_122000089, @"_SM35scala.scalanative.runtime.ByteArrayG4type"
  br i1 %_122000090, label %_122000087.0, label %_122000034.0
_122000087.0:
  %_62000001 = call dereferenceable_or_null(32) ptr @"_SM16java.lang.ObjectD8getClassL15java.lang.ClassEO"(ptr dereferenceable_or_null(56) %_3)
  %_62000003 = icmp eq ptr %_62000001, @"_SM23java.nio.HeapByteBufferG4type"
  br i1 %_62000003, label %_63000000.0, label %_64000000.0
_64000000.0:
  %_64000002 = icmp eq ptr %_62000001, @"_SM23java.nio.HeapCharBufferG4type"
  br label %_65000000.0
_63000000.0:
  %_122000091 = getelementptr { { ptr }, i32, i32, i32, i32, ptr, i32, ptr, i1 }, { { ptr }, i32, i32, i32, i32, ptr, i32, ptr, i1 }* %_3, i32 0, i32 6
  %_63000001 = load i32, ptr %_122000091
  br label %_66000000.0
_65000000.0:
  %_65000002 = bitcast ptr %_3 to ptr
  %_122000093 = icmp ne ptr %_65000002, null
  br i1 %_122000093, label %_122000092.0, label %_122000008.0
_122000092.0:
  %_122000094 = getelementptr { { ptr }, i32, i32, i32, i32, ptr, i32, ptr }, { { ptr }, i32, i32, i32, i32, ptr, i32, ptr }* %_65000002, i32 0, i32 6
  %_65000003 = load i32, ptr %_122000094
  br label %_66000000.0
_66000000.0:
  %_66000001 = phi i32 [%_65000003, %_122000092.0], [%_63000001, %_63000000.0]
  %_66000003 = icmp eq i32 %_66000001, -1
  br i1 %_66000003, label %_67000000.0, label %_68000000.0
_68000000.0:
  br label %_69000000.0
_69000000.0:
  %_122000095 = getelementptr { { ptr }, i32, i32, i32, i32, ptr, i32, ptr, i1, i1 }, { { ptr }, i32, i32, i32, i32, ptr, i32, ptr, i1, i1 }* %_54000002, i32 0, i32 9
  %_122000096 = load i8, ptr %_122000095
  %_69000002 = trunc i8 %_122000096 to i1
  br i1 %_69000002, label %_70000000.0, label %_71000000.0
_71000000.0:
  br label %_72000000.0
_67000000.0:
  br label %_73000000.0
_73000000.0:
  %_73000002 = call dereferenceable_or_null(40) ptr @"scalanative_GC_alloc_small"(ptr @"_SM39java.lang.UnsupportedOperationExceptionG4type", i64 40)
  %_122000098 = getelementptr { { ptr }, ptr, ptr, ptr, i1, i1 }, { { ptr }, ptr, ptr, ptr, i1, i1 }* %_73000002, i32 0, i32 5
  %_122000099 = zext i1 true to i8
  store i8 %_122000099, ptr%_122000098, align 1
  %_122000101 = getelementptr { { ptr }, ptr, ptr, ptr, i1, i1 }, { { ptr }, ptr, ptr, ptr, i1, i1 }* %_73000002, i32 0, i32 4
  %_122000102 = zext i1 true to i8
  store i8 %_122000102, ptr%_122000101, align 1
  %_73000005 = call dereferenceable_or_null(40) ptr @"_SM19java.lang.ThrowableD16fillInStackTraceL19java.lang.ThrowableEO"(ptr nonnull dereferenceable(40) %_73000002)
  br label %_74000000.0
_70000000.0:
  br label %_75000000.0
_75000000.0:
  %_75000002 = call dereferenceable_or_null(40) ptr @"scalanative_GC_alloc_small"(ptr @"_SM32java.nio.ReadOnlyBufferExceptionG4type", i64 40)
  %_122000104 = getelementptr { { ptr }, ptr, ptr, ptr, i1, i1 }, { { ptr }, ptr, ptr, ptr, i1, i1 }* %_75000002, i32 0, i32 5
  %_122000105 = zext i1 true to i8
  store i8 %_122000105, ptr%_122000104, align 1
  %_122000107 = getelementptr { { ptr }, ptr, ptr, ptr, i1, i1 }, { { ptr }, ptr, ptr, ptr, i1, i1 }* %_75000002, i32 0, i32 4
  %_122000108 = zext i1 true to i8
  store i8 %_122000108, ptr%_122000107, align 1
  %_75000005 = call dereferenceable_or_null(40) ptr @"_SM19java.lang.ThrowableD16fillInStackTraceL19java.lang.ThrowableEO"(ptr nonnull dereferenceable(40) %_75000002)
  br label %_76000000.0
_74000000.0:
  call ptr @"scalanative_throw"(ptr nonnull dereferenceable(40) %_73000002)
  unreachable
_76000000.0:
  call ptr @"scalanative_throw"(ptr nonnull dereferenceable(40) %_75000002)
  unreachable
_72000000.0:
  %_122000111 = getelementptr { { ptr }, i32, i32, i32, i32, ptr }, { { ptr }, i32, i32, i32, i32, ptr }* %_3, i32 0, i32 4
  %_77000001 = load i32, ptr %_122000111
  %_122000112 = getelementptr { { ptr }, i32, i32, i32, i32, ptr }, { { ptr }, i32, i32, i32, i32, ptr }* %_3, i32 0, i32 1
  %_78000001 = load i32, ptr %_122000112
  %_79000001 = add i32 %_77000001, %_66000001
  %_79000002 = add i32 %_45000001, %_29000001
  %_79000003 = add i32 %_78000001, %_66000001
  %_79000004 = add i32 %_46000001, %_29000001
  br label %_80000000.0
_80000000.0:
  %_80000001 = phi i32 [%_79000001, %_72000000.0], [%_80000001, %_91000000.0]
  %_80000002 = phi i32 [%_79000002, %_72000000.0], [%_80000002, %_91000000.0]
  %_80000003 = phi i32 [%_79000003, %_72000000.0], [%_80000003, %_91000000.0]
  %_80000004 = phi i32 [%_79000004, %_72000000.0], [%_80000004, %_91000000.0]
  %_80000005 = phi i32 [%_79000001, %_72000000.0], [%_91000001, %_91000000.0]
  %_80000006 = phi i32 [%_79000002, %_72000000.0], [%_91000002, %_91000000.0]
  br label %_81000000.0
_81000000.0:
  br label %_82000000.0
_82000000.0:
  %_82000002 = icmp eq i32 %_80000006, %_80000004
  br i1 %_82000002, label %_83000000.0, label %_84000000.0
_83000000.0:
  %_83000001 = call dereferenceable_or_null(104) ptr @"_SM29java.nio.charset.CoderResult$G4load"()
  %_122000113 = getelementptr { { ptr }, ptr, ptr, ptr, ptr, ptr, ptr, ptr, ptr, ptr, ptr, ptr, ptr }, { { ptr }, ptr, ptr, ptr, ptr, ptr, ptr, ptr, ptr, ptr, ptr, ptr, ptr }* %_83000001, i32 0, i32 12
  %_83000002 = load ptr, ptr %_122000113, !dereferenceable_or_null !{i64 16}
  %_83000004 = sub i32 %_80000006, %_29000001
  %_83000005 = call dereferenceable_or_null(32) ptr @"_SM15java.nio.BufferD8positioniL15java.nio.BufferEO"(ptr dereferenceable_or_null(48) %_2, i32 %_83000004)
  %_83000007 = sub i32 %_80000005, %_66000001
  %_83000008 = call dereferenceable_or_null(32) ptr @"_SM15java.nio.BufferD8positioniL15java.nio.BufferEO"(ptr dereferenceable_or_null(56) %_3, i32 %_83000007)
  br label %_85000000.0
_84000000.0:
  %_122000116 = icmp ne ptr %_9000001, null
  br i1 %_122000116, label %_122000115.0, label %_122000008.0
_122000115.0:
  %_122000117 = getelementptr { ptr, i32, i32 }, { ptr, i32, i32 }* %_9000001, i32 0, i32 1
  %_122000114 = load i32, ptr %_122000117
  %_122000120 = icmp sge i32 %_80000006, 0
  %_122000121 = icmp slt i32 %_80000006, %_122000114
  %_122000122 = and i1 %_122000120, %_122000121
  br i1 %_122000122, label %_122000118.0, label %_122000119.0
_122000118.0:
  %_122000123 = getelementptr { { ptr, i32, i32 }, [0 x i16] }, { { ptr, i32, i32 }, [0 x i16] }* %_9000001, i32 0, i32 1, i32 %_80000006
  %_84000001 = load i16, ptr %_122000123
  %_84000004 = zext i16 %_84000001 to i32
  %_84000005 = icmp slt i32 %_84000004, 128
  br i1 %_84000005, label %_86000000.0, label %_87000000.0
_86000000.0:
  %_86000002 = icmp eq i32 %_80000005, %_80000003
  br i1 %_86000002, label %_88000000.0, label %_89000000.0
_88000000.0:
  %_88000001 = call dereferenceable_or_null(104) ptr @"_SM29java.nio.charset.CoderResult$G4load"()
  %_122000124 = getelementptr { { ptr }, ptr, ptr, ptr, ptr, ptr, ptr, ptr, ptr, ptr, ptr, ptr, ptr }, { { ptr }, ptr, ptr, ptr, ptr, ptr, ptr, ptr, ptr, ptr, ptr, ptr, ptr }* %_88000001, i32 0, i32 1
  %_88000002 = load ptr, ptr %_122000124, !dereferenceable_or_null !{i64 16}
  %_88000004 = sub i32 %_80000006, %_29000001
  %_88000005 = call dereferenceable_or_null(32) ptr @"_SM15java.nio.BufferD8positioniL15java.nio.BufferEO"(ptr dereferenceable_or_null(48) %_2, i32 %_88000004)
  %_88000007 = sub i32 %_80000005, %_66000001
  %_88000008 = call dereferenceable_or_null(32) ptr @"_SM15java.nio.BufferD8positioniL15java.nio.BufferEO"(ptr dereferenceable_or_null(56) %_3, i32 %_88000007)
  br label %_90000000.0
_89000000.0:
  %_89000002 = trunc i16 %_84000001 to i8
  %_122000128 = icmp ne ptr %_51000001, null
  br i1 %_122000128, label %_122000127.0, label %_122000008.0
_122000127.0:
  %_122000129 = getelementptr { ptr, i32, i32 }, { ptr, i32, i32 }* %_51000001, i32 0, i32 1
  %_122000126 = load i32, ptr %_122000129
  %_122000131 = icmp sge i32 %_80000005, 0
  %_122000132 = icmp slt i32 %_80000005, %_122000126
  %_122000133 = and i1 %_122000131, %_122000132
  br i1 %_122000133, label %_122000130.0, label %_122000119.0
_122000130.0:
  %_122000134 = getelementptr { { ptr, i32, i32 }, [0 x i8] }, { { ptr, i32, i32 }, [0 x i8] }* %_51000001, i32 0, i32 1, i32 %_80000005
  store i8 %_89000002, ptr%_122000134, align 1
  %_89000006 = add i32 %_80000005, 1
  %_89000007 = add i32 %_80000006, 1
  br label %_91000000.0
_90000000.0:
  br label %_92000000.0
_87000000.0:
  %_87000002 = icmp slt i32 %_84000004, 2048
  br i1 %_87000002, label %_93000000.0, label %_94000000.0
_93000000.0:
  %_93000003 = add i32 %_80000005, 2
  %_93000004 = icmp sgt i32 %_93000003, %_80000003
  br i1 %_93000004, label %_95000000.0, label %_96000000.0
_95000000.0:
  %_95000001 = call dereferenceable_or_null(104) ptr @"_SM29java.nio.charset.CoderResult$G4load"()
  %_122000135 = getelementptr { { ptr }, ptr, ptr, ptr, ptr, ptr, ptr, ptr, ptr, ptr, ptr, ptr, ptr }, { { ptr }, ptr, ptr, ptr, ptr, ptr, ptr, ptr, ptr, ptr, ptr, ptr, ptr }* %_95000001, i32 0, i32 1
  %_95000002 = load ptr, ptr %_122000135, !dereferenceable_or_null !{i64 16}
  %_95000004 = sub i32 %_80000006, %_29000001
  %_95000005 = call dereferenceable_or_null(32) ptr @"_SM15java.nio.BufferD8positioniL15java.nio.BufferEO"(ptr dereferenceable_or_null(48) %_2, i32 %_95000004)
  %_95000007 = sub i32 %_80000005, %_66000001
  %_95000008 = call dereferenceable_or_null(32) ptr @"_SM15java.nio.BufferD8positioniL15java.nio.BufferEO"(ptr dereferenceable_or_null(56) %_3, i32 %_95000007)
  br label %_97000000.0
_96000000.0:
  %_122000136 = and i32 6, 31
  %_96000004 = ashr i32 %_84000004, %_122000136
  %_96000005 = or i32 %_96000004, 192
  %_96000006 = trunc i32 %_96000005 to i8
  %_122000139 = getelementptr { ptr, i32, i32 }, { ptr, i32, i32 }* %_51000001, i32 0, i32 1
  %_122000138 = load i32, ptr %_122000139
  %_122000141 = icmp sge i32 %_80000005, 0
  %_122000142 = icmp slt i32 %_80000005, %_122000138
  %_122000143 = and i1 %_122000141, %_122000142
  br i1 %_122000143, label %_122000140.0, label %_122000119.0
_122000140.0:
  %_122000144 = getelementptr { { ptr, i32, i32 }, [0 x i8] }, { { ptr, i32, i32 }, [0 x i8] }* %_51000001, i32 0, i32 1, i32 %_80000005
  store i8 %_96000006, ptr%_122000144, align 1
  %_96000012 = add i32 %_80000005, 1
  %_96000013 = and i32 %_84000004, 63
  %_96000014 = or i32 %_96000013, 128
  %_96000015 = trunc i32 %_96000014 to i8
  %_122000147 = getelementptr { ptr, i32, i32 }, { ptr, i32, i32 }* %_51000001, i32 0, i32 1
  %_122000146 = load i32, ptr %_122000147
  %_122000149 = icmp sge i32 %_96000012, 0
  %_122000150 = icmp slt i32 %_96000012, %_122000146
  %_122000151 = and i1 %_122000149, %_122000150
  br i1 %_122000151, label %_122000148.0, label %_122000119.0
_122000148.0:
  %_122000152 = getelementptr { { ptr, i32, i32 }, [0 x i8] }, { { ptr, i32, i32 }, [0 x i8] }* %_51000001, i32 0, i32 1, i32 %_96000012
  store i8 %_96000015, ptr%_122000152, align 1
  %_96000018 = add i32 %_80000006, 1
  br label %_91000000.0
_97000000.0:
  br label %_98000000.0
_94000000.0:
  %_94000004 = and i32 %_84000004, 63488
  %_94000005 = icmp eq i32 %_94000004, 55296
  %_94000006 = xor i1 %_94000005, true
  br i1 %_94000006, label %_99000000.0, label %_100000000.0
_99000000.0:
  %_99000003 = add i32 %_80000005, 3
  %_99000004 = icmp sgt i32 %_99000003, %_80000003
  br i1 %_99000004, label %_101000000.0, label %_102000000.0
_101000000.0:
  %_101000001 = call dereferenceable_or_null(104) ptr @"_SM29java.nio.charset.CoderResult$G4load"()
  %_122000153 = getelementptr { { ptr }, ptr, ptr, ptr, ptr, ptr, ptr, ptr, ptr, ptr, ptr, ptr, ptr }, { { ptr }, ptr, ptr, ptr, ptr, ptr, ptr, ptr, ptr, ptr, ptr, ptr, ptr }* %_101000001, i32 0, i32 1
  %_101000002 = load ptr, ptr %_122000153, !dereferenceable_or_null !{i64 16}
  %_101000004 = sub i32 %_80000006, %_29000001
  %_101000005 = call dereferenceable_or_null(32) ptr @"_SM15java.nio.BufferD8positioniL15java.nio.BufferEO"(ptr dereferenceable_or_null(48) %_2, i32 %_101000004)
  %_101000007 = sub i32 %_80000005, %_66000001
  %_101000008 = call dereferenceable_or_null(32) ptr @"_SM15java.nio.BufferD8positioniL15java.nio.BufferEO"(ptr dereferenceable_or_null(56) %_3, i32 %_101000007)
  br label %_103000000.0
_102000000.0:
  %_122000154 = and i32 12, 31
  %_102000004 = ashr i32 %_84000004, %_122000154
  %_102000005 = or i32 %_102000004, 224
  %_102000006 = trunc i32 %_102000005 to i8
  %_122000157 = getelementptr { ptr, i32, i32 }, { ptr, i32, i32 }* %_51000001, i32 0, i32 1
  %_122000156 = load i32, ptr %_122000157
  %_122000159 = icmp sge i32 %_80000005, 0
  %_122000160 = icmp slt i32 %_80000005, %_122000156
  %_122000161 = and i1 %_122000159, %_122000160
  br i1 %_122000161, label %_122000158.0, label %_122000119.0
_122000158.0:
  %_122000162 = getelementptr { { ptr, i32, i32 }, [0 x i8] }, { { ptr, i32, i32 }, [0 x i8] }* %_51000001, i32 0, i32 1, i32 %_80000005
  store i8 %_102000006, ptr%_122000162, align 1
  %_102000013 = add i32 %_80000005, 1
  %_122000163 = and i32 6, 31
  %_102000014 = ashr i32 %_84000004, %_122000163
  %_102000015 = and i32 %_102000014, 63
  %_102000016 = or i32 %_102000015, 128
  %_102000017 = trunc i32 %_102000016 to i8
  %_122000166 = getelementptr { ptr, i32, i32 }, { ptr, i32, i32 }* %_51000001, i32 0, i32 1
  %_122000165 = load i32, ptr %_122000166
  %_122000168 = icmp sge i32 %_102000013, 0
  %_122000169 = icmp slt i32 %_102000013, %_122000165
  %_122000170 = and i1 %_122000168, %_122000169
  br i1 %_122000170, label %_122000167.0, label %_122000119.0
_122000167.0:
  %_122000171 = getelementptr { { ptr, i32, i32 }, [0 x i8] }, { { ptr, i32, i32 }, [0 x i8] }* %_51000001, i32 0, i32 1, i32 %_102000013
  store i8 %_102000017, ptr%_122000171, align 1
  %_102000023 = add i32 %_80000005, 2
  %_102000024 = and i32 %_84000004, 63
  %_102000025 = or i32 %_102000024, 128
  %_102000026 = trunc i32 %_102000025 to i8
  %_122000174 = getelementptr { ptr, i32, i32 }, { ptr, i32, i32 }* %_51000001, i32 0, i32 1
  %_122000173 = load i32, ptr %_122000174
  %_122000176 = icmp sge i32 %_102000023, 0
  %_122000177 = icmp slt i32 %_102000023, %_122000173
  %_122000178 = and i1 %_122000176, %_122000177
  br i1 %_122000178, label %_122000175.0, label %_122000119.0
_122000175.0:
  %_122000179 = getelementptr { { ptr, i32, i32 }, [0 x i8] }, { { ptr, i32, i32 }, [0 x i8] }* %_51000001, i32 0, i32 1, i32 %_102000023
  store i8 %_102000026, ptr%_122000179, align 1
  %_102000029 = add i32 %_80000006, 1
  br label %_91000000.0
_103000000.0:
  br label %_104000000.0
_100000000.0:
  %_100000003 = and i32 %_84000004, 64512
  %_100000004 = icmp eq i32 %_100000003, 55296
  br i1 %_100000004, label %_105000000.0, label %_106000000.0
_105000000.0:
  %_105000003 = add i32 %_80000006, 1
  %_105000004 = icmp eq i32 %_105000003, %_80000004
  br i1 %_105000004, label %_107000000.0, label %_108000000.0
_107000000.0:
  %_107000001 = call dereferenceable_or_null(104) ptr @"_SM29java.nio.charset.CoderResult$G4load"()
  %_122000180 = getelementptr { { ptr }, ptr, ptr, ptr, ptr, ptr, ptr, ptr, ptr, ptr, ptr, ptr, ptr }, { { ptr }, ptr, ptr, ptr, ptr, ptr, ptr, ptr, ptr, ptr, ptr, ptr, ptr }* %_107000001, i32 0, i32 12
  %_107000002 = load ptr, ptr %_122000180, !dereferenceable_or_null !{i64 16}
  %_107000004 = sub i32 %_80000006, %_29000001
  %_107000005 = call dereferenceable_or_null(32) ptr @"_SM15java.nio.BufferD8positioniL15java.nio.BufferEO"(ptr dereferenceable_or_null(48) %_2, i32 %_107000004)
  %_107000007 = sub i32 %_80000005, %_66000001
  %_107000008 = call dereferenceable_or_null(32) ptr @"_SM15java.nio.BufferD8positioniL15java.nio.BufferEO"(ptr dereferenceable_or_null(56) %_3, i32 %_107000007)
  br label %_109000000.0
_108000000.0:
  %_122000182 = getelementptr { ptr, i32, i32 }, { ptr, i32, i32 }* %_9000001, i32 0, i32 1
  %_122000181 = load i32, ptr %_122000182
  %_122000184 = icmp sge i32 %_105000003, 0
  %_122000185 = icmp slt i32 %_105000003, %_122000181
  %_122000186 = and i1 %_122000184, %_122000185
  br i1 %_122000186, label %_122000183.0, label %_122000119.0
_122000183.0:
  %_122000187 = getelementptr { { ptr, i32, i32 }, [0 x i16] }, { { ptr, i32, i32 }, [0 x i16] }* %_9000001, i32 0, i32 1, i32 %_105000003
  %_108000001 = load i16, ptr %_122000187
  %_108000006 = zext i16 %_108000001 to i32
  %_108000007 = and i32 %_108000006, 64512
  %_108000008 = icmp eq i32 %_108000007, 56320
  %_108000009 = xor i1 %_108000008, true
  br i1 %_108000009, label %_110000000.0, label %_111000000.0
_110000000.0:
  %_110000001 = call dereferenceable_or_null(104) ptr @"_SM29java.nio.charset.CoderResult$G4load"()
  br label %_112000000.0
_112000000.0:
  br label %_113000000.0
_113000000.0:
  %_122000188 = getelementptr { { ptr }, ptr, ptr, ptr, ptr, ptr, ptr, ptr, ptr, ptr, ptr, ptr, ptr }, { { ptr }, ptr, ptr, ptr, ptr, ptr, ptr, ptr, ptr, ptr, ptr, ptr, ptr }* %_110000001, i32 0, i32 5
  %_113000001 = load ptr, ptr %_122000188, !dereferenceable_or_null !{i64 16}
  br label %_114000000.0
_114000000.0:
  %_114000002 = sub i32 %_80000006, %_29000001
  %_114000003 = call dereferenceable_or_null(32) ptr @"_SM15java.nio.BufferD8positioniL15java.nio.BufferEO"(ptr dereferenceable_or_null(48) %_2, i32 %_114000002)
  %_114000005 = sub i32 %_80000005, %_66000001
  %_114000006 = call dereferenceable_or_null(32) ptr @"_SM15java.nio.BufferD8positioniL15java.nio.BufferEO"(ptr dereferenceable_or_null(56) %_3, i32 %_114000005)
  br label %_115000000.0
_111000000.0:
  %_111000003 = add i32 %_80000005, 4
  %_111000004 = icmp sgt i32 %_111000003, %_80000003
  br i1 %_111000004, label %_116000000.0, label %_117000000.0
_116000000.0:
  %_116000001 = call dereferenceable_or_null(104) ptr @"_SM29java.nio.charset.CoderResult$G4load"()
  %_122000189 = getelementptr { { ptr }, ptr, ptr, ptr, ptr, ptr, ptr, ptr, ptr, ptr, ptr, ptr, ptr }, { { ptr }, ptr, ptr, ptr, ptr, ptr, ptr, ptr, ptr, ptr, ptr, ptr, ptr }* %_116000001, i32 0, i32 1
  %_116000002 = load ptr, ptr %_122000189, !dereferenceable_or_null !{i64 16}
  %_116000004 = sub i32 %_80000006, %_29000001
  %_116000005 = call dereferenceable_or_null(32) ptr @"_SM15java.nio.BufferD8positioniL15java.nio.BufferEO"(ptr dereferenceable_or_null(48) %_2, i32 %_116000004)
  %_116000007 = sub i32 %_80000005, %_66000001
  %_116000008 = call dereferenceable_or_null(32) ptr @"_SM15java.nio.BufferD8positioniL15java.nio.BufferEO"(ptr dereferenceable_or_null(56) %_3, i32 %_116000007)
  br label %_118000000.0
_117000000.0:
  %_117000009 = and i32 %_84000004, 1023
  %_122000190 = and i32 10, 31
  %_117000010 = shl i32 %_117000009, %_122000190
  %_117000011 = and i32 %_108000006, 1023
  %_117000012 = add i32 %_117000010, %_117000011
  %_117000013 = add i32 %_117000012, 65536
  %_122000191 = and i32 18, 31
  %_117000014 = ashr i32 %_117000013, %_122000191
  %_117000015 = or i32 %_117000014, 240
  %_117000016 = trunc i32 %_117000015 to i8
  %_122000194 = getelementptr { ptr, i32, i32 }, { ptr, i32, i32 }* %_51000001, i32 0, i32 1
  %_122000193 = load i32, ptr %_122000194
  %_122000196 = icmp sge i32 %_80000005, 0
  %_122000197 = icmp slt i32 %_80000005, %_122000193
  %_122000198 = and i1 %_122000196, %_122000197
  br i1 %_122000198, label %_122000195.0, label %_122000119.0
_122000195.0:
  %_122000199 = getelementptr { { ptr, i32, i32 }, [0 x i8] }, { { ptr, i32, i32 }, [0 x i8] }* %_51000001, i32 0, i32 1, i32 %_80000005
  store i8 %_117000016, ptr%_122000199, align 1
  %_117000023 = add i32 %_80000005, 1
  %_122000200 = and i32 12, 31
  %_117000024 = ashr i32 %_117000013, %_122000200
  %_117000025 = and i32 %_117000024, 63
  %_117000026 = or i32 %_117000025, 128
  %_117000027 = trunc i32 %_117000026 to i8
  %_122000203 = getelementptr { ptr, i32, i32 }, { ptr, i32, i32 }* %_51000001, i32 0, i32 1
  %_122000202 = load i32, ptr %_122000203
  %_122000205 = icmp sge i32 %_117000023, 0
  %_122000206 = icmp slt i32 %_117000023, %_122000202
  %_122000207 = and i1 %_122000205, %_122000206
  br i1 %_122000207, label %_122000204.0, label %_122000119.0
_122000204.0:
  %_122000208 = getelementptr { { ptr, i32, i32 }, [0 x i8] }, { { ptr, i32, i32 }, [0 x i8] }* %_51000001, i32 0, i32 1, i32 %_117000023
  store i8 %_117000027, ptr%_122000208, align 1
  %_117000034 = add i32 %_80000005, 2
  %_122000209 = and i32 6, 31
  %_117000035 = ashr i32 %_117000013, %_122000209
  %_117000036 = and i32 %_117000035, 63
  %_117000037 = or i32 %_117000036, 128
  %_117000038 = trunc i32 %_117000037 to i8
  %_122000212 = getelementptr { ptr, i32, i32 }, { ptr, i32, i32 }* %_51000001, i32 0, i32 1
  %_122000211 = load i32, ptr %_122000212
  %_122000214 = icmp sge i32 %_117000034, 0
  %_122000215 = icmp slt i32 %_117000034, %_122000211
  %_122000216 = and i1 %_122000214, %_122000215
  br i1 %_122000216, label %_122000213.0, label %_122000119.0
_122000213.0:
  %_122000217 = getelementptr { { ptr, i32, i32 }, [0 x i8] }, { { ptr, i32, i32 }, [0 x i8] }* %_51000001, i32 0, i32 1, i32 %_117000034
  store i8 %_117000038, ptr%_122000217, align 1
  %_117000044 = add i32 %_80000005, 3
  %_117000045 = and i32 %_117000013, 63
  %_117000046 = or i32 %_117000045, 128
  %_117000047 = trunc i32 %_117000046 to i8
  %_122000220 = getelementptr { ptr, i32, i32 }, { ptr, i32, i32 }* %_51000001, i32 0, i32 1
  %_122000219 = load i32, ptr %_122000220
  %_122000222 = icmp sge i32 %_117000044, 0
  %_122000223 = icmp slt i32 %_117000044, %_122000219
  %_122000224 = and i1 %_122000222, %_122000223
  br i1 %_122000224, label %_122000221.0, label %_122000119.0
_122000221.0:
  %_122000225 = getelementptr { { ptr, i32, i32 }, [0 x i8] }, { { ptr, i32, i32 }, [0 x i8] }* %_51000001, i32 0, i32 1, i32 %_117000044
  store i8 %_117000047, ptr%_122000225, align 1
  %_117000050 = add i32 %_80000006, 2
  br label %_91000000.0
_118000000.0:
  br label %_115000000.0
_115000000.0:
  %_115000001 = phi ptr [%_116000002, %_118000000.0], [%_113000001, %_114000000.0]
  br label %_109000000.0
_109000000.0:
  %_109000001 = phi ptr [%_115000001, %_115000000.0], [%_107000002, %_107000000.0]
  br label %_119000000.0
_106000000.0:
  %_106000001 = call dereferenceable_or_null(104) ptr @"_SM29java.nio.charset.CoderResult$G4load"()
  br label %_120000000.0
_120000000.0:
  br label %_121000000.0
_121000000.0:
  %_122000226 = getelementptr { { ptr }, ptr, ptr, ptr, ptr, ptr, ptr, ptr, ptr, ptr, ptr, ptr, ptr }, { { ptr }, ptr, ptr, ptr, ptr, ptr, ptr, ptr, ptr, ptr, ptr, ptr, ptr }* %_106000001, i32 0, i32 5
  %_121000001 = load ptr, ptr %_122000226, !dereferenceable_or_null !{i64 16}
  br label %_122000000.0
_122000000.0:
  %_122000002 = sub i32 %_80000006, %_29000001
  %_122000003 = call dereferenceable_or_null(32) ptr @"_SM15java.nio.BufferD8positioniL15java.nio.BufferEO"(ptr dereferenceable_or_null(48) %_2, i32 %_122000002)
  %_122000005 = sub i32 %_80000005, %_66000001
  %_122000006 = call dereferenceable_or_null(32) ptr @"_SM15java.nio.BufferD8positioniL15java.nio.BufferEO"(ptr dereferenceable_or_null(56) %_3, i32 %_122000005)
  br label %_119000000.0
_119000000.0:
  %_119000001 = phi ptr [%_121000001, %_122000000.0], [%_109000001, %_109000000.0]
  br label %_104000000.0
_104000000.0:
  %_104000001 = phi ptr [%_119000001, %_119000000.0], [%_101000002, %_103000000.0]
  br label %_98000000.0
_98000000.0:
  %_98000001 = phi ptr [%_104000001, %_104000000.0], [%_95000002, %_97000000.0]
  br label %_92000000.0
_92000000.0:
  %_92000001 = phi ptr [%_98000001, %_98000000.0], [%_88000002, %_90000000.0]
  br label %_85000000.0
_91000000.0:
  %_91000001 = phi i32 [%_111000003, %_122000221.0], [%_99000003, %_122000175.0], [%_93000003, %_122000148.0], [%_89000006, %_122000130.0]
  %_91000002 = phi i32 [%_117000050, %_122000221.0], [%_102000029, %_122000175.0], [%_96000018, %_122000148.0], [%_89000007, %_122000130.0]
  br label %_80000000.0
_85000000.0:
  %_85000001 = phi ptr [%_92000001, %_92000000.0], [%_83000002, %_83000000.0]
  ret ptr %_85000001
_122000008.0:
  call ptr @"_SM34scala.scalanative.runtime.package$D16throwNullPointernEO"(ptr null)
  unreachable
_122000034.0:
  %_122000228 = phi ptr [%_9000001, %_122000032.0], [%_51000001, %_122000086.0]
  %_122000229 = phi ptr [@"_SM35scala.scalanative.runtime.CharArrayG4type", %_122000032.0], [@"_SM35scala.scalanative.runtime.ByteArrayG4type", %_122000086.0]
  %_122000230 = load ptr, ptr %_122000228
  call ptr @"_SM34scala.scalanative.runtime.package$D14throwClassCastR_R_nEO"(ptr null, ptr %_122000230, ptr %_122000229)
  unreachable
_122000119.0:
  %_122000232 = phi i32 [%_80000006, %_122000115.0], [%_105000003, %_108000000.0], [%_80000005, %_117000000.0], [%_117000023, %_122000195.0], [%_117000034, %_122000204.0], [%_117000044, %_122000213.0], [%_80000005, %_102000000.0], [%_102000013, %_122000158.0], [%_102000023, %_122000167.0], [%_80000005, %_96000000.0], [%_96000012, %_122000140.0], [%_80000005, %_122000127.0]
  %_122000233 = phi i32 [%_122000114, %_122000115.0], [%_122000181, %_108000000.0], [%_122000193, %_117000000.0], [%_122000202, %_122000195.0], [%_122000211, %_122000204.0], [%_122000219, %_122000213.0], [%_122000156, %_102000000.0], [%_122000165, %_122000158.0], [%_122000173, %_122000167.0], [%_122000138, %_96000000.0], [%_122000146, %_122000140.0], [%_122000126, %_122000127.0]
  call ptr @"_SM34scala.scalanative.runtime.package$D16throwOutOfBoundsiinEO"(ptr null, i32 %_122000232, i32 %_122000233)
  unreachable
}

define dereferenceable_or_null(16) ptr @"_SM24niocharset.UTF_8$EncoderD17encodeLoopNoArrayL19java.nio.CharBufferL19java.nio.ByteBufferL28java.nio.charset.CoderResultEPT24niocharset.UTF_8$Encoder"(ptr %_1, ptr %_2, ptr %_3) personality ptr @__gxx_personality_v0 {
_4000000.0:
  br label %_6000000.0
_6000000.0:
  br label %_7000000.0
_7000000.0:
  br label %_8000000.0
_8000000.0:
  %_54000007 = icmp ne ptr %_2, null
  br i1 %_54000007, label %_54000005.0, label %_54000006.0
_54000005.0:
  %_54000008 = getelementptr { { ptr }, i32, i32, i32, i32, ptr }, { { ptr }, i32, i32, i32, i32, ptr }* %_2, i32 0, i32 4
  %_8000001 = load i32, ptr %_54000008
  %_54000009 = getelementptr { { ptr }, i32, i32, i32, i32, ptr }, { { ptr }, i32, i32, i32, i32, ptr }* %_2, i32 0, i32 1
  %_8000002 = load i32, ptr %_54000009
  %_8000005 = icmp ne i32 %_8000001, %_8000002
  %_8000006 = xor i1 %_8000005, true
  br i1 %_8000006, label %_9000000.0, label %_10000000.0
_9000000.0:
  %_9000001 = call dereferenceable_or_null(104) ptr @"_SM29java.nio.charset.CoderResult$G4load"()
  %_54000010 = getelementptr { { ptr }, ptr, ptr, ptr, ptr, ptr, ptr, ptr, ptr, ptr, ptr, ptr, ptr }, { { ptr }, ptr, ptr, ptr, ptr, ptr, ptr, ptr, ptr, ptr, ptr, ptr, ptr }* %_9000001, i32 0, i32 12
  %_9000002 = load ptr, ptr %_54000010, !dereferenceable_or_null !{i64 16}
  br label %_11000000.0
_10000000.0:
  %_10000001 = call dereferenceable_or_null(32) ptr @"_SM16java.lang.ObjectD8getClassL15java.lang.ClassEO"(ptr dereferenceable_or_null(48) %_2)
  %_10000003 = icmp eq ptr %_10000001, @"_SM23java.nio.HeapCharBufferG4type"
  br i1 %_10000003, label %_12000000.0, label %_13000000.0
_12000000.0:
  %_12000001 = call i16 @"_SM19java.nio.CharBufferD3getcEO"(ptr dereferenceable_or_null(48) %_2)
  br label %_14000000.0
_13000000.0:
  %_13000002 = bitcast ptr %_2 to ptr
  %_13000003 = call i16 @"_SM25java.nio.StringCharBufferD3getcEO"(ptr dereferenceable_or_null(64) %_13000002)
  br label %_14000000.0
_14000000.0:
  %_14000001 = phi i16 [%_13000003, %_13000000.0], [%_12000001, %_12000000.0]
  %_14000004 = zext i16 %_14000001 to i32
  %_14000005 = icmp slt i32 %_14000004, 128
  br i1 %_14000005, label %_15000000.0, label %_16000000.0
_15000000.0:
  %_54000012 = icmp ne ptr %_3, null
  br i1 %_54000012, label %_54000011.0, label %_54000006.0
_54000011.0:
  %_54000013 = getelementptr { { ptr }, i32, i32, i32, i32, ptr }, { { ptr }, i32, i32, i32, i32, ptr }* %_3, i32 0, i32 4
  %_15000001 = load i32, ptr %_54000013
  %_54000014 = getelementptr { { ptr }, i32, i32, i32, i32, ptr }, { { ptr }, i32, i32, i32, i32, ptr }* %_3, i32 0, i32 1
  %_15000002 = load i32, ptr %_54000014
  %_15000005 = icmp ne i32 %_15000001, %_15000002
  %_15000006 = xor i1 %_15000005, true
  br i1 %_15000006, label %_17000000.0, label %_18000000.0
_17000000.0:
  %_17000001 = call dereferenceable_or_null(104) ptr @"_SM29java.nio.charset.CoderResult$G4load"()
  %_54000015 = getelementptr { { ptr }, ptr, ptr, ptr, ptr, ptr, ptr, ptr, ptr, ptr, ptr, ptr, ptr }, { { ptr }, ptr, ptr, ptr, ptr, ptr, ptr, ptr, ptr, ptr, ptr, ptr, ptr }* %_17000001, i32 0, i32 1
  %_17000002 = load ptr, ptr %_54000015, !dereferenceable_or_null !{i64 16}
  %_54000016 = getelementptr { { ptr }, i32, i32, i32, i32, ptr }, { { ptr }, i32, i32, i32, i32, ptr }* %_2, i32 0, i32 4
  %_17000003 = load i32, ptr %_54000016
  %_17000005 = sub i32 %_17000003, 1
  %_17000006 = call dereferenceable_or_null(32) ptr @"_SM15java.nio.BufferD8positioniL15java.nio.BufferEO"(ptr dereferenceable_or_null(48) %_2, i32 %_17000005)
  br label %_19000000.0
_18000000.0:
  %_18000002 = trunc i16 %_14000001 to i8
  %_18000003 = call dereferenceable_or_null(56) ptr @"_SM19java.nio.ByteBufferD3putbL19java.nio.ByteBufferEO"(ptr dereferenceable_or_null(56) %_3, i8 %_18000002)
  br label %_20000000.0
_19000000.0:
  br label %_21000000.0
_16000000.0:
  %_16000002 = icmp slt i32 %_14000004, 2048
  br i1 %_16000002, label %_22000000.0, label %_23000000.0
_22000000.0:
  %_54000017 = getelementptr { { ptr }, i32, i32, i32, i32, ptr }, { { ptr }, i32, i32, i32, i32, ptr }* %_3, i32 0, i32 1
  %_22000001 = load i32, ptr %_54000017
  %_54000018 = getelementptr { { ptr }, i32, i32, i32, i32, ptr }, { { ptr }, i32, i32, i32, i32, ptr }* %_3, i32 0, i32 4
  %_22000002 = load i32, ptr %_54000018
  %_22000005 = sub i32 %_22000001, %_22000002
  %_22000006 = icmp slt i32 %_22000005, 2
  br i1 %_22000006, label %_24000000.0, label %_25000000.0
_24000000.0:
  %_24000001 = call dereferenceable_or_null(104) ptr @"_SM29java.nio.charset.CoderResult$G4load"()
  %_54000019 = getelementptr { { ptr }, ptr, ptr, ptr, ptr, ptr, ptr, ptr, ptr, ptr, ptr, ptr, ptr }, { { ptr }, ptr, ptr, ptr, ptr, ptr, ptr, ptr, ptr, ptr, ptr, ptr, ptr }* %_24000001, i32 0, i32 1
  %_24000002 = load ptr, ptr %_54000019, !dereferenceable_or_null !{i64 16}
  %_54000020 = getelementptr { { ptr }, i32, i32, i32, i32, ptr }, { { ptr }, i32, i32, i32, i32, ptr }* %_2, i32 0, i32 4
  %_24000003 = load i32, ptr %_54000020
  %_24000005 = sub i32 %_24000003, 1
  %_24000006 = call dereferenceable_or_null(32) ptr @"_SM15java.nio.BufferD8positioniL15java.nio.BufferEO"(ptr dereferenceable_or_null(48) %_2, i32 %_24000005)
  br label %_26000000.0
_25000000.0:
  %_54000021 = and i32 6, 31
  %_25000004 = ashr i32 %_14000004, %_54000021
  %_25000005 = or i32 %_25000004, 192
  %_25000006 = trunc i32 %_25000005 to i8
  %_25000007 = call dereferenceable_or_null(56) ptr @"_SM19java.nio.ByteBufferD3putbL19java.nio.ByteBufferEO"(ptr dereferenceable_or_null(56) %_3, i8 %_25000006)
  %_25000011 = and i32 %_14000004, 63
  %_25000012 = or i32 %_25000011, 128
  %_25000013 = trunc i32 %_25000012 to i8
  %_25000014 = call dereferenceable_or_null(56) ptr @"_SM19java.nio.ByteBufferD3putbL19java.nio.ByteBufferEO"(ptr dereferenceable_or_null(56) %_3, i8 %_25000013)
  br label %_20000000.0
_26000000.0:
  br label %_27000000.0
_23000000.0:
  %_23000004 = and i32 %_14000004, 63488
  %_23000005 = icmp eq i32 %_23000004, 55296
  %_23000006 = xor i1 %_23000005, true
  br i1 %_23000006, label %_28000000.0, label %_29000000.0
_28000000.0:
  %_54000022 = getelementptr { { ptr }, i32, i32, i32, i32, ptr }, { { ptr }, i32, i32, i32, i32, ptr }* %_3, i32 0, i32 1
  %_28000001 = load i32, ptr %_54000022
  %_54000023 = getelementptr { { ptr }, i32, i32, i32, i32, ptr }, { { ptr }, i32, i32, i32, i32, ptr }* %_3, i32 0, i32 4
  %_28000002 = load i32, ptr %_54000023
  %_28000005 = sub i32 %_28000001, %_28000002
  %_28000006 = icmp slt i32 %_28000005, 3
  br i1 %_28000006, label %_30000000.0, label %_31000000.0
_30000000.0:
  %_30000001 = call dereferenceable_or_null(104) ptr @"_SM29java.nio.charset.CoderResult$G4load"()
  %_54000024 = getelementptr { { ptr }, ptr, ptr, ptr, ptr, ptr, ptr, ptr, ptr, ptr, ptr, ptr, ptr }, { { ptr }, ptr, ptr, ptr, ptr, ptr, ptr, ptr, ptr, ptr, ptr, ptr, ptr }* %_30000001, i32 0, i32 1
  %_30000002 = load ptr, ptr %_54000024, !dereferenceable_or_null !{i64 16}
  %_54000025 = getelementptr { { ptr }, i32, i32, i32, i32, ptr }, { { ptr }, i32, i32, i32, i32, ptr }* %_2, i32 0, i32 4
  %_30000003 = load i32, ptr %_54000025
  %_30000005 = sub i32 %_30000003, 1
  %_30000006 = call dereferenceable_or_null(32) ptr @"_SM15java.nio.BufferD8positioniL15java.nio.BufferEO"(ptr dereferenceable_or_null(48) %_2, i32 %_30000005)
  br label %_32000000.0
_31000000.0:
  %_54000026 = and i32 12, 31
  %_31000004 = ashr i32 %_14000004, %_54000026
  %_31000005 = or i32 %_31000004, 224
  %_31000006 = trunc i32 %_31000005 to i8
  %_31000007 = call dereferenceable_or_null(56) ptr @"_SM19java.nio.ByteBufferD3putbL19java.nio.ByteBufferEO"(ptr dereferenceable_or_null(56) %_3, i8 %_31000006)
  %_54000027 = and i32 6, 31
  %_31000012 = ashr i32 %_14000004, %_54000027
  %_31000013 = and i32 %_31000012, 63
  %_31000014 = or i32 %_31000013, 128
  %_31000015 = trunc i32 %_31000014 to i8
  %_31000016 = call dereferenceable_or_null(56) ptr @"_SM19java.nio.ByteBufferD3putbL19java.nio.ByteBufferEO"(ptr dereferenceable_or_null(56) %_3, i8 %_31000015)
  %_31000020 = and i32 %_14000004, 63
  %_31000021 = or i32 %_31000020, 128
  %_31000022 = trunc i32 %_31000021 to i8
  %_31000023 = call dereferenceable_or_null(56) ptr @"_SM19java.nio.ByteBufferD3putbL19java.nio.ByteBufferEO"(ptr dereferenceable_or_null(56) %_3, i8 %_31000022)
  br label %_20000000.0
_32000000.0:
  br label %_33000000.0
_29000000.0:
  %_29000003 = and i32 %_14000004, 64512
  %_29000004 = icmp eq i32 %_29000003, 55296
  br i1 %_29000004, label %_34000000.0, label %_35000000.0
_34000000.0:
  %_54000028 = getelementptr { { ptr }, i32, i32, i32, i32, ptr }, { { ptr }, i32, i32, i32, i32, ptr }* %_2, i32 0, i32 4
  %_34000001 = load i32, ptr %_54000028
  %_54000029 = getelementptr { { ptr }, i32, i32, i32, i32, ptr }, { { ptr }, i32, i32, i32, i32, ptr }* %_2, i32 0, i32 1
  %_34000002 = load i32, ptr %_54000029
  %_34000005 = icmp ne i32 %_34000001, %_34000002
  %_34000006 = xor i1 %_34000005, true
  br i1 %_34000006, label %_36000000.0, label %_37000000.0
_36000000.0:
  %_36000001 = call dereferenceable_or_null(104) ptr @"_SM29java.nio.charset.CoderResult$G4load"()
  %_54000030 = getelementptr { { ptr }, ptr, ptr, ptr, ptr, ptr, ptr, ptr, ptr, ptr, ptr, ptr, ptr }, { { ptr }, ptr, ptr, ptr, ptr, ptr, ptr, ptr, ptr, ptr, ptr, ptr, ptr }* %_36000001, i32 0, i32 12
  %_36000002 = load ptr, ptr %_54000030, !dereferenceable_or_null !{i64 16}
  %_54000031 = getelementptr { { ptr }, i32, i32, i32, i32, ptr }, { { ptr }, i32, i32, i32, i32, ptr }* %_2, i32 0, i32 4
  %_36000003 = load i32, ptr %_54000031
  %_36000005 = sub i32 %_36000003, 1
  %_36000006 = call dereferenceable_or_null(32) ptr @"_SM15java.nio.BufferD8positioniL15java.nio.BufferEO"(ptr dereferenceable_or_null(48) %_2, i32 %_36000005)
  br label %_38000000.0
_37000000.0:
  %_37000001 = call dereferenceable_or_null(32) ptr @"_SM16java.lang.ObjectD8getClassL15java.lang.ClassEO"(ptr dereferenceable_or_null(48) %_2)
  %_37000003 = icmp eq ptr %_37000001, @"_SM23java.nio.HeapCharBufferG4type"
  br i1 %_37000003, label %_39000000.0, label %_40000000.0
_39000000.0:
  %_39000001 = call i16 @"_SM19java.nio.CharBufferD3getcEO"(ptr dereferenceable_or_null(48) %_2)
  br label %_41000000.0
_40000000.0:
  %_40000002 = bitcast ptr %_2 to ptr
  %_40000003 = call i16 @"_SM25java.nio.StringCharBufferD3getcEO"(ptr dereferenceable_or_null(64) %_40000002)
  br label %_41000000.0
_41000000.0:
  %_41000001 = phi i16 [%_40000003, %_40000000.0], [%_39000001, %_39000000.0]
  %_41000006 = zext i16 %_41000001 to i32
  %_41000007 = and i32 %_41000006, 64512
  %_41000008 = icmp eq i32 %_41000007, 56320
  %_41000009 = xor i1 %_41000008, true
  br i1 %_41000009, label %_42000000.0, label %_43000000.0
_42000000.0:
  %_42000001 = call dereferenceable_or_null(104) ptr @"_SM29java.nio.charset.CoderResult$G4load"()
  br label %_44000000.0
_44000000.0:
  br label %_45000000.0
_45000000.0:
  %_54000032 = getelementptr { { ptr }, ptr, ptr, ptr, ptr, ptr, ptr, ptr, ptr, ptr, ptr, ptr, ptr }, { { ptr }, ptr, ptr, ptr, ptr, ptr, ptr, ptr, ptr, ptr, ptr, ptr, ptr }* %_42000001, i32 0, i32 5
  %_45000001 = load ptr, ptr %_54000032, !dereferenceable_or_null !{i64 16}
  br label %_46000000.0
_46000000.0:
  %_54000033 = getelementptr { { ptr }, i32, i32, i32, i32, ptr }, { { ptr }, i32, i32, i32, i32, ptr }* %_2, i32 0, i32 4
  %_46000001 = load i32, ptr %_54000033
  %_46000003 = sub i32 %_46000001, 2
  %_46000004 = call dereferenceable_or_null(32) ptr @"_SM15java.nio.BufferD8positioniL15java.nio.BufferEO"(ptr dereferenceable_or_null(48) %_2, i32 %_46000003)
  br label %_47000000.0
_43000000.0:
  %_54000034 = getelementptr { { ptr }, i32, i32, i32, i32, ptr }, { { ptr }, i32, i32, i32, i32, ptr }* %_3, i32 0, i32 1
  %_43000001 = load i32, ptr %_54000034
  %_54000035 = getelementptr { { ptr }, i32, i32, i32, i32, ptr }, { { ptr }, i32, i32, i32, i32, ptr }* %_3, i32 0, i32 4
  %_43000002 = load i32, ptr %_54000035
  %_43000005 = sub i32 %_43000001, %_43000002
  %_43000006 = icmp slt i32 %_43000005, 4
  br i1 %_43000006, label %_48000000.0, label %_49000000.0
_48000000.0:
  %_48000001 = call dereferenceable_or_null(104) ptr @"_SM29java.nio.charset.CoderResult$G4load"()
  %_54000036 = getelementptr { { ptr }, ptr, ptr, ptr, ptr, ptr, ptr, ptr, ptr, ptr, ptr, ptr, ptr }, { { ptr }, ptr, ptr, ptr, ptr, ptr, ptr, ptr, ptr, ptr, ptr, ptr, ptr }* %_48000001, i32 0, i32 1
  %_48000002 = load ptr, ptr %_54000036, !dereferenceable_or_null !{i64 16}
  %_54000037 = getelementptr { { ptr }, i32, i32, i32, i32, ptr }, { { ptr }, i32, i32, i32, i32, ptr }* %_2, i32 0, i32 4
  %_48000003 = load i32, ptr %_54000037
  %_48000005 = sub i32 %_48000003, 2
  %_48000006 = call dereferenceable_or_null(32) ptr @"_SM15java.nio.BufferD8positioniL15java.nio.BufferEO"(ptr dereferenceable_or_null(48) %_2, i32 %_48000005)
  br label %_50000000.0
_49000000.0:
  %_49000009 = and i32 %_14000004, 1023
  %_54000038 = and i32 10, 31
  %_49000010 = shl i32 %_49000009, %_54000038
  %_49000011 = and i32 %_41000006, 1023
  %_49000012 = add i32 %_49000010, %_49000011
  %_49000013 = add i32 %_49000012, 65536
  %_54000039 = and i32 18, 31
  %_49000014 = ashr i32 %_49000013, %_54000039
  %_49000015 = or i32 %_49000014, 240
  %_49000016 = trunc i32 %_49000015 to i8
  %_49000017 = call dereferenceable_or_null(56) ptr @"_SM19java.nio.ByteBufferD3putbL19java.nio.ByteBufferEO"(ptr dereferenceable_or_null(56) %_3, i8 %_49000016)
  %_54000040 = and i32 12, 31
  %_49000022 = ashr i32 %_49000013, %_54000040
  %_49000023 = and i32 %_49000022, 63
  %_49000024 = or i32 %_49000023, 128
  %_49000025 = trunc i32 %_49000024 to i8
  %_49000026 = call dereferenceable_or_null(56) ptr @"_SM19java.nio.ByteBufferD3putbL19java.nio.ByteBufferEO"(ptr dereferenceable_or_null(56) %_3, i8 %_49000025)
  %_54000041 = and i32 6, 31
  %_49000031 = ashr i32 %_49000013, %_54000041
  %_49000032 = and i32 %_49000031, 63
  %_49000033 = or i32 %_49000032, 128
  %_49000034 = trunc i32 %_49000033 to i8
  %_49000035 = call dereferenceable_or_null(56) ptr @"_SM19java.nio.ByteBufferD3putbL19java.nio.ByteBufferEO"(ptr dereferenceable_or_null(56) %_3, i8 %_49000034)
  %_49000039 = and i32 %_49000013, 63
  %_49000040 = or i32 %_49000039, 128
  %_49000041 = trunc i32 %_49000040 to i8
  %_49000042 = call dereferenceable_or_null(56) ptr @"_SM19java.nio.ByteBufferD3putbL19java.nio.ByteBufferEO"(ptr dereferenceable_or_null(56) %_3, i8 %_49000041)
  br label %_20000000.0
_50000000.0:
  br label %_47000000.0
_47000000.0:
  %_47000001 = phi ptr [%_48000002, %_50000000.0], [%_45000001, %_46000000.0]
  br label %_38000000.0
_38000000.0:
  %_38000001 = phi ptr [%_47000001, %_47000000.0], [%_36000002, %_36000000.0]
  br label %_51000000.0
_35000000.0:
  %_35000001 = call dereferenceable_or_null(104) ptr @"_SM29java.nio.charset.CoderResult$G4load"()
  br label %_52000000.0
_52000000.0:
  br label %_53000000.0
_53000000.0:
  %_54000042 = getelementptr { { ptr }, ptr, ptr, ptr, ptr, ptr, ptr, ptr, ptr, ptr, ptr, ptr, ptr }, { { ptr }, ptr, ptr, ptr, ptr, ptr, ptr, ptr, ptr, ptr, ptr, ptr, ptr }* %_35000001, i32 0, i32 5
  %_53000001 = load ptr, ptr %_54000042, !dereferenceable_or_null !{i64 16}
  br label %_54000000.0
_54000000.0:
  %_54000043 = getelementptr { { ptr }, i32, i32, i32, i32, ptr }, { { ptr }, i32, i32, i32, i32, ptr }* %_2, i32 0, i32 4
  %_54000001 = load i32, ptr %_54000043
  %_54000003 = sub i32 %_54000001, 1
  %_54000004 = call dereferenceable_or_null(32) ptr @"_SM15java.nio.BufferD8positioniL15java.nio.BufferEO"(ptr dereferenceable_or_null(48) %_2, i32 %_54000003)
  br label %_51000000.0
_51000000.0:
  %_51000001 = phi ptr [%_53000001, %_54000000.0], [%_38000001, %_38000000.0]
  br label %_33000000.0
_33000000.0:
  %_33000001 = phi ptr [%_51000001, %_51000000.0], [%_30000002, %_32000000.0]
  br label %_27000000.0
_27000000.0:
  %_27000001 = phi ptr [%_33000001, %_33000000.0], [%_24000002, %_26000000.0]
  br label %_21000000.0
_21000000.0:
  %_21000001 = phi ptr [%_27000001, %_27000000.0], [%_17000002, %_19000000.0]
  br label %_11000000.0
_20000000.0:
  br label %_6000000.0
_11000000.0:
  %_11000001 = phi ptr [%_21000001, %_21000000.0], [%_9000002, %_9000000.0]
  ret ptr %_11000001
_54000006.0:
  call ptr @"_SM34scala.scalanative.runtime.package$D16throwNullPointernEO"(ptr null)
  unreachable
}

define dereferenceable_or_null(8) ptr @"_SM34scala.runtime.function.JProcedure1D5applyL16java.lang.ObjectL16java.lang.ObjectEO"(ptr %_1, ptr %_2) personality ptr @__gxx_personality_v0 {
_3000000.0:
  %_4000008 = icmp ne ptr %_1, null
  br i1 %_4000008, label %_4000006.0, label %_4000007.0
_4000006.0:
  %_4000001 = bitcast ptr %_1 to ptr
  %_4000010 = icmp ne ptr %_4000001, null
  br i1 %_4000010, label %_4000009.0, label %_4000007.0
_4000009.0:
  %_4000011 = getelementptr { { ptr }, ptr }, { { ptr }, ptr }* %_4000001, i32 0, i32 1
  %_4000002 = load ptr, ptr %_4000011, !dereferenceable_or_null !{i64 56}
  %_4000004 = bitcast ptr %_2 to ptr
  call void @"_SM19java.io.PrintStreamD7printlnL16java.lang.StringuEO"(ptr dereferenceable_or_null(56) %_4000002, ptr dereferenceable_or_null(32) %_4000004)
  ret ptr @"_SM36scala.scalanative.runtime.BoxedUnit$G8instance"
_4000007.0:
  call ptr @"_SM34scala.scalanative.runtime.package$D16throwNullPointernEO"(ptr null)
  unreachable
}

define dereferenceable_or_null(16) ptr @"_SM41scala.scalanative.posix.pwdOps$passwdOps$D16pw_dir$extensionL28scala.scalanative.unsafe.PtrL28scala.scalanative.unsafe.PtrEO"(ptr %_1, ptr %_2) personality ptr @__gxx_personality_v0 {
_3000000.0:
  %_13000001 = call ptr @"_SM32scala.scalanative.runtime.Boxes$D10unboxToPtrL16java.lang.ObjectR_EO"(ptr null, ptr dereferenceable_or_null(16) %_2)
  br label %_25000000.0
_25000000.0:
  br label %_26000000.0
_26000000.0:
  br label %_28000000.0
_28000000.0:
  br label %_29000000.0
_29000000.0:
  br label %_32000000.0
_32000000.0:
  br label %_33000000.0
_33000000.0:
  br label %_36000000.0
_36000000.0:
  br label %_37000000.0
_37000000.0:
  br label %_40000000.0
_40000000.0:
  br label %_41000000.0
_41000000.0:
  br label %_42000000.0
_42000000.0:
  %_43000001 = getelementptr i8, ptr %_13000001, i32 16
  %_43000002 = load ptr, ptr %_43000001
  %_3000003 = call dereferenceable_or_null(16) ptr @"_SM32scala.scalanative.runtime.Boxes$D8boxToPtrR_L28scala.scalanative.unsafe.PtrEO"(ptr null, ptr %_43000002)
  ret ptr %_3000003
}

define dereferenceable_or_null(16) ptr @"_SM41scala.scalanative.posix.pwdOps$passwdOps$D17pw_name$extensionL28scala.scalanative.unsafe.PtrL28scala.scalanative.unsafe.PtrEO"(ptr %_1, ptr %_2) personality ptr @__gxx_personality_v0 {
_3000000.0:
  %_13000001 = call ptr @"_SM32scala.scalanative.runtime.Boxes$D10unboxToPtrL16java.lang.ObjectR_EO"(ptr null, ptr dereferenceable_or_null(16) %_2)
  br label %_25000000.0
_25000000.0:
  br label %_26000000.0
_26000000.0:
  br label %_28000000.0
_28000000.0:
  br label %_29000000.0
_29000000.0:
  br label %_30000000.0
_30000000.0:
  %_31000001 = getelementptr i8, ptr %_13000001, i32 0
  %_31000002 = load ptr, ptr %_31000001
  %_3000003 = call dereferenceable_or_null(16) ptr @"_SM32scala.scalanative.runtime.Boxes$D8boxToPtrR_L28scala.scalanative.unsafe.PtrEO"(ptr null, ptr %_31000002)
  ret ptr %_3000003
}

define void @"_SM41scala.scalanative.posix.pwdOps$passwdOps$RE"(ptr %_1) personality ptr @__gxx_personality_v0 {
_2000000.0:
  ret void
}

define float @"_SM32scala.scalanative.unsigned.UByteD10floatValuefEO"(ptr %_1) inlinehint personality ptr @__gxx_personality_v0 {
_2000000.0:
  %_3000004 = icmp ne ptr %_1, null
  br i1 %_3000004, label %_3000002.0, label %_3000003.0
_3000002.0:
  %_3000005 = getelementptr { { ptr }, i8 }, { { ptr }, i8 }* %_1, i32 0, i32 1
  %_3000001 = load i8, ptr %_3000005
  %_2000001 = sext i8 %_3000001 to i32
  %_2000002 = and i32 %_2000001, 255
  %_2000003 = sitofp i32 %_2000002 to float
  ret float %_2000003
_3000003.0:
  call ptr @"_SM34scala.scalanative.runtime.package$D16throwNullPointernEO"(ptr null)
  unreachable
}

define dereferenceable_or_null(16) ptr @"_SM32scala.scalanative.unsigned.UByteD10underlyingL16java.lang.ObjectEO"(ptr %_1) inlinehint personality ptr @__gxx_personality_v0 {
_2000000.0:
  %_2000003 = icmp ne ptr %_1, null
  br i1 %_2000003, label %_2000001.0, label %_2000002.0
_2000001.0:
  ret ptr %_1
_2000002.0:
  call ptr @"_SM34scala.scalanative.runtime.package$D16throwNullPointernEO"(ptr null)
  unreachable
}

define double @"_SM32scala.scalanative.unsigned.UByteD11doubleValuedEO"(ptr %_1) inlinehint personality ptr @__gxx_personality_v0 {
_2000000.0:
  %_3000004 = icmp ne ptr %_1, null
  br i1 %_3000004, label %_3000002.0, label %_3000003.0
_3000002.0:
  %_3000005 = getelementptr { { ptr }, i8 }, { { ptr }, i8 }* %_1, i32 0, i32 1
  %_3000001 = load i8, ptr %_3000005
  %_2000001 = sext i8 %_3000001 to i32
  %_2000002 = and i32 %_2000001, 255
  %_2000003 = sitofp i32 %_2000002 to double
  ret double %_2000003
_3000003.0:
  call ptr @"_SM34scala.scalanative.runtime.package$D16throwNullPointernEO"(ptr null)
  unreachable
}

define i1 @"_SM32scala.scalanative.unsigned.UByteD6equalsL16java.lang.ObjectzEO"(ptr %_1, ptr %_2) inlinehint personality ptr @__gxx_personality_v0 {
_3000000.0:
  %_10000003 = icmp ne ptr %_1, null
  br i1 %_10000003, label %_10000001.0, label %_10000002.0
_10000001.0:
  br label %_4000000.0
_4000000.0:
  %_10000007 = icmp eq ptr %_2, null
  br i1 %_10000007, label %_10000004.0, label %_10000005.0
_10000004.0:
  br label %_10000006.0
_10000005.0:
  %_10000008 = load ptr, ptr %_2
  %_10000009 = icmp eq ptr %_10000008, @"_SM32scala.scalanative.unsigned.UByteG4type"
  br label %_10000006.0
_10000006.0:
  %_4000002 = phi i1 [%_10000009, %_10000005.0], [false, %_10000004.0]
  br i1 %_4000002, label %_5000000.0, label %_6000000.0
_5000000.0:
  %_10000013 = icmp eq ptr %_2, null
  br i1 %_10000013, label %_10000011.0, label %_10000010.0
_10000010.0:
  %_10000014 = load ptr, ptr %_2
  %_10000015 = icmp eq ptr %_10000014, @"_SM32scala.scalanative.unsigned.UByteG4type"
  br i1 %_10000015, label %_10000011.0, label %_10000012.0
_10000011.0:
  %_10000016 = getelementptr { { ptr }, i8 }, { { ptr }, i8 }* %_1, i32 0, i32 1
  %_7000001 = load i8, ptr %_10000016
  %_10000018 = icmp ne ptr %_2, null
  br i1 %_10000018, label %_10000017.0, label %_10000002.0
_10000017.0:
  %_10000019 = getelementptr { { ptr }, i8 }, { { ptr }, i8 }* %_2, i32 0, i32 1
  %_8000001 = load i8, ptr %_10000019
  %_5000005 = sext i8 %_7000001 to i32
  %_5000006 = sext i8 %_8000001 to i32
  %_5000007 = icmp eq i32 %_5000005, %_5000006
  br label %_9000000.0
_6000000.0:
  br label %_10000000.0
_10000000.0:
  br label %_9000000.0
_9000000.0:
  %_9000001 = phi i1 [false, %_10000000.0], [%_5000007, %_10000017.0]
  ret i1 %_9000001
_10000002.0:
  call ptr @"_SM34scala.scalanative.runtime.package$D16throwNullPointernEO"(ptr null)
  unreachable
_10000012.0:
  %_10000021 = phi ptr [%_2, %_10000010.0]
  %_10000022 = phi ptr [@"_SM32scala.scalanative.unsigned.UByteG4type", %_10000010.0]
  %_10000023 = load ptr, ptr %_10000021
  call ptr @"_SM34scala.scalanative.runtime.package$D14throwClassCastR_R_nEO"(ptr null, ptr %_10000023, ptr %_10000022)
  unreachable
}

define i32 @"_SM32scala.scalanative.unsigned.UByteD8hashCodeiEO"(ptr %_1) inlinehint personality ptr @__gxx_personality_v0 {
_2000000.0:
  %_19000004 = icmp ne ptr %_1, null
  br i1 %_19000004, label %_19000002.0, label %_19000003.0
_19000002.0:
  %_19000005 = getelementptr { { ptr }, i8 }, { { ptr }, i8 }* %_1, i32 0, i32 1
  %_3000001 = load i8, ptr %_19000005
  br label %_5000000.0
_5000000.0:
  %_5000002 = call dereferenceable_or_null(16) ptr @"_SM27scala.runtime.BoxesRunTime$D9boxToBytebL14java.lang.ByteEO"(ptr null, i8 %_3000001)
  %_5000003 = icmp eq ptr %_5000002, null
  br i1 %_5000003, label %_6000000.0, label %_7000000.0
_6000000.0:
  br label %_8000000.0
_7000000.0:
  br label %_9000000.0
_9000000.0:
  br label %_10000000.0
_10000000.0:
  br label %_11000000.0
_11000000.0:
  br label %_12000000.0
_12000000.0:
  br label %_13000000.0
_13000000.0:
  br label %_14000000.0
_14000000.0:
  br label %_15000000.0
_15000000.0:
  br label %_16000000.0
_16000000.0:
  br label %_17000000.0
_17000000.0:
  %_18000001 = call i8 @"_SM27scala.runtime.BoxesRunTime$D11unboxToByteL16java.lang.ObjectbEO"(ptr null, ptr nonnull dereferenceable(16) %_5000002)
  br label %_19000000.0
_19000000.0:
  %_19000001 = sext i8 %_18000001 to i32
  br label %_8000000.0
_8000000.0:
  %_8000001 = phi i32 [%_19000001, %_19000000.0], [0, %_6000000.0]
  ret i32 %_8000001
_19000003.0:
  call ptr @"_SM34scala.scalanative.runtime.package$D16throwNullPointernEO"(ptr null)
  unreachable
}

