declare i32 @llvm.eh.typeid.for(ptr)
declare i32 @__gxx_personality_v0(...)
declare ptr @__cxa_begin_catch(ptr)
declare void @__cxa_end_catch()
@_ZTIN11scalanative16ExceptionWrapperE = external constant { ptr, ptr, ptr }

@"_SM7__constG1-0" = private unnamed_addr constant { ptr, i32, i32, [26 x i16] } { ptr @"_SM35scala.scalanative.runtime.CharArrayG4type", i32 26, i32 2, [26 x i16] [ i16 106, i16 97, i16 118, i16 97, i16 46, i16 108, i16 97, i16 110, i16 103, i16 46, i16 105, i16 109, i16 112, i16 108, i16 46, i16 80, i16 111, i16 115, i16 105, i16 120, i16 84, i16 104, i16 114, i16 101, i16 97, i16 100 ] }
@"_SM7__constG1-1" = private unnamed_addr constant { ptr, ptr, i32, i32, i32 } { ptr @"_SM16java.lang.StringG4type", ptr @"_SM7__constG1-0", i32 0, i32 26, i32 -114192205 }
@"_SM7__constG1-2" = private unnamed_addr constant [4 x i32] [ i32 8, i32 16, i32 40, i32 -1 ]
@"_SM7__constG1-3" = private unnamed_addr constant { ptr, i32, i32, [27 x i16] } { ptr @"_SM35scala.scalanative.runtime.CharArrayG4type", i32 27, i32 2, [27 x i16] [ i16 106, i16 97, i16 118, i16 97, i16 46, i16 108, i16 97, i16 110, i16 103, i16 46, i16 105, i16 109, i16 112, i16 108, i16 46, i16 80, i16 111, i16 115, i16 105, i16 120, i16 84, i16 104, i16 114, i16 101, i16 97, i16 100, i16 36 ] }
@"_SM7__constG1-4" = private unnamed_addr constant { ptr, ptr, i32, i32, i32 } { ptr @"_SM16java.lang.StringG4type", ptr @"_SM7__constG1-3", i32 0, i32 27, i32 755008977 }
@"_SM7__constG1-5" = private unnamed_addr constant [1 x i32] [ i32 -1 ]
@"_SM7__constG1-6" = private unnamed_addr constant { ptr, i32, i32, [41 x i16] } { ptr @"_SM35scala.scalanative.runtime.CharArrayG4type", i32 41, i32 2, [41 x i16] [ i16 106, i16 97, i16 118, i16 97, i16 46, i16 110, i16 105, i16 111, i16 46, i16 99, i16 104, i16 97, i16 114, i16 115, i16 101, i16 116, i16 46, i16 67, i16 104, i16 97, i16 114, i16 97, i16 99, i16 116, i16 101, i16 114, i16 67, i16 111, i16 100, i16 105, i16 110, i16 103, i16 69, i16 120, i16 99, i16 101, i16 112, i16 116, i16 105, i16 111, i16 110 ] }
@"_SM7__constG1-7" = private unnamed_addr constant { ptr, ptr, i32, i32, i32 } { ptr @"_SM16java.lang.StringG4type", ptr @"_SM7__constG1-6", i32 0, i32 41, i32 -364395260 }
@"_SM7__constG1-8" = private unnamed_addr constant [4 x i32] [ i32 8, i32 16, i32 24, i32 -1 ]
@"_SM7__constG1-9" = private unnamed_addr constant { ptr, i32, i32, [24 x i16] } { ptr @"_SM35scala.scalanative.runtime.CharArrayG4type", i32 24, i32 2, [24 x i16] [ i16 106, i16 97, i16 118, i16 97, i16 46, i16 110, i16 105, i16 111, i16 46, i16 99, i16 104, i16 97, i16 114, i16 115, i16 101, i16 116, i16 46, i16 67, i16 104, i16 97, i16 114, i16 115, i16 101, i16 116 ] }
@"_SM7__constG2-10" = private unnamed_addr constant { ptr, ptr, i32, i32, i32 } { ptr @"_SM16java.lang.StringG4type", ptr @"_SM7__constG1-9", i32 0, i32 24, i32 1479543012 }
@"_SM7__constG2-11" = private unnamed_addr constant [4 x i32] [ i32 8, i32 16, i32 32, i32 -1 ]
@"_SM7__constG2-12" = private unnamed_addr constant { ptr, i32, i32, [25 x i16] } { ptr @"_SM35scala.scalanative.runtime.CharArrayG4type", i32 25, i32 2, [25 x i16] [ i16 106, i16 97, i16 118, i16 97, i16 46, i16 110, i16 105, i16 111, i16 46, i16 99, i16 104, i16 97, i16 114, i16 115, i16 101, i16 116, i16 46, i16 67, i16 104, i16 97, i16 114, i16 115, i16 101, i16 116, i16 36 ] }
@"_SM7__constG2-13" = private unnamed_addr constant { ptr, ptr, i32, i32, i32 } { ptr @"_SM16java.lang.StringG4type", ptr @"_SM7__constG2-12", i32 0, i32 25, i32 -1378806848 }
@"_SM7__constG2-14" = private unnamed_addr constant { ptr, i32, i32, [34 x i16] } { ptr @"_SM35scala.scalanative.runtime.CharArrayG4type", i32 34, i32 2, [34 x i16] [ i16 106, i16 97, i16 118, i16 97, i16 46, i16 110, i16 105, i16 111, i16 46, i16 99, i16 104, i16 97, i16 114, i16 115, i16 101, i16 116, i16 46, i16 67, i16 104, i16 97, i16 114, i16 115, i16 101, i16 116, i16 36, i16 36, i16 76, i16 97, i16 109, i16 98, i16 100, i16 97, i16 36, i16 49 ] }
@"_SM7__constG2-15" = private unnamed_addr constant { ptr, ptr, i32, i32, i32 } { ptr @"_SM16java.lang.StringG4type", ptr @"_SM7__constG2-14", i32 0, i32 34, i32 1930602264 }
@"_SM7__constG2-16" = private unnamed_addr constant [2 x i32] [ i32 8, i32 -1 ]
@"_SM7__constG2-17" = private unnamed_addr constant { ptr, i32, i32, [31 x i16] } { ptr @"_SM35scala.scalanative.runtime.CharArrayG4type", i32 31, i32 2, [31 x i16] [ i16 106, i16 97, i16 118, i16 97, i16 46, i16 110, i16 105, i16 111, i16 46, i16 99, i16 104, i16 97, i16 114, i16 115, i16 101, i16 116, i16 46, i16 67, i16 104, i16 97, i16 114, i16 115, i16 101, i16 116, i16 68, i16 101, i16 99, i16 111, i16 100, i16 101, i16 114 ] }
@"_SM7__constG2-18" = private unnamed_addr constant { ptr, ptr, i32, i32, i32 } { ptr @"_SM16java.lang.StringG4type", ptr @"_SM7__constG2-17", i32 0, i32 31, i32 1592472256 }
@"_SM7__constG2-19" = private unnamed_addr constant [5 x i32] [ i32 16, i32 24, i32 32, i32 48, i32 -1 ]
@"_SM7__constG2-20" = private unnamed_addr constant { ptr, i32, i32, [31 x i16] } { ptr @"_SM35scala.scalanative.runtime.CharArrayG4type", i32 31, i32 2, [31 x i16] [ i16 106, i16 97, i16 118, i16 97, i16 46, i16 110, i16 105, i16 111, i16 46, i16 99, i16 104, i16 97, i16 114, i16 115, i16 101, i16 116, i16 46, i16 67, i16 104, i16 97, i16 114, i16 115, i16 101, i16 116, i16 69, i16 110, i16 99, i16 111, i16 100, i16 101, i16 114 ] }
@"_SM7__constG2-21" = private unnamed_addr constant { ptr, ptr, i32, i32, i32 } { ptr @"_SM16java.lang.StringG4type", ptr @"_SM7__constG2-20", i32 0, i32 31, i32 -1557329000 }
@"_SM7__constG2-22" = private unnamed_addr constant { ptr, i32, i32, [38 x i16] } { ptr @"_SM35scala.scalanative.runtime.CharArrayG4type", i32 38, i32 2, [38 x i16] [ i16 106, i16 97, i16 118, i16 97, i16 46, i16 110, i16 105, i16 111, i16 46, i16 99, i16 104, i16 97, i16 114, i16 115, i16 101, i16 116, i16 46, i16 67, i16 111, i16 100, i16 101, i16 114, i16 77, i16 97, i16 108, i16 102, i16 117, i16 110, i16 99, i16 116, i16 105, i16 111, i16 110, i16 69, i16 114, i16 114, i16 111, i16 114 ] }
@"_SM7__constG2-23" = private unnamed_addr constant { ptr, ptr, i32, i32, i32 } { ptr @"_SM16java.lang.StringG4type", ptr @"_SM7__constG2-22", i32 0, i32 38, i32 -1965373803 }
@"_SM7__constG2-24" = private unnamed_addr constant { ptr, i32, i32, [28 x i16] } { ptr @"_SM35scala.scalanative.runtime.CharArrayG4type", i32 28, i32 2, [28 x i16] [ i16 106, i16 97, i16 118, i16 97, i16 46, i16 110, i16 105, i16 111, i16 46, i16 99, i16 104, i16 97, i16 114, i16 115, i16 101, i16 116, i16 46, i16 67, i16 111, i16 100, i16 101, i16 114, i16 82, i16 101, i16 115, i16 117, i16 108, i16 116 ] }
@"_SM7__constG2-25" = private unnamed_addr constant { ptr, ptr, i32, i32, i32 } { ptr @"_SM16java.lang.StringG4type", ptr @"_SM7__constG2-24", i32 0, i32 28, i32 199847994 }
@"_SM7__constG2-26" = private unnamed_addr constant { ptr, i32, i32, [29 x i16] } { ptr @"_SM35scala.scalanative.runtime.CharArrayG4type", i32 29, i32 2, [29 x i16] [ i16 106, i16 97, i16 118, i16 97, i16 46, i16 110, i16 105, i16 111, i16 46, i16 99, i16 104, i16 97, i16 114, i16 115, i16 101, i16 116, i16 46, i16 67, i16 111, i16 100, i16 101, i16 114, i16 82, i16 101, i16 115, i16 117, i16 108, i16 116, i16 36 ] }
@"_SM7__constG2-27" = private unnamed_addr constant { ptr, ptr, i32, i32, i32 } { ptr @"_SM16java.lang.StringG4type", ptr @"_SM7__constG2-26", i32 0, i32 29, i32 1900320554 }
@"_SM7__constG2-28" = private unnamed_addr constant [13 x i32] [ i32 8, i32 16, i32 24, i32 32, i32 40, i32 48, i32 56, i32 64, i32 72, i32 80, i32 88, i32 96, i32 -1 ]
@"_SM7__constG2-29" = private unnamed_addr constant { ptr, i32, i32, [39 x i16] } { ptr @"_SM35scala.scalanative.runtime.CharArrayG4type", i32 39, i32 2, [39 x i16] [ i16 106, i16 97, i16 118, i16 97, i16 46, i16 110, i16 105, i16 111, i16 46, i16 99, i16 104, i16 97, i16 114, i16 115, i16 101, i16 116, i16 46, i16 67, i16 111, i16 100, i16 101, i16 114, i16 82, i16 101, i16 115, i16 117, i16 108, i16 116, i16 36, i16 36, i16 36, i16 76, i16 97, i16 109, i16 98, i16 100, i16 97, i16 36, i16 49 ] }
@"_SM7__constG2-30" = private unnamed_addr constant { ptr, ptr, i32, i32, i32 } { ptr @"_SM16java.lang.StringG4type", ptr @"_SM7__constG2-29", i32 0, i32 39, i32 -724134434 }
@"_SM7__constG2-31" = private unnamed_addr constant { ptr, i32, i32, [34 x i16] } { ptr @"_SM35scala.scalanative.runtime.CharArrayG4type", i32 34, i32 2, [34 x i16] [ i16 106, i16 97, i16 118, i16 97, i16 46, i16 110, i16 105, i16 111, i16 46, i16 99, i16 104, i16 97, i16 114, i16 115, i16 101, i16 116, i16 46, i16 67, i16 111, i16 100, i16 105, i16 110, i16 103, i16 69, i16 114, i16 114, i16 111, i16 114, i16 65, i16 99, i16 116, i16 105, i16 111, i16 110 ] }
@"_SM7__constG2-32" = private unnamed_addr constant { ptr, ptr, i32, i32, i32 } { ptr @"_SM16java.lang.StringG4type", ptr @"_SM7__constG2-31", i32 0, i32 34, i32 -755311060 }
@"_SM7__constG2-33" = private unnamed_addr constant { ptr, i32, i32, [35 x i16] } { ptr @"_SM35scala.scalanative.runtime.CharArrayG4type", i32 35, i32 2, [35 x i16] [ i16 106, i16 97, i16 118, i16 97, i16 46, i16 110, i16 105, i16 111, i16 46, i16 99, i16 104, i16 97, i16 114, i16 115, i16 101, i16 116, i16 46, i16 67, i16 111, i16 100, i16 105, i16 110, i16 103, i16 69, i16 114, i16 114, i16 111, i16 114, i16 65, i16 99, i16 116, i16 105, i16 111, i16 110, i16 36 ] }
@"_SM7__constG2-34" = private unnamed_addr constant { ptr, ptr, i32, i32, i32 } { ptr @"_SM16java.lang.StringG4type", ptr @"_SM7__constG2-33", i32 0, i32 35, i32 -1939806344 }
@"_SM7__constG2-35" = private unnamed_addr constant { ptr, i32, i32, [40 x i16] } { ptr @"_SM35scala.scalanative.runtime.CharArrayG4type", i32 40, i32 2, [40 x i16] [ i16 106, i16 97, i16 118, i16 97, i16 46, i16 110, i16 105, i16 111, i16 46, i16 99, i16 104, i16 97, i16 114, i16 115, i16 101, i16 116, i16 46, i16 77, i16 97, i16 108, i16 102, i16 111, i16 114, i16 109, i16 101, i16 100, i16 73, i16 110, i16 112, i16 117, i16 116, i16 69, i16 120, i16 99, i16 101, i16 112, i16 116, i16 105, i16 111, i16 110 ] }
@"_SM7__constG2-36" = private unnamed_addr constant { ptr, ptr, i32, i32, i32 } { ptr @"_SM16java.lang.StringG4type", ptr @"_SM7__constG2-35", i32 0, i32 40, i32 2111608792 }
@"_SM7__constG2-37" = private unnamed_addr constant { ptr, i32, i32, [45 x i16] } { ptr @"_SM35scala.scalanative.runtime.CharArrayG4type", i32 45, i32 2, [45 x i16] [ i16 106, i16 97, i16 118, i16 97, i16 46, i16 110, i16 105, i16 111, i16 46, i16 99, i16 104, i16 97, i16 114, i16 115, i16 101, i16 116, i16 46, i16 85, i16 110, i16 109, i16 97, i16 112, i16 112, i16 97, i16 98, i16 108, i16 101, i16 67, i16 104, i16 97, i16 114, i16 97, i16 99, i16 116, i16 101, i16 114, i16 69, i16 120, i16 99, i16 101, i16 112, i16 116, i16 105, i16 111, i16 110 ] }
@"_SM7__constG2-38" = private unnamed_addr constant { ptr, ptr, i32, i32, i32 } { ptr @"_SM16java.lang.StringG4type", ptr @"_SM7__constG2-37", i32 0, i32 45, i32 2141149813 }
@"_SM7__constG2-39" = private unnamed_addr constant { ptr, i32, i32, [35 x i16] } { ptr @"_SM35scala.scalanative.runtime.CharArrayG4type", i32 35, i32 2, [35 x i16] [ i16 106, i16 97, i16 118, i16 97, i16 46, i16 110, i16 105, i16 111, i16 46, i16 102, i16 105, i16 108, i16 101, i16 46, i16 65, i16 99, i16 99, i16 101, i16 115, i16 115, i16 68, i16 101, i16 110, i16 105, i16 101, i16 100, i16 69, i16 120, i16 99, i16 101, i16 112, i16 116, i16 105, i16 111, i16 110 ] }
@"_SM7__constG2-40" = private unnamed_addr constant { ptr, ptr, i32, i32, i32 } { ptr @"_SM16java.lang.StringG4type", ptr @"_SM7__constG2-39", i32 0, i32 35, i32 -847649980 }
@"_SM7__constG2-41" = private unnamed_addr constant [7 x i32] [ i32 8, i32 16, i32 24, i32 40, i32 48, i32 56, i32 -1 ]
@"_SM7__constG2-42" = private unnamed_addr constant { ptr, i32, i32, [40 x i16] } { ptr @"_SM35scala.scalanative.runtime.CharArrayG4type", i32 40, i32 2, [40 x i16] [ i16 106, i16 97, i16 118, i16 97, i16 46, i16 110, i16 105, i16 111, i16 46, i16 102, i16 105, i16 108, i16 101, i16 46, i16 68, i16 105, i16 114, i16 101, i16 99, i16 116, i16 111, i16 114, i16 121, i16 78, i16 111, i16 116, i16 69, i16 109, i16 112, i16 116, i16 121, i16 69, i16 120, i16 99, i16 101, i16 112, i16 116, i16 105, i16 111, i16 110 ] }
@"_SM7__constG2-43" = private unnamed_addr constant { ptr, ptr, i32, i32, i32 } { ptr @"_SM16java.lang.StringG4type", ptr @"_SM7__constG2-42", i32 0, i32 40, i32 -1826843020 }
@"_SM7__constG2-44" = private unnamed_addr constant { ptr, i32, i32, [40 x i16] } { ptr @"_SM35scala.scalanative.runtime.CharArrayG4type", i32 40, i32 2, [40 x i16] [ i16 106, i16 97, i16 118, i16 97, i16 46, i16 110, i16 105, i16 111, i16 46, i16 102, i16 105, i16 108, i16 101, i16 46, i16 70, i16 105, i16 108, i16 101, i16 65, i16 108, i16 114, i16 101, i16 97, i16 100, i16 121, i16 69, i16 120, i16 105, i16 115, i16 116, i16 115, i16 69, i16 120, i16 99, i16 101, i16 112, i16 116, i16 105, i16 111, i16 110 ] }
@"_SM7__constG2-45" = private unnamed_addr constant { ptr, ptr, i32, i32, i32 } { ptr @"_SM16java.lang.StringG4type", ptr @"_SM7__constG2-44", i32 0, i32 40, i32 625958563 }
@"_SM7__constG2-46" = private unnamed_addr constant { ptr, i32, i32, [33 x i16] } { ptr @"_SM35scala.scalanative.runtime.CharArrayG4type", i32 33, i32 2, [33 x i16] [ i16 106, i16 97, i16 118, i16 97, i16 46, i16 110, i16 105, i16 111, i16 46, i16 102, i16 105, i16 108, i16 101, i16 46, i16 70, i16 105, i16 108, i16 101, i16 83, i16 121, i16 115, i16 116, i16 101, i16 109, i16 69, i16 120, i16 99, i16 101, i16 112, i16 116, i16 105, i16 111, i16 110 ] }
@"_SM7__constG2-47" = private unnamed_addr constant { ptr, ptr, i32, i32, i32 } { ptr @"_SM16java.lang.StringG4type", ptr @"_SM7__constG2-46", i32 0, i32 33, i32 -1196415720 }
@"_SM7__constG2-48" = private unnamed_addr constant { ptr, i32, i32, [33 x i16] } { ptr @"_SM35scala.scalanative.runtime.CharArrayG4type", i32 33, i32 2, [33 x i16] [ i16 106, i16 97, i16 118, i16 97, i16 46, i16 110, i16 105, i16 111, i16 46, i16 102, i16 105, i16 108, i16 101, i16 46, i16 78, i16 111, i16 83, i16 117, i16 99, i16 104, i16 70, i16 105, i16 108, i16 101, i16 69, i16 120, i16 99, i16 101, i16 112, i16 116, i16 105, i16 111, i16 110 ] }
@"_SM7__constG2-49" = private unnamed_addr constant { ptr, ptr, i32, i32, i32 } { ptr @"_SM16java.lang.StringG4type", ptr @"_SM7__constG2-48", i32 0, i32 33, i32 -969078081 }
@"_SM7__constG2-50" = private unnamed_addr constant { ptr, i32, i32, [35 x i16] } { ptr @"_SM35scala.scalanative.runtime.CharArrayG4type", i32 35, i32 2, [35 x i16] [ i16 106, i16 97, i16 118, i16 97, i16 46, i16 110, i16 105, i16 111, i16 46, i16 102, i16 105, i16 108, i16 101, i16 46, i16 78, i16 111, i16 116, i16 68, i16 105, i16 114, i16 101, i16 99, i16 116, i16 111, i16 114, i16 121, i16 69, i16 120, i16 99, i16 101, i16 112, i16 116, i16 105, i16 111, i16 110 ] }
@"_SM7__constG2-51" = private unnamed_addr constant { ptr, ptr, i32, i32, i32 } { ptr @"_SM16java.lang.StringG4type", ptr @"_SM7__constG2-50", i32 0, i32 35, i32 -963725591 }
@"_SM7__constG2-52" = private unnamed_addr constant { ptr, i32, i32, [29 x i16] } { ptr @"_SM35scala.scalanative.runtime.CharArrayG4type", i32 29, i32 2, [29 x i16] [ i16 106, i16 97, i16 118, i16 97, i16 46, i16 110, i16 105, i16 111, i16 46, i16 102, i16 105, i16 108, i16 101, i16 46, i16 80, i16 111, i16 115, i16 105, i16 120, i16 69, i16 120, i16 99, i16 101, i16 112, i16 116, i16 105, i16 111, i16 110, i16 36 ] }
@"_SM7__constG2-53" = private unnamed_addr constant { ptr, ptr, i32, i32, i32 } { ptr @"_SM16java.lang.StringG4type", ptr @"_SM7__constG2-52", i32 0, i32 29, i32 -1167107604 }
@"_SM7__constG2-54" = private unnamed_addr constant { ptr, i32, i32, [28 x i16] } { ptr @"_SM35scala.scalanative.runtime.CharArrayG4type", i32 28, i32 2, [28 x i16] [ i16 115, i16 99, i16 97, i16 108, i16 97, i16 46, i16 114, i16 101, i16 102, i16 108, i16 101, i16 99, i16 116, i16 46, i16 65, i16 110, i16 121, i16 86, i16 97, i16 108, i16 77, i16 97, i16 110, i16 105, i16 102, i16 101, i16 115, i16 116 ] }
@"_SM7__constG2-55" = private unnamed_addr constant { ptr, ptr, i32, i32, i32 } { ptr @"_SM16java.lang.StringG4type", ptr @"_SM7__constG2-54", i32 0, i32 28, i32 1346320381 }
@"_SM7__constG2-56" = private unnamed_addr constant [2 x i32] [ i32 16, i32 -1 ]
@"_SM7__constG2-57" = private unnamed_addr constant { ptr, i32, i32, [41 x i16] } { ptr @"_SM35scala.scalanative.runtime.CharArrayG4type", i32 41, i32 2, [41 x i16] [ i16 115, i16 99, i16 97, i16 108, i16 97, i16 46, i16 114, i16 101, i16 102, i16 108, i16 101, i16 99, i16 116, i16 46, i16 67, i16 108, i16 97, i16 115, i16 115, i16 77, i16 97, i16 110, i16 105, i16 102, i16 101, i16 115, i16 116, i16 68, i16 101, i16 112, i16 114, i16 101, i16 99, i16 97, i16 116, i16 101, i16 100, i16 65, i16 112, i16 105, i16 115 ] }
@"_SM7__constG2-58" = private unnamed_addr constant { ptr, ptr, i32, i32, i32 } { ptr @"_SM16java.lang.StringG4type", ptr @"_SM7__constG2-57", i32 0, i32 41, i32 -1500824294 }
@"_SM7__constG2-59" = private unnamed_addr constant { ptr, i32, i32, [22 x i16] } { ptr @"_SM35scala.scalanative.runtime.CharArrayG4type", i32 22, i32 2, [22 x i16] [ i16 115, i16 99, i16 97, i16 108, i16 97, i16 46, i16 114, i16 101, i16 102, i16 108, i16 101, i16 99, i16 116, i16 46, i16 67, i16 108, i16 97, i16 115, i16 115, i16 84, i16 97, i16 103 ] }
@"_SM7__constG2-60" = private unnamed_addr constant { ptr, ptr, i32, i32, i32 } { ptr @"_SM16java.lang.StringG4type", ptr @"_SM7__constG2-59", i32 0, i32 22, i32 1939807963 }
@"_SM7__constG2-61" = private unnamed_addr constant { ptr, i32, i32, [23 x i16] } { ptr @"_SM35scala.scalanative.runtime.CharArrayG4type", i32 23, i32 2, [23 x i16] [ i16 115, i16 99, i16 97, i16 108, i16 97, i16 46, i16 114, i16 101, i16 102, i16 108, i16 101, i16 99, i16 116, i16 46, i16 67, i16 108, i16 97, i16 115, i16 115, i16 84, i16 97, i16 103, i16 36 ] }
@"_SM7__constG2-62" = private unnamed_addr constant { ptr, ptr, i32, i32, i32 } { ptr @"_SM16java.lang.StringG4type", ptr @"_SM7__constG2-61", i32 0, i32 23, i32 4504745 }
@"_SM7__constG2-63" = private unnamed_addr constant [16 x i32] [ i32 8, i32 16, i32 24, i32 32, i32 40, i32 48, i32 56, i32 64, i32 72, i32 80, i32 88, i32 96, i32 104, i32 112, i32 120, i32 -1 ]
@"_SM7__constG2-64" = private unnamed_addr constant { ptr, i32, i32, [38 x i16] } { ptr @"_SM35scala.scalanative.runtime.CharArrayG4type", i32 38, i32 2, [38 x i16] [ i16 115, i16 99, i16 97, i16 108, i16 97, i16 46, i16 114, i16 101, i16 102, i16 108, i16 101, i16 99, i16 116, i16 46, i16 67, i16 108, i16 97, i16 115, i16 115, i16 84, i16 97, i16 103, i16 36, i16 71, i16 101, i16 110, i16 101, i16 114, i16 105, i16 99, i16 67, i16 108, i16 97, i16 115, i16 115, i16 84, i16 97, i16 103 ] }
@"_SM7__constG2-65" = private unnamed_addr constant { ptr, ptr, i32, i32, i32 } { ptr @"_SM16java.lang.StringG4type", ptr @"_SM7__constG2-64", i32 0, i32 38, i32 -2000476656 }
@"_SM7__constG2-66" = private unnamed_addr constant { ptr, i32, i32, [22 x i16] } { ptr @"_SM35scala.scalanative.runtime.CharArrayG4type", i32 22, i32 2, [22 x i16] [ i16 115, i16 99, i16 97, i16 108, i16 97, i16 46, i16 114, i16 101, i16 102, i16 108, i16 101, i16 99, i16 116, i16 46, i16 77, i16 97, i16 110, i16 105, i16 102, i16 101, i16 115, i16 116 ] }
@"_SM7__constG2-67" = private unnamed_addr constant { ptr, ptr, i32, i32, i32 } { ptr @"_SM16java.lang.StringG4type", ptr @"_SM7__constG2-66", i32 0, i32 22, i32 1378009608 }
@"_SM7__constG2-68" = private unnamed_addr constant { ptr, i32, i32, [42 x i16] } { ptr @"_SM35scala.scalanative.runtime.CharArrayG4type", i32 42, i32 2, [42 x i16] [ i16 115, i16 99, i16 97, i16 108, i16 97, i16 46, i16 114, i16 101, i16 102, i16 108, i16 101, i16 99, i16 116, i16 46, i16 77, i16 97, i16 110, i16 105, i16 102, i16 101, i16 115, i16 116, i16 70, i16 97, i16 99, i16 116, i16 111, i16 114, i16 121, i16 36, i16 65, i16 110, i16 121, i16 77, i16 97, i16 110, i16 105, i16 102, i16 101, i16 115, i16 116, i16 36 ] }
@"_SM7__constG2-69" = private unnamed_addr constant { ptr, ptr, i32, i32, i32 } { ptr @"_SM16java.lang.StringG4type", ptr @"_SM7__constG2-68", i32 0, i32 42, i32 -45951253 }
@"_SM7__constG2-70" = private unnamed_addr constant [5 x i32] [ i32 8, i32 16, i32 24, i32 40, i32 -1 ]
@"_SM7__constG2-71" = private unnamed_addr constant { ptr, i32, i32, [45 x i16] } { ptr @"_SM35scala.scalanative.runtime.CharArrayG4type", i32 45, i32 2, [45 x i16] [ i16 115, i16 99, i16 97, i16 108, i16 97, i16 46, i16 114, i16 101, i16 102, i16 108, i16 101, i16 99, i16 116, i16 46, i16 77, i16 97, i16 110, i16 105, i16 102, i16 101, i16 115, i16 116, i16 70, i16 97, i16 99, i16 116, i16 111, i16 114, i16 121, i16 36, i16 65, i16 110, i16 121, i16 86, i16 97, i16 108, i16 77, i16 97, i16 110, i16 105, i16 102, i16 101, i16 115, i16 116, i16 36 ] }
@"_SM7__constG2-72" = private unnamed_addr constant { ptr, ptr, i32, i32, i32 } { ptr @"_SM16java.lang.StringG4type", ptr @"_SM7__constG2-71", i32 0, i32 45, i32 760989406 }
@"_SM7__constG2-73" = private unnamed_addr constant { ptr, i32, i32, [45 x i16] } { ptr @"_SM35scala.scalanative.runtime.CharArrayG4type", i32 45, i32 2, [45 x i16] [ i16 115, i16 99, i16 97, i16 108, i16 97, i16 46, i16 114, i16 101, i16 102, i16 108, i16 101, i16 99, i16 116, i16 46, i16 77, i16 97, i16 110, i16 105, i16 102, i16 101, i16 115, i16 116, i16 70, i16 97, i16 99, i16 116, i16 111, i16 114, i16 121, i16 36, i16 66, i16 111, i16 111, i16 108, i16 101, i16 97, i16 110, i16 77, i16 97, i16 110, i16 105, i16 102, i16 101, i16 115, i16 116 ] }
@"_SM7__constG2-74" = private unnamed_addr constant { ptr, ptr, i32, i32, i32 } { ptr @"_SM16java.lang.StringG4type", ptr @"_SM7__constG2-73", i32 0, i32 45, i32 -303928427 }
@"_SM7__constG2-75" = private unnamed_addr constant { ptr, i32, i32, [46 x i16] } { ptr @"_SM35scala.scalanative.runtime.CharArrayG4type", i32 46, i32 2, [46 x i16] [ i16 115, i16 99, i16 97, i16 108, i16 97, i16 46, i16 114, i16 101, i16 102, i16 108, i16 101, i16 99, i16 116, i16 46, i16 77, i16 97, i16 110, i16 105, i16 102, i16 101, i16 115, i16 116, i16 70, i16 97, i16 99, i16 116, i16 111, i16 114, i16 121, i16 36, i16 66, i16 111, i16 111, i16 108, i16 101, i16 97, i16 110, i16 77, i16 97, i16 110, i16 105, i16 102, i16 101, i16 115, i16 116, i16 36 ] }
@"_SM7__constG2-76" = private unnamed_addr constant { ptr, ptr, i32, i32, i32 } { ptr @"_SM16java.lang.StringG4type", ptr @"_SM7__constG2-75", i32 0, i32 46, i32 -831846609 }
@"_SM7__constG2-77" = private unnamed_addr constant { ptr, i32, i32, [42 x i16] } { ptr @"_SM35scala.scalanative.runtime.CharArrayG4type", i32 42, i32 2, [42 x i16] [ i16 115, i16 99, i16 97, i16 108, i16 97, i16 46, i16 114, i16 101, i16 102, i16 108, i16 101, i16 99, i16 116, i16 46, i16 77, i16 97, i16 110, i16 105, i16 102, i16 101, i16 115, i16 116, i16 70, i16 97, i16 99, i16 116, i16 111, i16 114, i16 121, i16 36, i16 66, i16 121, i16 116, i16 101, i16 77, i16 97, i16 110, i16 105, i16 102, i16 101, i16 115, i16 116 ] }
@"_SM7__constG2-78" = private unnamed_addr constant { ptr, ptr, i32, i32, i32 } { ptr @"_SM16java.lang.StringG4type", ptr @"_SM7__constG2-77", i32 0, i32 42, i32 -953312519 }
@"_SM7__constG2-79" = private unnamed_addr constant { ptr, i32, i32, [43 x i16] } { ptr @"_SM35scala.scalanative.runtime.CharArrayG4type", i32 43, i32 2, [43 x i16] [ i16 115, i16 99, i16 97, i16 108, i16 97, i16 46, i16 114, i16 101, i16 102, i16 108, i16 101, i16 99, i16 116, i16 46, i16 77, i16 97, i16 110, i16 105, i16 102, i16 101, i16 115, i16 116, i16 70, i16 97, i16 99, i16 116, i16 111, i16 114, i16 121, i16 36, i16 66, i16 121, i16 116, i16 101, i16 77, i16 97, i16 110, i16 105, i16 102, i16 101, i16 115, i16 116, i16 36 ] }
@"_SM7__constG2-80" = private unnamed_addr constant { ptr, ptr, i32, i32, i32 } { ptr @"_SM16java.lang.StringG4type", ptr @"_SM7__constG2-79", i32 0, i32 43, i32 512083019 }
@"_SM7__constG2-81" = private unnamed_addr constant { ptr, i32, i32, [42 x i16] } { ptr @"_SM35scala.scalanative.runtime.CharArrayG4type", i32 42, i32 2, [42 x i16] [ i16 115, i16 99, i16 97, i16 108, i16 97, i16 46, i16 114, i16 101, i16 102, i16 108, i16 101, i16 99, i16 116, i16 46, i16 77, i16 97, i16 110, i16 105, i16 102, i16 101, i16 115, i16 116, i16 70, i16 97, i16 99, i16 116, i16 111, i16 114, i16 121, i16 36, i16 67, i16 104, i16 97, i16 114, i16 77, i16 97, i16 110, i16 105, i16 102, i16 101, i16 115, i16 116 ] }
@"_SM7__constG2-82" = private unnamed_addr constant { ptr, ptr, i32, i32, i32 } { ptr @"_SM16java.lang.StringG4type", ptr @"_SM7__constG2-81", i32 0, i32 42, i32 1370857287 }
@"_SM7__constG2-83" = private unnamed_addr constant { ptr, i32, i32, [43 x i16] } { ptr @"_SM35scala.scalanative.runtime.CharArrayG4type", i32 43, i32 2, [43 x i16] [ i16 115, i16 99, i16 97, i16 108, i16 97, i16 46, i16 114, i16 101, i16 102, i16 108, i16 101, i16 99, i16 116, i16 46, i16 77, i16 97, i16 110, i16 105, i16 102, i16 101, i16 115, i16 116, i16 70, i16 97, i16 99, i16 116, i16 111, i16 114, i16 121, i16 36, i16 67, i16 104, i16 97, i16 114, i16 77, i16 97, i16 110, i16 105, i16 102, i16 101, i16 115, i16 116, i16 36 ] }
@"_SM7__constG2-84" = private unnamed_addr constant { ptr, ptr, i32, i32, i32 } { ptr @"_SM16java.lang.StringG4type", ptr @"_SM7__constG2-83", i32 0, i32 43, i32 -453097027 }
@"_SM7__constG2-85" = private unnamed_addr constant { ptr, i32, i32, [47 x i16] } { ptr @"_SM35scala.scalanative.runtime.CharArrayG4type", i32 47, i32 2, [47 x i16] [ i16 115, i16 99, i16 97, i16 108, i16 97, i16 46, i16 114, i16 101, i16 102, i16 108, i16 101, i16 99, i16 116, i16 46, i16 77, i16 97, i16 110, i16 105, i16 102, i16 101, i16 115, i16 116, i16 70, i16 97, i16 99, i16 116, i16 111, i16 114, i16 121, i16 36, i16 67, i16 108, i16 97, i16 115, i16 115, i16 84, i16 121, i16 112, i16 101, i16 77, i16 97, i16 110, i16 105, i16 102, i16 101, i16 115, i16 116 ] }
@"_SM7__constG2-86" = private unnamed_addr constant { ptr, ptr, i32, i32, i32 } { ptr @"_SM16java.lang.StringG4type", ptr @"_SM7__constG2-85", i32 0, i32 47, i32 -1263528257 }
@"_SM7__constG2-87" = private unnamed_addr constant { ptr, i32, i32, [44 x i16] } { ptr @"_SM35scala.scalanative.runtime.CharArrayG4type", i32 44, i32 2, [44 x i16] [ i16 115, i16 99, i16 97, i16 108, i16 97, i16 46, i16 114, i16 101, i16 102, i16 108, i16 101, i16 99, i16 116, i16 46, i16 77, i16 97, i16 110, i16 105, i16 102, i16 101, i16 115, i16 116, i16 70, i16 97, i16 99, i16 116, i16 111, i16 114, i16 121, i16 36, i16 68, i16 111, i16 117, i16 98, i16 108, i16 101, i16 77, i16 97, i16 110, i16 105, i16 102, i16 101, i16 115, i16 116 ] }
@"_SM7__constG2-88" = private unnamed_addr constant { ptr, ptr, i32, i32, i32 } { ptr @"_SM16java.lang.StringG4type", ptr @"_SM7__constG2-87", i32 0, i32 44, i32 1449819202 }
@"_SM7__constG2-89" = private unnamed_addr constant { ptr, i32, i32, [45 x i16] } { ptr @"_SM35scala.scalanative.runtime.CharArrayG4type", i32 45, i32 2, [45 x i16] [ i16 115, i16 99, i16 97, i16 108, i16 97, i16 46, i16 114, i16 101, i16 102, i16 108, i16 101, i16 99, i16 116, i16 46, i16 77, i16 97, i16 110, i16 105, i16 102, i16 101, i16 115, i16 116, i16 70, i16 97, i16 99, i16 116, i16 111, i16 114, i16 121, i16 36, i16 68, i16 111, i16 117, i16 98, i16 108, i16 101, i16 77, i16 97, i16 110, i16 105, i16 102, i16 101, i16 115, i16 116, i16 36 ] }
@"_SM7__constG2-90" = private unnamed_addr constant { ptr, ptr, i32, i32, i32 } { ptr @"_SM16java.lang.StringG4type", ptr @"_SM7__constG2-89", i32 0, i32 45, i32 1994722338 }
@"_SM7__constG2-91" = private unnamed_addr constant { ptr, i32, i32, [43 x i16] } { ptr @"_SM35scala.scalanative.runtime.CharArrayG4type", i32 43, i32 2, [43 x i16] [ i16 115, i16 99, i16 97, i16 108, i16 97, i16 46, i16 114, i16 101, i16 102, i16 108, i16 101, i16 99, i16 116, i16 46, i16 77, i16 97, i16 110, i16 105, i16 102, i16 101, i16 115, i16 116, i16 70, i16 97, i16 99, i16 116, i16 111, i16 114, i16 121, i16 36, i16 70, i16 108, i16 111, i16 97, i16 116, i16 77, i16 97, i16 110, i16 105, i16 102, i16 101, i16 115, i16 116 ] }
@"_SM7__constG2-92" = private unnamed_addr constant { ptr, ptr, i32, i32, i32 } { ptr @"_SM16java.lang.StringG4type", ptr @"_SM7__constG2-91", i32 0, i32 43, i32 -1933157047 }
@"_SM7__constG2-93" = private unnamed_addr constant { ptr, i32, i32, [44 x i16] } { ptr @"_SM35scala.scalanative.runtime.CharArrayG4type", i32 44, i32 2, [44 x i16] [ i16 115, i16 99, i16 97, i16 108, i16 97, i16 46, i16 114, i16 101, i16 102, i16 108, i16 101, i16 99, i16 116, i16 46, i16 77, i16 97, i16 110, i16 105, i16 102, i16 101, i16 115, i16 116, i16 70, i16 97, i16 99, i16 116, i16 111, i16 114, i16 121, i16 36, i16 70, i16 108, i16 111, i16 97, i16 116, i16 77, i16 97, i16 110, i16 105, i16 102, i16 101, i16 115, i16 116, i16 36 ] }
@"_SM7__constG2-94" = private unnamed_addr constant { ptr, ptr, i32, i32, i32 } { ptr @"_SM16java.lang.StringG4type", ptr @"_SM7__constG2-93", i32 0, i32 44, i32 201673723 }
@"_SM7__constG2-95" = private unnamed_addr constant { ptr, i32, i32, [41 x i16] } { ptr @"_SM35scala.scalanative.runtime.CharArrayG4type", i32 41, i32 2, [41 x i16] [ i16 115, i16 99, i16 97, i16 108, i16 97, i16 46, i16 114, i16 101, i16 102, i16 108, i16 101, i16 99, i16 116, i16 46, i16 77, i16 97, i16 110, i16 105, i16 102, i16 101, i16 115, i16 116, i16 70, i16 97, i16 99, i16 116, i16 111, i16 114, i16 121, i16 36, i16 73, i16 110, i16 116, i16 77, i16 97, i16 110, i16 105, i16 102, i16 101, i16 115, i16 116 ] }
@"_SM7__constG2-96" = private unnamed_addr constant { ptr, ptr, i32, i32, i32 } { ptr @"_SM16java.lang.StringG4type", ptr @"_SM7__constG2-95", i32 0, i32 41, i32 -352116900 }
@"_SM7__constG2-97" = private unnamed_addr constant { ptr, i32, i32, [42 x i16] } { ptr @"_SM35scala.scalanative.runtime.CharArrayG4type", i32 42, i32 2, [42 x i16] [ i16 115, i16 99, i16 97, i16 108, i16 97, i16 46, i16 114, i16 101, i16 102, i16 108, i16 101, i16 99, i16 116, i16 46, i16 77, i16 97, i16 110, i16 105, i16 102, i16 101, i16 115, i16 116, i16 70, i16 97, i16 99, i16 116, i16 111, i16 114, i16 121, i16 36, i16 73, i16 110, i16 116, i16 77, i16 97, i16 110, i16 105, i16 102, i16 101, i16 115, i16 116, i16 36 ] }
@"_SM7__constG2-98" = private unnamed_addr constant { ptr, ptr, i32, i32, i32 } { ptr @"_SM16java.lang.StringG4type", ptr @"_SM7__constG2-97", i32 0, i32 42, i32 1969278024 }
@"_SM7__constG2-99" = private unnamed_addr constant { ptr, i32, i32, [42 x i16] } { ptr @"_SM35scala.scalanative.runtime.CharArrayG4type", i32 42, i32 2, [42 x i16] [ i16 115, i16 99, i16 97, i16 108, i16 97, i16 46, i16 114, i16 101, i16 102, i16 108, i16 101, i16 99, i16 116, i16 46, i16 77, i16 97, i16 110, i16 105, i16 102, i16 101, i16 115, i16 116, i16 70, i16 97, i16 99, i16 116, i16 111, i16 114, i16 121, i16 36, i16 76, i16 111, i16 110, i16 103, i16 77, i16 97, i16 110, i16 105, i16 102, i16 101, i16 115, i16 116 ] }
@"_SM7__constG3-100" = private unnamed_addr constant { ptr, ptr, i32, i32, i32 } { ptr @"_SM16java.lang.StringG4type", ptr @"_SM7__constG2-99", i32 0, i32 42, i32 -1308668819 }
@"_SM7__constG3-101" = private unnamed_addr constant { ptr, i32, i32, [43 x i16] } { ptr @"_SM35scala.scalanative.runtime.CharArrayG4type", i32 43, i32 2, [43 x i16] [ i16 115, i16 99, i16 97, i16 108, i16 97, i16 46, i16 114, i16 101, i16 102, i16 108, i16 101, i16 99, i16 116, i16 46, i16 77, i16 97, i16 110, i16 105, i16 102, i16 101, i16 115, i16 116, i16 70, i16 97, i16 99, i16 116, i16 111, i16 114, i16 121, i16 36, i16 76, i16 111, i16 110, i16 103, i16 77, i16 97, i16 110, i16 105, i16 102, i16 101, i16 115, i16 116, i16 36 ] }
@"_SM7__constG3-102" = private unnamed_addr constant { ptr, ptr, i32, i32, i32 } { ptr @"_SM16java.lang.StringG4type", ptr @"_SM7__constG3-101", i32 0, i32 43, i32 -1914027689 }
@"_SM7__constG3-103" = private unnamed_addr constant { ptr, i32, i32, [46 x i16] } { ptr @"_SM35scala.scalanative.runtime.CharArrayG4type", i32 46, i32 2, [46 x i16] [ i16 115, i16 99, i16 97, i16 108, i16 97, i16 46, i16 114, i16 101, i16 102, i16 108, i16 101, i16 99, i16 116, i16 46, i16 77, i16 97, i16 110, i16 105, i16 102, i16 101, i16 115, i16 116, i16 70, i16 97, i16 99, i16 116, i16 111, i16 114, i16 121, i16 36, i16 78, i16 111, i16 116, i16 104, i16 105, i16 110, i16 103, i16 77, i16 97, i16 110, i16 105, i16 102, i16 101, i16 115, i16 116, i16 36 ] }
@"_SM7__constG3-104" = private unnamed_addr constant { ptr, ptr, i32, i32, i32 } { ptr @"_SM16java.lang.StringG4type", ptr @"_SM7__constG3-103", i32 0, i32 46, i32 283890986 }
@"_SM7__constG3-105" = private unnamed_addr constant { ptr, i32, i32, [43 x i16] } { ptr @"_SM35scala.scalanative.runtime.CharArrayG4type", i32 43, i32 2, [43 x i16] [ i16 115, i16 99, i16 97, i16 108, i16 97, i16 46, i16 114, i16 101, i16 102, i16 108, i16 101, i16 99, i16 116, i16 46, i16 77, i16 97, i16 110, i16 105, i16 102, i16 101, i16 115, i16 116, i16 70, i16 97, i16 99, i16 116, i16 111, i16 114, i16 121, i16 36, i16 78, i16 117, i16 108, i16 108, i16 77, i16 97, i16 110, i16 105, i16 102, i16 101, i16 115, i16 116, i16 36 ] }
@"_SM7__constG3-106" = private unnamed_addr constant { ptr, ptr, i32, i32, i32 } { ptr @"_SM16java.lang.StringG4type", ptr @"_SM7__constG3-105", i32 0, i32 43, i32 884997804 }
@"_SM7__constG3-107" = private unnamed_addr constant { ptr, i32, i32, [45 x i16] } { ptr @"_SM35scala.scalanative.runtime.CharArrayG4type", i32 45, i32 2, [45 x i16] [ i16 115, i16 99, i16 97, i16 108, i16 97, i16 46, i16 114, i16 101, i16 102, i16 108, i16 101, i16 99, i16 116, i16 46, i16 77, i16 97, i16 110, i16 105, i16 102, i16 101, i16 115, i16 116, i16 70, i16 97, i16 99, i16 116, i16 111, i16 114, i16 121, i16 36, i16 79, i16 98, i16 106, i16 101, i16 99, i16 116, i16 77, i16 97, i16 110, i16 105, i16 102, i16 101, i16 115, i16 116, i16 36 ] }
@"_SM7__constG3-108" = private unnamed_addr constant { ptr, ptr, i32, i32, i32 } { ptr @"_SM16java.lang.StringG4type", ptr @"_SM7__constG3-107", i32 0, i32 45, i32 -960077708 }
@"_SM7__constG3-109" = private unnamed_addr constant { ptr, i32, i32, [45 x i16] } { ptr @"_SM35scala.scalanative.runtime.CharArrayG4type", i32 45, i32 2, [45 x i16] [ i16 115, i16 99, i16 97, i16 108, i16 97, i16 46, i16 114, i16 101, i16 102, i16 108, i16 101, i16 99, i16 116, i16 46, i16 77, i16 97, i16 110, i16 105, i16 102, i16 101, i16 115, i16 116, i16 70, i16 97, i16 99, i16 116, i16 111, i16 114, i16 121, i16 36, i16 80, i16 104, i16 97, i16 110, i16 116, i16 111, i16 109, i16 77, i16 97, i16 110, i16 105, i16 102, i16 101, i16 115, i16 116 ] }
@"_SM7__constG3-110" = private unnamed_addr constant { ptr, ptr, i32, i32, i32 } { ptr @"_SM16java.lang.StringG4type", ptr @"_SM7__constG3-109", i32 0, i32 45, i32 808509818 }
@"_SM7__constG3-111" = private unnamed_addr constant { ptr, i32, i32, [43 x i16] } { ptr @"_SM35scala.scalanative.runtime.CharArrayG4type", i32 43, i32 2, [43 x i16] [ i16 115, i16 99, i16 97, i16 108, i16 97, i16 46, i16 114, i16 101, i16 102, i16 108, i16 101, i16 99, i16 116, i16 46, i16 77, i16 97, i16 110, i16 105, i16 102, i16 101, i16 115, i16 116, i16 70, i16 97, i16 99, i16 116, i16 111, i16 114, i16 121, i16 36, i16 83, i16 104, i16 111, i16 114, i16 116, i16 77, i16 97, i16 110, i16 105, i16 102, i16 101, i16 115, i16 116 ] }
@"_SM7__constG3-112" = private unnamed_addr constant { ptr, ptr, i32, i32, i32 } { ptr @"_SM16java.lang.StringG4type", ptr @"_SM7__constG3-111", i32 0, i32 43, i32 -1014522007 }
@"_SM7__constG3-113" = private unnamed_addr constant { ptr, i32, i32, [44 x i16] } { ptr @"_SM35scala.scalanative.runtime.CharArrayG4type", i32 44, i32 2, [44 x i16] [ i16 115, i16 99, i16 97, i16 108, i16 97, i16 46, i16 114, i16 101, i16 102, i16 108, i16 101, i16 99, i16 116, i16 46, i16 77, i16 97, i16 110, i16 105, i16 102, i16 101, i16 115, i16 116, i16 70, i16 97, i16 99, i16 116, i16 111, i16 114, i16 121, i16 36, i16 83, i16 104, i16 111, i16 114, i16 116, i16 77, i16 97, i16 110, i16 105, i16 102, i16 101, i16 115, i16 116, i16 36 ] }
@"_SM7__constG3-114" = private unnamed_addr constant { ptr, ptr, i32, i32, i32 } { ptr @"_SM16java.lang.StringG4type", ptr @"_SM7__constG3-113", i32 0, i32 44, i32 -1385411109 }
@"_SM7__constG3-115" = private unnamed_addr constant { ptr, i32, i32, [42 x i16] } { ptr @"_SM35scala.scalanative.runtime.CharArrayG4type", i32 42, i32 2, [42 x i16] [ i16 115, i16 99, i16 97, i16 108, i16 97, i16 46, i16 114, i16 101, i16 102, i16 108, i16 101, i16 99, i16 116, i16 46, i16 77, i16 97, i16 110, i16 105, i16 102, i16 101, i16 115, i16 116, i16 70, i16 97, i16 99, i16 116, i16 111, i16 114, i16 121, i16 36, i16 85, i16 110, i16 105, i16 116, i16 77, i16 97, i16 110, i16 105, i16 102, i16 101, i16 115, i16 116 ] }
@"_SM7__constG3-116" = private unnamed_addr constant { ptr, ptr, i32, i32, i32 } { ptr @"_SM16java.lang.StringG4type", ptr @"_SM7__constG3-115", i32 0, i32 42, i32 610522997 }
@"_SM7__constG3-117" = private unnamed_addr constant { ptr, i32, i32, [43 x i16] } { ptr @"_SM35scala.scalanative.runtime.CharArrayG4type", i32 43, i32 2, [43 x i16] [ i16 115, i16 99, i16 97, i16 108, i16 97, i16 46, i16 114, i16 101, i16 102, i16 108, i16 101, i16 99, i16 116, i16 46, i16 77, i16 97, i16 110, i16 105, i16 102, i16 101, i16 115, i16 116, i16 70, i16 97, i16 99, i16 116, i16 111, i16 114, i16 121, i16 36, i16 85, i16 110, i16 105, i16 116, i16 77, i16 97, i16 110, i16 105, i16 102, i16 101, i16 115, i16 116, i16 36 ] }
@"_SM7__constG3-118" = private unnamed_addr constant { ptr, ptr, i32, i32, i32 } { ptr @"_SM16java.lang.StringG4type", ptr @"_SM7__constG3-117", i32 0, i32 43, i32 1746343759 }
@"_SM7__constG3-119" = private unnamed_addr constant { ptr, i32, i32, [25 x i16] } { ptr @"_SM35scala.scalanative.runtime.CharArrayG4type", i32 25, i32 2, [25 x i16] [ i16 115, i16 99, i16 97, i16 108, i16 97, i16 46, i16 114, i16 101, i16 102, i16 108, i16 101, i16 99, i16 116, i16 46, i16 79, i16 112, i16 116, i16 77, i16 97, i16 110, i16 105, i16 102, i16 101, i16 115, i16 116 ] }
@"_SM7__constG3-120" = private unnamed_addr constant { ptr, ptr, i32, i32, i32 } { ptr @"_SM16java.lang.StringG4type", ptr @"_SM7__constG3-119", i32 0, i32 25, i32 -668135543 }
@"_SM7__constG3-121" = private unnamed_addr constant { ptr, i32, i32, [33 x i16] } { ptr @"_SM35scala.scalanative.runtime.CharArrayG4type", i32 33, i32 2, [33 x i16] [ i16 115, i16 99, i16 97, i16 108, i16 97, i16 46, i16 115, i16 99, i16 97, i16 108, i16 97, i16 110, i16 97, i16 116, i16 105, i16 118, i16 101, i16 46, i16 109, i16 101, i16 109, i16 111, i16 114, i16 121, i16 46, i16 83, i16 97, i16 102, i16 101, i16 90, i16 111, i16 110, i16 101 ] }
@"_SM7__constG3-122" = private unnamed_addr constant { ptr, ptr, i32, i32, i32 } { ptr @"_SM16java.lang.StringG4type", ptr @"_SM7__constG3-121", i32 0, i32 33, i32 1096948621 }
@"_SM7__constG3-123" = private unnamed_addr constant { ptr, i32, i32, [22 x i16] } { ptr @"_SM35scala.scalanative.runtime.CharArrayG4type", i32 22, i32 2, [22 x i16] [ i16 110, i16 117, i16 108, i16 108, i16 32, i16 67, i16 111, i16 100, i16 105, i16 110, i16 103, i16 69, i16 114, i16 114, i16 111, i16 114, i16 65, i16 99, i16 116, i16 105, i16 111, i16 110 ] }
@"_SM7__constG3-124" = private unnamed_addr constant { ptr, ptr, i32, i32, i32 } { ptr @"_SM16java.lang.StringG4type", ptr @"_SM7__constG3-123", i32 0, i32 22, i32 -646354405 }
@"_SM7__constG3-125" = private unnamed_addr constant { ptr, i32, i32, [16 x i16] } { ptr @"_SM35scala.scalanative.runtime.CharArrayG4type", i32 16, i32 2, [16 x i16] [ i16 97, i16 115, i16 115, i16 101, i16 114, i16 116, i16 105, i16 111, i16 110, i16 32, i16 102, i16 97, i16 105, i16 108, i16 101, i16 100 ] }
@"_SM7__constG3-126" = private unnamed_addr constant { ptr, ptr, i32, i32, i32 } { ptr @"_SM16java.lang.StringG4type", ptr @"_SM7__constG3-125", i32 0, i32 16, i32 -1177526501 }
@"_SM7__constG3-127" = private unnamed_addr constant { ptr, i32, i32, [6 x i16] } { ptr @"_SM35scala.scalanative.runtime.CharArrayG4type", i32 6, i32 2, [6 x i16] [ i16 73, i16 71, i16 78, i16 79, i16 82, i16 69 ] }
@"_SM7__constG3-128" = private unnamed_addr constant { ptr, ptr, i32, i32, i32 } { ptr @"_SM16java.lang.StringG4type", ptr @"_SM7__constG3-127", i32 0, i32 6, i32 -2137067054 }
@"_SM7__constG3-129" = private unnamed_addr constant { ptr, i32, i32, [7 x i16] } { ptr @"_SM35scala.scalanative.runtime.CharArrayG4type", i32 7, i32 2, [7 x i16] [ i16 82, i16 69, i16 80, i16 76, i16 65, i16 67, i16 69 ] }
@"_SM7__constG3-130" = private unnamed_addr constant { ptr, ptr, i32, i32, i32 } { ptr @"_SM16java.lang.StringG4type", ptr @"_SM7__constG3-129", i32 0, i32 7, i32 1812479636 }
@"_SM7__constG3-131" = private unnamed_addr constant { ptr, i32, i32, [6 x i16] } { ptr @"_SM35scala.scalanative.runtime.CharArrayG4type", i32 6, i32 2, [6 x i16] [ i16 82, i16 69, i16 80, i16 79, i16 82, i16 84 ] }
@"_SM7__constG3-132" = private unnamed_addr constant { ptr, ptr, i32, i32, i32 } { ptr @"_SM16java.lang.StringG4type", ptr @"_SM7__constG3-131", i32 0, i32 6, i32 -1881192140 }
@"_SM7__constG3-133" = private unnamed_addr constant { ptr, i32, i32, [15 x i16] } { ptr @"_SM35scala.scalanative.runtime.CharArrayG4type", i32 15, i32 2, [15 x i16] [ i16 73, i16 110, i16 112, i16 117, i16 116, i16 32, i16 108, i16 101, i16 110, i16 103, i16 116, i16 104, i16 32, i16 61, i16 32 ] }
@"_SM7__constG3-134" = private unnamed_addr constant { ptr, ptr, i32, i32, i32 } { ptr @"_SM16java.lang.StringG4type", ptr @"_SM7__constG3-133", i32 0, i32 15, i32 -2060905977 }
@"_SM7__constG3-135" = private unnamed_addr constant { ptr, i32, i32, [4 x i16] } { ptr @"_SM35scala.scalanative.runtime.CharArrayG4type", i32 4, i32 2, [4 x i16] [ i16 32, i16 45, i16 62, i16 32 ] }
@"_SM7__constG3-136" = private unnamed_addr constant { ptr, ptr, i32, i32, i32 } { ptr @"_SM16java.lang.StringG4type", ptr @"_SM7__constG3-135", i32 0, i32 4, i32 998511 }
@"_SM7__constG3-137" = private unnamed_addr constant { ptr, i32, i32, [4 x i16] } { ptr @"_SM35scala.scalanative.runtime.CharArrayG4type", i32 4, i32 2, [4 x i16] [ i16 110, i16 117, i16 108, i16 108 ] }
@"_SM7__constG3-138" = private unnamed_addr constant { ptr, ptr, i32, i32, i32 } { ptr @"_SM16java.lang.StringG4type", ptr @"_SM7__constG3-137", i32 0, i32 4, i32 3392903 }
@"_SM7__constG3-139" = private unnamed_addr constant { ptr, i32, i32, [2 x i16] } { ptr @"_SM35scala.scalanative.runtime.CharArrayG4type", i32 2, i32 2, [2 x i16] [ i16 58, i16 32 ] }
@"_SM7__constG3-140" = private unnamed_addr constant { ptr, ptr, i32, i32, i32 } { ptr @"_SM16java.lang.StringG4type", ptr @"_SM7__constG3-139", i32 0, i32 2, i32 1830 }
@"_SM7__constG3-141" = private unnamed_addr constant { ptr, i32, i32, [18 x i16] } { ptr @"_SM35scala.scalanative.runtime.CharArrayG4type", i32 18, i32 2, [18 x i16] [ i16 79, i16 112, i16 101, i16 114, i16 97, i16 116, i16 105, i16 111, i16 110, i16 32, i16 111, i16 110, i16 32, i16 102, i16 105, i16 108, i16 101, i16 32 ] }
@"_SM7__constG3-142" = private unnamed_addr constant { ptr, ptr, i32, i32, i32 } { ptr @"_SM16java.lang.StringG4type", ptr @"_SM7__constG3-141", i32 0, i32 18, i32 -685989028 }
@"_SM7__constG3-143" = private unnamed_addr constant { ptr, i32, i32, [9 x i16] } { ptr @"_SM35scala.scalanative.runtime.CharArrayG4type", i32 9, i32 2, [9 x i16] [ i16 32, i16 102, i16 97, i16 105, i16 108, i16 101, i16 100, i16 58, i16 32 ] }
@"_SM7__constG3-144" = private unnamed_addr constant { ptr, ptr, i32, i32, i32 } { ptr @"_SM16java.lang.StringG4type", ptr @"_SM7__constG3-143", i32 0, i32 9, i32 -1328521149 }
@"_SM7__constG3-145" = private unnamed_addr constant { ptr, i32, i32, [6 x i16] } { ptr @"_SM35scala.scalanative.runtime.CharArrayG4type", i32 6, i32 2, [6 x i16] [ i16 65, i16 114, i16 114, i16 97, i16 121, i16 91 ] }
@"_SM7__constG3-146" = private unnamed_addr constant { ptr, ptr, i32, i32, i32 } { ptr @"_SM16java.lang.StringG4type", ptr @"_SM7__constG3-145", i32 0, i32 6, i32 1969669442 }
@"_SM7__constG3-147" = private unnamed_addr constant { ptr, i32, i32, [1 x i16] } { ptr @"_SM35scala.scalanative.runtime.CharArrayG4type", i32 1, i32 2, [1 x i16] [ i16 93 ] }
@"_SM7__constG3-148" = private unnamed_addr constant { ptr, ptr, i32, i32, i32 } { ptr @"_SM16java.lang.StringG4type", ptr @"_SM7__constG3-147", i32 0, i32 1, i32 93 }
@"_SM7__constG3-149" = private unnamed_addr constant { ptr, i32, i32, [3 x i16] } { ptr @"_SM35scala.scalanative.runtime.CharArrayG4type", i32 3, i32 2, [3 x i16] [ i16 65, i16 110, i16 121 ] }
@"_SM7__constG3-150" = private unnamed_addr constant { ptr, ptr, i32, i32, i32 } { ptr @"_SM16java.lang.StringG4type", ptr @"_SM7__constG3-149", i32 0, i32 3, i32 65996 }
@"_SM7__constG3-151" = private unnamed_addr constant { ptr, i32, i32, [6 x i16] } { ptr @"_SM35scala.scalanative.runtime.CharArrayG4type", i32 6, i32 2, [6 x i16] [ i16 65, i16 110, i16 121, i16 86, i16 97, i16 108 ] }
@"_SM7__constG3-152" = private unnamed_addr constant { ptr, ptr, i32, i32, i32 } { ptr @"_SM16java.lang.StringG4type", ptr @"_SM7__constG3-151", i32 0, i32 6, i32 1966172597 }
@"_SM7__constG3-153" = private unnamed_addr constant { ptr, i32, i32, [7 x i16] } { ptr @"_SM35scala.scalanative.runtime.CharArrayG4type", i32 7, i32 2, [7 x i16] [ i16 66, i16 111, i16 111, i16 108, i16 101, i16 97, i16 110 ] }
@"_SM7__constG3-154" = private unnamed_addr constant { ptr, ptr, i32, i32, i32 } { ptr @"_SM16java.lang.StringG4type", ptr @"_SM7__constG3-153", i32 0, i32 7, i32 1729365000 }
@"_SM7__constG3-155" = private unnamed_addr constant { ptr, i32, i32, [4 x i16] } { ptr @"_SM35scala.scalanative.runtime.CharArrayG4type", i32 4, i32 2, [4 x i16] [ i16 66, i16 121, i16 116, i16 101 ] }
@"_SM7__constG3-156" = private unnamed_addr constant { ptr, ptr, i32, i32, i32 } { ptr @"_SM16java.lang.StringG4type", ptr @"_SM7__constG3-155", i32 0, i32 4, i32 2086184 }
@"_SM7__constG3-157" = private unnamed_addr constant { ptr, i32, i32, [4 x i16] } { ptr @"_SM35scala.scalanative.runtime.CharArrayG4type", i32 4, i32 2, [4 x i16] [ i16 67, i16 104, i16 97, i16 114 ] }
@"_SM7__constG3-158" = private unnamed_addr constant { ptr, ptr, i32, i32, i32 } { ptr @"_SM16java.lang.StringG4type", ptr @"_SM7__constG3-157", i32 0, i32 4, i32 2099062 }
@"_SM7__constG3-159" = private unnamed_addr constant { ptr, i32, i32, [6 x i16] } { ptr @"_SM35scala.scalanative.runtime.CharArrayG4type", i32 6, i32 2, [6 x i16] [ i16 68, i16 111, i16 117, i16 98, i16 108, i16 101 ] }
@"_SM7__constG3-160" = private unnamed_addr constant { ptr, ptr, i32, i32, i32 } { ptr @"_SM16java.lang.StringG4type", ptr @"_SM7__constG3-159", i32 0, i32 6, i32 2052876273 }
@"_SM7__constG3-161" = private unnamed_addr constant { ptr, i32, i32, [5 x i16] } { ptr @"_SM35scala.scalanative.runtime.CharArrayG4type", i32 5, i32 2, [5 x i16] [ i16 70, i16 108, i16 111, i16 97, i16 116 ] }
@"_SM7__constG3-162" = private unnamed_addr constant { ptr, ptr, i32, i32, i32 } { ptr @"_SM16java.lang.StringG4type", ptr @"_SM7__constG3-161", i32 0, i32 5, i32 67973692 }
@"_SM7__constG3-163" = private unnamed_addr constant { ptr, i32, i32, [3 x i16] } { ptr @"_SM35scala.scalanative.runtime.CharArrayG4type", i32 3, i32 2, [3 x i16] [ i16 73, i16 110, i16 116 ] }
@"_SM7__constG3-164" = private unnamed_addr constant { ptr, ptr, i32, i32, i32 } { ptr @"_SM16java.lang.StringG4type", ptr @"_SM7__constG3-163", i32 0, i32 3, i32 73679 }
@"_SM7__constG3-165" = private unnamed_addr constant { ptr, i32, i32, [4 x i16] } { ptr @"_SM35scala.scalanative.runtime.CharArrayG4type", i32 4, i32 2, [4 x i16] [ i16 76, i16 111, i16 110, i16 103 ] }
@"_SM7__constG3-166" = private unnamed_addr constant { ptr, ptr, i32, i32, i32 } { ptr @"_SM16java.lang.StringG4type", ptr @"_SM7__constG3-165", i32 0, i32 4, i32 2374300 }
@"_SM7__constG3-167" = private unnamed_addr constant { ptr, i32, i32, [7 x i16] } { ptr @"_SM35scala.scalanative.runtime.CharArrayG4type", i32 7, i32 2, [7 x i16] [ i16 78, i16 111, i16 116, i16 104, i16 105, i16 110, i16 103 ] }
@"_SM7__constG3-168" = private unnamed_addr constant { ptr, ptr, i32, i32, i32 } { ptr @"_SM16java.lang.StringG4type", ptr @"_SM7__constG3-167", i32 0, i32 7, i32 -500990035 }
@"_SM7__constG3-169" = private unnamed_addr constant { ptr, i32, i32, [4 x i16] } { ptr @"_SM35scala.scalanative.runtime.CharArrayG4type", i32 4, i32 2, [4 x i16] [ i16 78, i16 117, i16 108, i16 108 ] }
@"_SM7__constG3-170" = private unnamed_addr constant { ptr, ptr, i32, i32, i32 } { ptr @"_SM16java.lang.StringG4type", ptr @"_SM7__constG3-169", i32 0, i32 4, i32 2439591 }
@"_SM7__constG3-171" = private unnamed_addr constant { ptr, i32, i32, [6 x i16] } { ptr @"_SM35scala.scalanative.runtime.CharArrayG4type", i32 6, i32 2, [6 x i16] [ i16 79, i16 98, i16 106, i16 101, i16 99, i16 116 ] }
@"_SM7__constG3-172" = private unnamed_addr constant { ptr, ptr, i32, i32, i32 } { ptr @"_SM16java.lang.StringG4type", ptr @"_SM7__constG3-171", i32 0, i32 6, i32 -1939501217 }
@"_SM7__constG3-173" = private unnamed_addr constant { ptr, i32, i32, [5 x i16] } { ptr @"_SM35scala.scalanative.runtime.CharArrayG4type", i32 5, i32 2, [5 x i16] [ i16 83, i16 104, i16 111, i16 114, i16 116 ] }
@"_SM7__constG3-174" = private unnamed_addr constant { ptr, ptr, i32, i32, i32 } { ptr @"_SM16java.lang.StringG4type", ptr @"_SM7__constG3-173", i32 0, i32 5, i32 79860828 }
@"_SM7__constG3-175" = private unnamed_addr constant { ptr, i32, i32, [4 x i16] } { ptr @"_SM35scala.scalanative.runtime.CharArrayG4type", i32 4, i32 2, [4 x i16] [ i16 85, i16 110, i16 105, i16 116 ] }
@"_SM7__constG3-176" = private unnamed_addr constant { ptr, ptr, i32, i32, i32 } { ptr @"_SM16java.lang.StringG4type", ptr @"_SM7__constG3-175", i32 0, i32 4, i32 2641316 }
@"_SM36scala.scalanative.runtime.CharArray$G8instance" = external global { ptr }
@"_SM38scala.scalanative.runtime.DoubleArray$G8instance" = external global { ptr }

declare dereferenceable_or_null(16) ptr @"_SM33scala.scalanative.unsafe.package$G4load"() noinline
@"_SM38scala.scalanative.runtime.PrimitiveIntG4type" = external global { { ptr, i32, i32, ptr }, i32, i32, ptr, [0 x ptr] }

declare nonnull dereferenceable(32) ptr @"_SM31java.lang.AbstractStringBuilderD8toStringL16java.lang.StringEO"(ptr)
@"_SM37scala.scalanative.runtime.ShortArray$G8instance" = external global { ptr }

declare dereferenceable_or_null(48) ptr @"_SM19java.nio.CharBufferD3putL19java.nio.CharBufferL19java.nio.CharBufferEO"(ptr, ptr) noinline
@"_SM39scala.scalanative.runtime.PrimitiveCharG4type" = external global { { ptr, i32, i32, ptr }, i32, i32, ptr, [0 x ptr] }
@"_SM31java.lang.IllegalStateExceptionG4type" = external global { { ptr, i32, i32, ptr }, i32, i32, ptr, [4 x ptr] }

declare dereferenceable_or_null(16) ptr @"_SM32scala.scalanative.runtime.Boxes$D8boxToPtrR_L28scala.scalanative.unsafe.PtrEO"(ptr, ptr) inlinehint
@"_SM41scala.scalanative.runtime.PrimitiveDoubleG4type" = external global { { ptr, i32, i32, ptr }, i32, i32, ptr, [0 x ptr] }
@"_SM34java.lang.IllegalArgumentExceptionG4type" = external global { { ptr, i32, i32, ptr }, i32, i32, ptr, [4 x ptr] }
@"_SM42scala.scalanative.runtime.PrimitiveBooleanG4type" = external global { { ptr, i32, i32, ptr }, i32, i32, ptr, [0 x ptr] }
@"_SM24java.nio.HeapCharBuffer$G8instance" = external global { ptr }

declare dereferenceable_or_null(8) ptr @"_SM32scala.collection.mutable.HashMapD15getOrElseUpdateL16java.lang.ObjectL15scala.Function0L16java.lang.ObjectEO"(ptr, ptr, ptr)

declare dereferenceable_or_null(16) ptr @"_SM35scala.scalanative.runtime.IntArray$D5allociL34scala.scalanative.runtime.IntArrayEO"(ptr, i32) inlinehint
@"_SM36scala.scalanative.runtime.ByteArray$G8instance" = external global { ptr }
@"_SM19java.lang.ThrowableG4type" = external global { { ptr, i32, i32, ptr }, i32, i32, ptr, [4 x ptr] }

declare dereferenceable_or_null(16) ptr @"_SM36scala.scalanative.runtime.ByteArray$D5allociL35scala.scalanative.runtime.ByteArrayEO"(ptr, i32) inlinehint

declare dereferenceable_or_null(16) ptr @"_SM22java.lang.ThreadLocal$G4load"() noinline
@"_SM39java.lang.UnsupportedOperationExceptionG4type" = external global { { ptr, i32, i32, ptr }, i32, i32, ptr, [4 x ptr] }

declare ptr @"_SM34scala.scalanative.runtime.package$D16throwNullPointernEO"(ptr) noinline

declare dereferenceable_or_null(16) ptr @"_SM14scala.package$D14Nil$lzycomputeL31scala.collection.immutable.Nil$EPT14scala.package$"(ptr)

declare dereferenceable_or_null(16) ptr @"_SM36scala.scalanative.runtime.CharArray$D5allociL35scala.scalanative.runtime.CharArrayEO"(ptr, i32) inlinehint
@"_SM37scala.scalanative.runtime.FloatArray$G8instance" = external global { ptr }

declare nonnull dereferenceable(56) ptr @"_SM24java.nio.HeapCharBuffer$D4wrapLAc_iiiizL19java.nio.CharBufferEO"(ptr, ptr, i32, i32, i32, i32, i1) noinline
@"_SM28scala.collection.mutable.MapG4type" = external global { ptr, i32, i32, ptr }
@"_SM23scala.runtime.LazyVals$G8instance" = external global { ptr }

declare dereferenceable_or_null(16) ptr @"_SM37scala.scalanative.runtime.FloatArray$D5allociL36scala.scalanative.runtime.FloatArrayEO"(ptr, i32) inlinehint

declare dereferenceable_or_null(16) ptr @"_SM16java.lang.Short$G4load"() noinline
@"_SM35scala.scalanative.runtime.CharArrayG4type" = external global { { ptr, i32, i32, ptr }, i32, i32, ptr, [7 x ptr] }
@"_SM19java.io.IOExceptionG4type" = external global { { ptr, i32, i32, ptr }, i32, i32, ptr, [4 x ptr] }

declare i64 @"_SM23scala.runtime.LazyVals$D5STATEjijEO"(ptr, i64, i32)

declare dereferenceable_or_null(16) ptr @"_SM39scala.scalanative.runtime.BooleanArray$D5allociL38scala.scalanative.runtime.BooleanArrayEO"(ptr, i32) inlinehint

declare dereferenceable_or_null(32) ptr @"_SM15java.lang.ClassD16getComponentTypeL15java.lang.ClassEO"(ptr)
@"_SM35scala.scalanative.runtime.LazyVals$G8instance" = external global { ptr }

declare void @"_SM35scala.scalanative.runtime.LazyVals$D7setFlagR_iiuEO"(ptr, ptr, i32, i32) inlinehint

declare i32 @"scalanative_eexist"()
@"_SM16scala.MatchErrorG4type" = external global { { ptr, i32, i32, ptr }, i32, i32, ptr, [4 x ptr] }

declare i32 @"scalanative_enoent"()
@"_SM39scala.scalanative.runtime.PrimitiveUnitG4type" = external global { { ptr, i32, i32, ptr }, i32, i32, ptr, [0 x ptr] }
@"_SM23java.lang.StringBuilderG4type" = external global { { ptr, i32, i32, ptr }, i32, i32, ptr, [3 x ptr] }

declare dereferenceable_or_null(40) ptr @"_SM19java.lang.ThrowableD16fillInStackTraceL19java.lang.ThrowableEO"(ptr)
@"_SM39scala.scalanative.runtime.BooleanArray$G8instance" = external global { ptr }

declare dereferenceable_or_null(16) ptr @"_SM36scala.scalanative.runtime.LongArray$D5allociL35scala.scalanative.runtime.LongArrayEO"(ptr, i32) inlinehint

declare dereferenceable_or_null(16) ptr @"_SM37scala.scalanative.runtime.ShortArray$D5allociL36scala.scalanative.runtime.ShortArrayEO"(ptr, i32) inlinehint

declare dereferenceable_or_null(16) ptr @"_SM29scala.collection.mutable.Map$G4load"() noinline

declare dereferenceable_or_null(48) ptr @"_SM19java.nio.CharBufferD8positioniL19java.nio.CharBufferEO"(ptr, i32) inlinehint
@"_SM14java.lang.LongG4type" = external global { { ptr, i32, i32, ptr }, i32, i32, ptr, [7 x ptr] }

declare dereferenceable_or_null(16) ptr @"_SM24niocharset.UTF_8$DecoderD10decodeLoopL19java.nio.ByteBufferL19java.nio.CharBufferL28java.nio.charset.CoderResultEO"(ptr, ptr, ptr)

declare i1 @"_SM16java.lang.ObjectD6equalsL16java.lang.ObjectzEO"(ptr, ptr) inlinehint

declare i32 @"scalanative_enotempty"()

declare dereferenceable_or_null(56) ptr @"_SM19java.nio.ByteBufferD8positioniL19java.nio.ByteBufferEO"(ptr, i32) inlinehint
@"_SM18java.lang.Integer$G8instance" = external global { ptr }
@"_SM24java.lang.reflect.Array$G8instance" = external global { ptr }
@"_SM16java.lang.StringG4type" = external global { { ptr, i32, i32, ptr }, i32, i32, ptr, [3 x ptr] }
@"_SM16java.lang.NumberG4type" = external global { { ptr, i32, i32, ptr }, i32, i32, ptr, [7 x ptr] }

declare void @"_SM31java.lang.AbstractStringBuilderD7append0L16java.lang.StringuEO"(ptr, ptr)

declare dereferenceable_or_null(24) ptr @"_SM17java.lang.String$G4load"() noinline
@"_SM36scala.scalanative.runtime.LongArray$G8instance" = external global { ptr }

declare nonnull dereferenceable(32) ptr @"_SM22java.lang.ThreadLocal$D11withInitialL27java.util.function.SupplierL21java.lang.ThreadLocalEO"(ptr, ptr)

declare dereferenceable_or_null(32) ptr @"_SM33scala.scalanative.unsafe.package$D11fromCStringL28scala.scalanative.unsafe.PtrL24java.nio.charset.CharsetL16java.lang.StringEO"(ptr, ptr, ptr)

declare dereferenceable_or_null(16) ptr @"_SM24niocharset.UTF_8$EncoderD10encodeLoopL19java.nio.CharBufferL19java.nio.ByteBufferL28java.nio.charset.CoderResultEO"(ptr, ptr, ptr)
@"_SM22scala.runtime.Nothing$G4type" = external global { { ptr, i32, i32, ptr }, i32, i32, ptr, [4 x ptr] }

declare i32 @"_SM16java.lang.ObjectD8hashCodeiEO"(ptr) inlinehint
@"_SM33java.nio.BufferUnderflowExceptionG4type" = external global { { ptr, i32, i32, ptr }, i32, i32, ptr, [4 x ptr] }

declare i32 @"_SM16java.lang.StringD8hashCodeiEO"(ptr)

declare dereferenceable_or_null(16) ptr @"_SM38scala.scalanative.runtime.ObjectArray$D5allociL37scala.scalanative.runtime.ObjectArrayEO"(ptr, i32) inlinehint

declare dereferenceable_or_null(32) ptr @"_SM19java.lang.ThrowableD8toStringL16java.lang.StringEO"(ptr)

declare dereferenceable_or_null(48) ptr @"_SM19java.nio.CharBufferD3putL16java.lang.StringL19java.nio.CharBufferEO"(ptr, ptr)

declare ptr @"_SM34scala.scalanative.runtime.package$D14throwClassCastR_R_nEO"(ptr, ptr, ptr) noinline

declare ptr @"scalanative_throw"(ptr)
@"__modules" = external global [151 x ptr]

declare i32 @"_SM15java.nio.BufferD9remainingiEO"(ptr) inlinehint
@"_SM16java.lang.DoubleG4type" = external global { { ptr, i32, i32, ptr }, i32, i32, ptr, [7 x ptr] }

declare dereferenceable_or_null(16) ptr @"_SM38scala.scalanative.runtime.DoubleArray$D5allociL37scala.scalanative.runtime.DoubleArrayEO"(ptr, i32) inlinehint
@"_SM19scala.runtime.Null$G4type" = external global { { ptr, i32, i32, ptr }, i32, i32, ptr, [3 x ptr] }

declare i32 @"scalanative_enotdir"()

declare i32 @"_SM16java.lang.StringD6lengthiEO"(ptr)
@"_SM11scala.None$G8instance" = external global { ptr }

declare i32 @"scalanative_eacces"()
@"_SM15java.lang.ClassG4type" = external global { { ptr, i32, i32, ptr }, i32, i32, ptr, [3 x ptr] }

declare ptr @"strerror"(i32)
@"_SM15java.lang.FloatG4type" = external global { { ptr, i32, i32, ptr }, i32, i32, ptr, [7 x ptr] }

declare dereferenceable_or_null(16) ptr @"_SM27scala.runtime.BoxesRunTime$D12boxToIntegeriL17java.lang.IntegerEO"(ptr, i32) inlinehint

declare nonnull dereferenceable(32) ptr @"_SM18java.lang.Integer$D8toStringiL16java.lang.StringEO"(ptr, i32)
@"_SM40scala.scalanative.runtime.PrimitiveShortG4type" = external global { { ptr, i32, i32, ptr }, i32, i32, ptr, [0 x ptr] }
@"_SM38scala.scalanative.runtime.ObjectArray$G8instance" = external global { ptr }

declare nonnull dereferenceable(8) ptr @"_SM24java.lang.reflect.Array$D11newInstanceL15java.lang.ClassiL16java.lang.ObjectEO"(ptr, ptr, i32)

declare i1 @"_SM35scala.scalanative.runtime.LazyVals$D3CASR_jiizEO"(ptr, ptr, i64, i32, i32) inlinehint

declare dereferenceable_or_null(56) ptr @"_SM19java.nio.ByteBufferD3putLAb_L19java.nio.ByteBufferEO"(ptr, ptr)

declare dereferenceable_or_null(32) ptr @"_SM19java.lang.ThrowableD10getMessageL16java.lang.StringEO"(ptr)

declare nonnull dereferenceable(32) ptr @"_SM16java.lang.ObjectD8toStringL16java.lang.StringEO"(ptr) inlinehint

declare void @"_SM16scala.MatchErrorRL16java.lang.ObjectE"(ptr, ptr)
@"_SM35scala.scalanative.runtime.IntArray$G8instance" = external global { ptr }

declare ptr @"_SM35scala.scalanative.runtime.LazyVals$D17wait4NotificationR_jiuEO"(ptr, ptr, i64, i32)

declare i1 @"__check_class_has_trait"(i32, i32) alwaysinline

declare i32 @"_SM15java.nio.BufferD8positioniEO"(ptr)

declare i64 @"_SM35scala.scalanative.runtime.LazyVals$D3getR_jEO"(ptr, ptr) alwaysinline
@"_SM32java.nio.BufferOverflowExceptionG4type" = external global { { ptr, i32, i32, ptr }, i32, i32, ptr, [4 x ptr] }
@"_SM40scala.scalanative.runtime.PrimitiveFloatG4type" = external global { { ptr, i32, i32, ptr }, i32, i32, ptr, [0 x ptr] }

declare dereferenceable_or_null(56) ptr @"_SM17niocharset.UTF_8$G4load"() noinline
@"_SM16java.lang.ObjectG4type" = external global { { ptr, i32, i32, ptr }, i32, i32, ptr, [3 x ptr] }
@"_SM24java.lang.AssertionErrorG4type" = external global { { ptr, i32, i32, ptr }, i32, i32, ptr, [4 x ptr] }

declare i1 @"_SM16java.lang.StringD6equalsL16java.lang.ObjectzEO"(ptr, ptr)
@"_SM39scala.scalanative.runtime.PrimitiveLongG4type" = external global { { ptr, i32, i32, ptr }, i32, i32, ptr, [0 x ptr] }

declare dereferenceable_or_null(24) ptr @"_SM14scala.package$G4load"() noinline
@"_SM39scala.scalanative.runtime.PrimitiveByteG4type" = external global { { ptr, i32, i32, ptr }, i32, i32, ptr, [0 x ptr] }

declare ptr @"_SM34scala.scalanative.runtime.package$D14throwUndefinednEO"(ptr) noinline
@"_SM22__scalanative_metadataG14dispatch_table" = external constant [4900 x ptr]

declare ptr @"scalanative_GC_alloc_small"(ptr, i64)
@"_SM26java.lang.impl.PosixThreadG4type" = hidden global { { ptr, i32, i32, ptr }, i32, i32, ptr, [3 x ptr] } { { ptr, i32, i32, ptr } { ptr @"_SM15java.lang.ClassG4type", i32 296, i32 -1, ptr @"_SM7__constG1-1" }, i32 48, i32 296, ptr @"_SM7__constG1-2", [3 x ptr] [ ptr @"_SM16java.lang.ObjectD8hashCodeiEO", ptr @"_SM16java.lang.ObjectD8toStringL16java.lang.StringEO", ptr @"_SM16java.lang.ObjectD6equalsL16java.lang.ObjectzEO" ] }
@"_SM27java.lang.impl.PosixThread$G4type" = hidden global { { ptr, i32, i32, ptr }, i32, i32, ptr, [3 x ptr] } { { ptr, i32, i32, ptr } { ptr @"_SM15java.lang.ClassG4type", i32 115, i32 -1, ptr @"_SM7__constG1-4" }, i32 16, i32 115, ptr @"_SM7__constG1-5", [3 x ptr] [ ptr @"_SM16java.lang.ObjectD8hashCodeiEO", ptr @"_SM16java.lang.ObjectD8toStringL16java.lang.StringEO", ptr @"_SM16java.lang.ObjectD6equalsL16java.lang.ObjectzEO" ] }
@"_SM41java.nio.charset.CharacterCodingExceptionG4type" = hidden global { { ptr, i32, i32, ptr }, i32, i32, ptr, [4 x ptr] } { { ptr, i32, i32, ptr } { ptr @"_SM15java.lang.ClassG4type", i32 227, i32 -1, ptr @"_SM7__constG1-7" }, i32 40, i32 229, ptr @"_SM7__constG1-8", [4 x ptr] [ ptr @"_SM16java.lang.ObjectD8hashCodeiEO", ptr @"_SM19java.lang.ThrowableD8toStringL16java.lang.StringEO", ptr @"_SM16java.lang.ObjectD6equalsL16java.lang.ObjectzEO", ptr @"_SM19java.lang.ThrowableD10getMessageL16java.lang.StringEO" ] }
@"_SM24java.nio.charset.CharsetG4type" = hidden global { { ptr, i32, i32, ptr }, i32, i32, ptr, [3 x ptr] } { { ptr, i32, i32, ptr } { ptr @"_SM15java.lang.ClassG4type", i32 65, i32 -1, ptr @"_SM7__constG2-10" }, i32 40, i32 66, ptr @"_SM7__constG2-11", [3 x ptr] [ ptr @"_SM24java.nio.charset.CharsetD8hashCodeiEO", ptr @"_SM24java.nio.charset.CharsetD8toStringL16java.lang.StringEO", ptr @"_SM24java.nio.charset.CharsetD6equalsL16java.lang.ObjectzEO" ] }
@"_SM25java.nio.charset.Charset$G4type" = hidden global { { ptr, i32, i32, ptr }, i32, i32, ptr, [3 x ptr] } { { ptr, i32, i32, ptr } { ptr @"_SM15java.lang.ClassG4type", i32 176, i32 -1, ptr @"_SM7__constG2-13" }, i32 8, i32 176, ptr @"_SM7__constG1-5", [3 x ptr] [ ptr @"_SM16java.lang.ObjectD8hashCodeiEO", ptr @"_SM16java.lang.ObjectD8toStringL16java.lang.StringEO", ptr @"_SM16java.lang.ObjectD6equalsL16java.lang.ObjectzEO" ] }
@"_SM25java.nio.charset.Charset$G8instance" = hidden global { ptr } { ptr @"_SM25java.nio.charset.Charset$G4type" }
@"_SM34java.nio.charset.Charset$$Lambda$1G4type" = hidden global { { ptr, i32, i32, ptr }, i32, i32, ptr, [3 x ptr] } { { ptr, i32, i32, ptr } { ptr @"_SM15java.lang.ClassG4type", i32 488, i32 -1, ptr @"_SM7__constG2-15" }, i32 16, i32 488, ptr @"_SM7__constG2-16", [3 x ptr] [ ptr @"_SM16java.lang.ObjectD8hashCodeiEO", ptr @"_SM16java.lang.ObjectD8toStringL16java.lang.StringEO", ptr @"_SM16java.lang.ObjectD6equalsL16java.lang.ObjectzEO" ] }
@"_SM31java.nio.charset.CharsetDecoderG4type" = hidden global { { ptr, i32, i32, ptr }, i32, i32, ptr, [3 x ptr] } { { ptr, i32, i32, ptr } { ptr @"_SM15java.lang.ClassG4type", i32 486, i32 -1, ptr @"_SM7__constG2-18" }, i32 56, i32 487, ptr @"_SM7__constG2-19", [3 x ptr] [ ptr @"_SM16java.lang.ObjectD8hashCodeiEO", ptr @"_SM16java.lang.ObjectD8toStringL16java.lang.StringEO", ptr @"_SM16java.lang.ObjectD6equalsL16java.lang.ObjectzEO" ] }
@"_SM31java.nio.charset.CharsetEncoderG4type" = hidden global { { ptr, i32, i32, ptr }, i32, i32, ptr, [3 x ptr] } { { ptr, i32, i32, ptr } { ptr @"_SM15java.lang.ClassG4type", i32 495, i32 -1, ptr @"_SM7__constG2-21" }, i32 56, i32 496, ptr @"_SM7__constG2-19", [3 x ptr] [ ptr @"_SM16java.lang.ObjectD8hashCodeiEO", ptr @"_SM16java.lang.ObjectD8toStringL16java.lang.StringEO", ptr @"_SM16java.lang.ObjectD6equalsL16java.lang.ObjectzEO" ] }
@"_SM38java.nio.charset.CoderMalfunctionErrorG4type" = hidden global { { ptr, i32, i32, ptr }, i32, i32, ptr, [4 x ptr] } { { ptr, i32, i32, ptr } { ptr @"_SM15java.lang.ClassG4type", i32 212, i32 -1, ptr @"_SM7__constG2-23" }, i32 40, i32 212, ptr @"_SM7__constG1-8", [4 x ptr] [ ptr @"_SM16java.lang.ObjectD8hashCodeiEO", ptr @"_SM19java.lang.ThrowableD8toStringL16java.lang.StringEO", ptr @"_SM16java.lang.ObjectD6equalsL16java.lang.ObjectzEO", ptr @"_SM19java.lang.ThrowableD10getMessageL16java.lang.StringEO" ] }
@"_SM28java.nio.charset.CoderResultG4type" = hidden global { { ptr, i32, i32, ptr }, i32, i32, ptr, [3 x ptr] } { { ptr, i32, i32, ptr } { ptr @"_SM15java.lang.ClassG4type", i32 414, i32 -1, ptr @"_SM7__constG2-25" }, i32 16, i32 414, ptr @"_SM7__constG1-5", [3 x ptr] [ ptr @"_SM16java.lang.ObjectD8hashCodeiEO", ptr @"_SM16java.lang.ObjectD8toStringL16java.lang.StringEO", ptr @"_SM16java.lang.ObjectD6equalsL16java.lang.ObjectzEO" ] }
@"_SM29java.nio.charset.CoderResult$G4type" = hidden global { { ptr, i32, i32, ptr }, i32, i32, ptr, [3 x ptr] } { { ptr, i32, i32, ptr } { ptr @"_SM15java.lang.ClassG4type", i32 22, i32 -1, ptr @"_SM7__constG2-27" }, i32 104, i32 22, ptr @"_SM7__constG2-28", [3 x ptr] [ ptr @"_SM16java.lang.ObjectD8hashCodeiEO", ptr @"_SM16java.lang.ObjectD8toStringL16java.lang.StringEO", ptr @"_SM16java.lang.ObjectD6equalsL16java.lang.ObjectzEO" ] }
@"_SM39java.nio.charset.CoderResult$$$Lambda$1G4type" = hidden global { { ptr, i32, i32, ptr }, i32, i32, ptr, [3 x ptr] } { { ptr, i32, i32, ptr } { ptr @"_SM15java.lang.ClassG4type", i32 510, i32 159, ptr @"_SM7__constG2-30" }, i32 24, i32 510, ptr @"_SM7__constG2-16", [3 x ptr] [ ptr @"_SM16java.lang.ObjectD8hashCodeiEO", ptr @"_SM16java.lang.ObjectD8toStringL16java.lang.StringEO", ptr @"_SM16java.lang.ObjectD6equalsL16java.lang.ObjectzEO" ] }
@"_SM34java.nio.charset.CodingErrorActionG4type" = hidden global { { ptr, i32, i32, ptr }, i32, i32, ptr, [3 x ptr] } { { ptr, i32, i32, ptr } { ptr @"_SM15java.lang.ClassG4type", i32 502, i32 -1, ptr @"_SM7__constG2-32" }, i32 16, i32 502, ptr @"_SM7__constG2-16", [3 x ptr] [ ptr @"_SM16java.lang.ObjectD8hashCodeiEO", ptr @"_SM34java.nio.charset.CodingErrorActionD8toStringL16java.lang.StringEO", ptr @"_SM16java.lang.ObjectD6equalsL16java.lang.ObjectzEO" ] }
@"_SM35java.nio.charset.CodingErrorAction$G4type" = hidden global { { ptr, i32, i32, ptr }, i32, i32, ptr, [3 x ptr] } { { ptr, i32, i32, ptr } { ptr @"_SM15java.lang.ClassG4type", i32 569, i32 -1, ptr @"_SM7__constG2-34" }, i32 32, i32 569, ptr @"_SM7__constG1-8", [3 x ptr] [ ptr @"_SM16java.lang.ObjectD8hashCodeiEO", ptr @"_SM16java.lang.ObjectD8toStringL16java.lang.StringEO", ptr @"_SM16java.lang.ObjectD6equalsL16java.lang.ObjectzEO" ] }
@"_SM40java.nio.charset.MalformedInputExceptionG4type" = hidden global { { ptr, i32, i32, ptr }, i32, i32, ptr, [4 x ptr] } { { ptr, i32, i32, ptr } { ptr @"_SM15java.lang.ClassG4type", i32 229, i32 -1, ptr @"_SM7__constG2-36" }, i32 40, i32 229, ptr @"_SM7__constG1-8", [4 x ptr] [ ptr @"_SM16java.lang.ObjectD8hashCodeiEO", ptr @"_SM19java.lang.ThrowableD8toStringL16java.lang.StringEO", ptr @"_SM16java.lang.ObjectD6equalsL16java.lang.ObjectzEO", ptr @"_SM40java.nio.charset.MalformedInputExceptionD10getMessageL16java.lang.StringEO" ] }
@"_SM45java.nio.charset.UnmappableCharacterExceptionG4type" = hidden global { { ptr, i32, i32, ptr }, i32, i32, ptr, [4 x ptr] } { { ptr, i32, i32, ptr } { ptr @"_SM15java.lang.ClassG4type", i32 228, i32 -1, ptr @"_SM7__constG2-38" }, i32 40, i32 228, ptr @"_SM7__constG1-8", [4 x ptr] [ ptr @"_SM16java.lang.ObjectD8hashCodeiEO", ptr @"_SM19java.lang.ThrowableD8toStringL16java.lang.StringEO", ptr @"_SM16java.lang.ObjectD6equalsL16java.lang.ObjectzEO", ptr @"_SM45java.nio.charset.UnmappableCharacterExceptionD10getMessageL16java.lang.StringEO" ] }
@"_SM35java.nio.file.AccessDeniedExceptionG4type" = hidden global { { ptr, i32, i32, ptr }, i32, i32, ptr, [4 x ptr] } { { ptr, i32, i32, ptr } { ptr @"_SM15java.lang.ClassG4type", i32 224, i32 -1, ptr @"_SM7__constG2-40" }, i32 64, i32 224, ptr @"_SM7__constG2-41", [4 x ptr] [ ptr @"_SM16java.lang.ObjectD8hashCodeiEO", ptr @"_SM19java.lang.ThrowableD8toStringL16java.lang.StringEO", ptr @"_SM16java.lang.ObjectD6equalsL16java.lang.ObjectzEO", ptr @"_SM33java.nio.file.FileSystemExceptionD10getMessageL16java.lang.StringEO" ] }
@"_SM40java.nio.file.DirectoryNotEmptyExceptionG4type" = hidden global { { ptr, i32, i32, ptr }, i32, i32, ptr, [4 x ptr] } { { ptr, i32, i32, ptr } { ptr @"_SM15java.lang.ClassG4type", i32 223, i32 -1, ptr @"_SM7__constG2-43" }, i32 64, i32 223, ptr @"_SM7__constG2-41", [4 x ptr] [ ptr @"_SM16java.lang.ObjectD8hashCodeiEO", ptr @"_SM19java.lang.ThrowableD8toStringL16java.lang.StringEO", ptr @"_SM16java.lang.ObjectD6equalsL16java.lang.ObjectzEO", ptr @"_SM33java.nio.file.FileSystemExceptionD10getMessageL16java.lang.StringEO" ] }
@"_SM40java.nio.file.FileAlreadyExistsExceptionG4type" = hidden global { { ptr, i32, i32, ptr }, i32, i32, ptr, [4 x ptr] } { { ptr, i32, i32, ptr } { ptr @"_SM15java.lang.ClassG4type", i32 225, i32 -1, ptr @"_SM7__constG2-45" }, i32 64, i32 225, ptr @"_SM7__constG2-41", [4 x ptr] [ ptr @"_SM16java.lang.ObjectD8hashCodeiEO", ptr @"_SM19java.lang.ThrowableD8toStringL16java.lang.StringEO", ptr @"_SM16java.lang.ObjectD6equalsL16java.lang.ObjectzEO", ptr @"_SM33java.nio.file.FileSystemExceptionD10getMessageL16java.lang.StringEO" ] }
@"_SM33java.nio.file.FileSystemExceptionG4type" = hidden global { { ptr, i32, i32, ptr }, i32, i32, ptr, [4 x ptr] } { { ptr, i32, i32, ptr } { ptr @"_SM15java.lang.ClassG4type", i32 221, i32 -1, ptr @"_SM7__constG2-47" }, i32 64, i32 226, ptr @"_SM7__constG2-41", [4 x ptr] [ ptr @"_SM16java.lang.ObjectD8hashCodeiEO", ptr @"_SM19java.lang.ThrowableD8toStringL16java.lang.StringEO", ptr @"_SM16java.lang.ObjectD6equalsL16java.lang.ObjectzEO", ptr @"_SM33java.nio.file.FileSystemExceptionD10getMessageL16java.lang.StringEO" ] }
@"_SM33java.nio.file.NoSuchFileExceptionG4type" = hidden global { { ptr, i32, i32, ptr }, i32, i32, ptr, [4 x ptr] } { { ptr, i32, i32, ptr } { ptr @"_SM15java.lang.ClassG4type", i32 226, i32 -1, ptr @"_SM7__constG2-49" }, i32 64, i32 226, ptr @"_SM7__constG2-41", [4 x ptr] [ ptr @"_SM16java.lang.ObjectD8hashCodeiEO", ptr @"_SM19java.lang.ThrowableD8toStringL16java.lang.StringEO", ptr @"_SM16java.lang.ObjectD6equalsL16java.lang.ObjectzEO", ptr @"_SM33java.nio.file.FileSystemExceptionD10getMessageL16java.lang.StringEO" ] }
@"_SM35java.nio.file.NotDirectoryExceptionG4type" = hidden global { { ptr, i32, i32, ptr }, i32, i32, ptr, [4 x ptr] } { { ptr, i32, i32, ptr } { ptr @"_SM15java.lang.ClassG4type", i32 222, i32 -1, ptr @"_SM7__constG2-51" }, i32 64, i32 222, ptr @"_SM7__constG2-41", [4 x ptr] [ ptr @"_SM16java.lang.ObjectD8hashCodeiEO", ptr @"_SM19java.lang.ThrowableD8toStringL16java.lang.StringEO", ptr @"_SM16java.lang.ObjectD6equalsL16java.lang.ObjectzEO", ptr @"_SM33java.nio.file.FileSystemExceptionD10getMessageL16java.lang.StringEO" ] }
@"_SM29java.nio.file.PosixException$G4type" = hidden global { { ptr, i32, i32, ptr }, i32, i32, ptr, [3 x ptr] } { { ptr, i32, i32, ptr } { ptr @"_SM15java.lang.ClassG4type", i32 191, i32 -1, ptr @"_SM7__constG2-53" }, i32 8, i32 191, ptr @"_SM7__constG1-5", [3 x ptr] [ ptr @"_SM16java.lang.ObjectD8hashCodeiEO", ptr @"_SM16java.lang.ObjectD8toStringL16java.lang.StringEO", ptr @"_SM16java.lang.ObjectD6equalsL16java.lang.ObjectzEO" ] }
@"_SM29java.nio.file.PosixException$G8instance" = hidden global { ptr } { ptr @"_SM29java.nio.file.PosixException$G4type" }
@"_SM28scala.reflect.AnyValManifestG4type" = hidden global { { ptr, i32, i32, ptr }, i32, i32, ptr, [3 x ptr] } { { ptr, i32, i32, ptr } { ptr @"_SM15java.lang.ClassG4type", i32 418, i32 -1, ptr @"_SM7__constG2-55" }, i32 24, i32 436, ptr @"_SM7__constG2-56", [3 x ptr] [ ptr @"_SM28scala.reflect.AnyValManifestD8hashCodeiEO", ptr @"_SM28scala.reflect.AnyValManifestD8toStringL16java.lang.StringEO", ptr @"_SM28scala.reflect.AnyValManifestD6equalsL16java.lang.ObjectzEO" ] }
@"_SM41scala.reflect.ClassManifestDeprecatedApisG4type" = hidden global { ptr, i32, i32, ptr } { ptr @"_SM15java.lang.ClassG4type", i32 -128, i32 -1, ptr @"_SM7__constG2-58" }
@"_SM22scala.reflect.ClassTagG4type" = hidden global { ptr, i32, i32, ptr } { ptr @"_SM15java.lang.ClassG4type", i32 -37, i32 -1, ptr @"_SM7__constG2-60" }
@"_SM23scala.reflect.ClassTag$G4type" = hidden global { { ptr, i32, i32, ptr }, i32, i32, ptr, [3 x ptr] } { { ptr, i32, i32, ptr } { ptr @"_SM15java.lang.ClassG4type", i32 568, i32 -1, ptr @"_SM7__constG2-62" }, i32 128, i32 568, ptr @"_SM7__constG2-63", [3 x ptr] [ ptr @"_SM16java.lang.ObjectD8hashCodeiEO", ptr @"_SM16java.lang.ObjectD8toStringL16java.lang.StringEO", ptr @"_SM16java.lang.ObjectD6equalsL16java.lang.ObjectzEO" ] }
@"_SM38scala.reflect.ClassTag$GenericClassTagG4type" = hidden global { { ptr, i32, i32, ptr }, i32, i32, ptr, [3 x ptr] } { { ptr, i32, i32, ptr } { ptr @"_SM15java.lang.ClassG4type", i32 570, i32 187, ptr @"_SM7__constG2-65" }, i32 16, i32 570, ptr @"_SM7__constG2-16", [3 x ptr] [ ptr @"_SM38scala.reflect.ClassTag$GenericClassTagD8hashCodeiEO", ptr @"_SM38scala.reflect.ClassTag$GenericClassTagD8toStringL16java.lang.StringEO", ptr @"_SM38scala.reflect.ClassTag$GenericClassTagD6equalsL16java.lang.ObjectzEO" ] }
@"_SM22scala.reflect.ManifestG4type" = hidden global { ptr, i32, i32, ptr } { ptr @"_SM15java.lang.ClassG4type", i32 -38, i32 -1, ptr @"_SM7__constG2-67" }
@"_SM42scala.reflect.ManifestFactory$AnyManifest$G4type" = hidden global { { ptr, i32, i32, ptr }, i32, i32, ptr, [3 x ptr] } { { ptr, i32, i32, ptr } { ptr @"_SM15java.lang.ClassG4type", i32 90, i32 11, ptr @"_SM7__constG2-69" }, i32 48, i32 90, ptr @"_SM7__constG2-70", [3 x ptr] [ ptr @"_SM45scala.reflect.ManifestFactory$PhantomManifestD8hashCodeiEO", ptr @"_SM45scala.reflect.ManifestFactory$PhantomManifestD8toStringL16java.lang.StringEO", ptr @"_SM45scala.reflect.ManifestFactory$PhantomManifestD6equalsL16java.lang.ObjectzEO" ] }
@"_SM45scala.reflect.ManifestFactory$AnyValManifest$G4type" = hidden global { { ptr, i32, i32, ptr }, i32, i32, ptr, [3 x ptr] } { { ptr, i32, i32, ptr } { ptr @"_SM15java.lang.ClassG4type", i32 91, i32 12, ptr @"_SM7__constG2-72" }, i32 48, i32 91, ptr @"_SM7__constG2-70", [3 x ptr] [ ptr @"_SM45scala.reflect.ManifestFactory$PhantomManifestD8hashCodeiEO", ptr @"_SM45scala.reflect.ManifestFactory$PhantomManifestD8toStringL16java.lang.StringEO", ptr @"_SM45scala.reflect.ManifestFactory$PhantomManifestD6equalsL16java.lang.ObjectzEO" ] }
@"_SM45scala.reflect.ManifestFactory$BooleanManifestG4type" = hidden global { { ptr, i32, i32, ptr }, i32, i32, ptr, [3 x ptr] } { { ptr, i32, i32, ptr } { ptr @"_SM15java.lang.ClassG4type", i32 435, i32 -1, ptr @"_SM7__constG2-74" }, i32 24, i32 436, ptr @"_SM7__constG2-56", [3 x ptr] [ ptr @"_SM28scala.reflect.AnyValManifestD8hashCodeiEO", ptr @"_SM28scala.reflect.AnyValManifestD8toStringL16java.lang.StringEO", ptr @"_SM28scala.reflect.AnyValManifestD6equalsL16java.lang.ObjectzEO" ] }
@"_SM46scala.reflect.ManifestFactory$BooleanManifest$G4type" = hidden global { { ptr, i32, i32, ptr }, i32, i32, ptr, [3 x ptr] } { { ptr, i32, i32, ptr } { ptr @"_SM15java.lang.ClassG4type", i32 436, i32 145, ptr @"_SM7__constG2-76" }, i32 24, i32 436, ptr @"_SM7__constG2-56", [3 x ptr] [ ptr @"_SM28scala.reflect.AnyValManifestD8hashCodeiEO", ptr @"_SM28scala.reflect.AnyValManifestD8toStringL16java.lang.StringEO", ptr @"_SM28scala.reflect.AnyValManifestD6equalsL16java.lang.ObjectzEO" ] }
@"_SM42scala.reflect.ManifestFactory$ByteManifestG4type" = hidden global { { ptr, i32, i32, ptr }, i32, i32, ptr, [3 x ptr] } { { ptr, i32, i32, ptr } { ptr @"_SM15java.lang.ClassG4type", i32 419, i32 -1, ptr @"_SM7__constG2-78" }, i32 24, i32 420, ptr @"_SM7__constG2-56", [3 x ptr] [ ptr @"_SM28scala.reflect.AnyValManifestD8hashCodeiEO", ptr @"_SM28scala.reflect.AnyValManifestD8toStringL16java.lang.StringEO", ptr @"_SM28scala.reflect.AnyValManifestD6equalsL16java.lang.ObjectzEO" ] }
@"_SM43scala.reflect.ManifestFactory$ByteManifest$G4type" = hidden global { { ptr, i32, i32, ptr }, i32, i32, ptr, [3 x ptr] } { { ptr, i32, i32, ptr } { ptr @"_SM15java.lang.ClassG4type", i32 420, i32 137, ptr @"_SM7__constG2-80" }, i32 24, i32 420, ptr @"_SM7__constG2-56", [3 x ptr] [ ptr @"_SM28scala.reflect.AnyValManifestD8hashCodeiEO", ptr @"_SM28scala.reflect.AnyValManifestD8toStringL16java.lang.StringEO", ptr @"_SM28scala.reflect.AnyValManifestD6equalsL16java.lang.ObjectzEO" ] }
@"_SM42scala.reflect.ManifestFactory$CharManifestG4type" = hidden global { { ptr, i32, i32, ptr }, i32, i32, ptr, [3 x ptr] } { { ptr, i32, i32, ptr } { ptr @"_SM15java.lang.ClassG4type", i32 429, i32 -1, ptr @"_SM7__constG2-82" }, i32 24, i32 430, ptr @"_SM7__constG2-56", [3 x ptr] [ ptr @"_SM28scala.reflect.AnyValManifestD8hashCodeiEO", ptr @"_SM28scala.reflect.AnyValManifestD8toStringL16java.lang.StringEO", ptr @"_SM28scala.reflect.AnyValManifestD6equalsL16java.lang.ObjectzEO" ] }
@"_SM43scala.reflect.ManifestFactory$CharManifest$G4type" = hidden global { { ptr, i32, i32, ptr }, i32, i32, ptr, [3 x ptr] } { { ptr, i32, i32, ptr } { ptr @"_SM15java.lang.ClassG4type", i32 430, i32 142, ptr @"_SM7__constG2-84" }, i32 24, i32 430, ptr @"_SM7__constG2-56", [3 x ptr] [ ptr @"_SM28scala.reflect.AnyValManifestD8hashCodeiEO", ptr @"_SM28scala.reflect.AnyValManifestD8toStringL16java.lang.StringEO", ptr @"_SM28scala.reflect.AnyValManifestD6equalsL16java.lang.ObjectzEO" ] }
@"_SM47scala.reflect.ManifestFactory$ClassTypeManifestG4type" = hidden global { { ptr, i32, i32, ptr }, i32, i32, ptr, [3 x ptr] } { { ptr, i32, i32, ptr } { ptr @"_SM15java.lang.ClassG4type", i32 85, i32 -1, ptr @"_SM7__constG2-86" }, i32 32, i32 91, ptr @"_SM7__constG1-8", [3 x ptr] [ ptr @"_SM16java.lang.ObjectD8hashCodeiEO", ptr @"_SM16java.lang.ObjectD8toStringL16java.lang.StringEO", ptr @"_SM16java.lang.ObjectD6equalsL16java.lang.ObjectzEO" ] }
@"_SM44scala.reflect.ManifestFactory$DoubleManifestG4type" = hidden global { { ptr, i32, i32, ptr }, i32, i32, ptr, [3 x ptr] } { { ptr, i32, i32, ptr } { ptr @"_SM15java.lang.ClassG4type", i32 425, i32 -1, ptr @"_SM7__constG2-88" }, i32 24, i32 426, ptr @"_SM7__constG2-56", [3 x ptr] [ ptr @"_SM28scala.reflect.AnyValManifestD8hashCodeiEO", ptr @"_SM28scala.reflect.AnyValManifestD8toStringL16java.lang.StringEO", ptr @"_SM28scala.reflect.AnyValManifestD6equalsL16java.lang.ObjectzEO" ] }
@"_SM45scala.reflect.ManifestFactory$DoubleManifest$G4type" = hidden global { { ptr, i32, i32, ptr }, i32, i32, ptr, [3 x ptr] } { { ptr, i32, i32, ptr } { ptr @"_SM15java.lang.ClassG4type", i32 426, i32 140, ptr @"_SM7__constG2-90" }, i32 24, i32 426, ptr @"_SM7__constG2-56", [3 x ptr] [ ptr @"_SM28scala.reflect.AnyValManifestD8hashCodeiEO", ptr @"_SM28scala.reflect.AnyValManifestD8toStringL16java.lang.StringEO", ptr @"_SM28scala.reflect.AnyValManifestD6equalsL16java.lang.ObjectzEO" ] }
@"_SM43scala.reflect.ManifestFactory$FloatManifestG4type" = hidden global { { ptr, i32, i32, ptr }, i32, i32, ptr, [3 x ptr] } { { ptr, i32, i32, ptr } { ptr @"_SM15java.lang.ClassG4type", i32 427, i32 -1, ptr @"_SM7__constG2-92" }, i32 24, i32 428, ptr @"_SM7__constG2-56", [3 x ptr] [ ptr @"_SM28scala.reflect.AnyValManifestD8hashCodeiEO", ptr @"_SM28scala.reflect.AnyValManifestD8toStringL16java.lang.StringEO", ptr @"_SM28scala.reflect.AnyValManifestD6equalsL16java.lang.ObjectzEO" ] }
@"_SM44scala.reflect.ManifestFactory$FloatManifest$G4type" = hidden global { { ptr, i32, i32, ptr }, i32, i32, ptr, [3 x ptr] } { { ptr, i32, i32, ptr } { ptr @"_SM15java.lang.ClassG4type", i32 428, i32 141, ptr @"_SM7__constG2-94" }, i32 24, i32 428, ptr @"_SM7__constG2-56", [3 x ptr] [ ptr @"_SM28scala.reflect.AnyValManifestD8hashCodeiEO", ptr @"_SM28scala.reflect.AnyValManifestD8toStringL16java.lang.StringEO", ptr @"_SM28scala.reflect.AnyValManifestD6equalsL16java.lang.ObjectzEO" ] }
@"_SM41scala.reflect.ManifestFactory$IntManifestG4type" = hidden global { { ptr, i32, i32, ptr }, i32, i32, ptr, [3 x ptr] } { { ptr, i32, i32, ptr } { ptr @"_SM15java.lang.ClassG4type", i32 423, i32 -1, ptr @"_SM7__constG2-96" }, i32 24, i32 424, ptr @"_SM7__constG2-56", [3 x ptr] [ ptr @"_SM28scala.reflect.AnyValManifestD8hashCodeiEO", ptr @"_SM28scala.reflect.AnyValManifestD8toStringL16java.lang.StringEO", ptr @"_SM28scala.reflect.AnyValManifestD6equalsL16java.lang.ObjectzEO" ] }
@"_SM42scala.reflect.ManifestFactory$IntManifest$G4type" = hidden global { { ptr, i32, i32, ptr }, i32, i32, ptr, [3 x ptr] } { { ptr, i32, i32, ptr } { ptr @"_SM15java.lang.ClassG4type", i32 424, i32 139, ptr @"_SM7__constG2-98" }, i32 24, i32 424, ptr @"_SM7__constG2-56", [3 x ptr] [ ptr @"_SM28scala.reflect.AnyValManifestD8hashCodeiEO", ptr @"_SM28scala.reflect.AnyValManifestD8toStringL16java.lang.StringEO", ptr @"_SM28scala.reflect.AnyValManifestD6equalsL16java.lang.ObjectzEO" ] }
@"_SM42scala.reflect.ManifestFactory$LongManifestG4type" = hidden global { { ptr, i32, i32, ptr }, i32, i32, ptr, [3 x ptr] } { { ptr, i32, i32, ptr } { ptr @"_SM15java.lang.ClassG4type", i32 433, i32 -1, ptr @"_SM7__constG3-100" }, i32 24, i32 434, ptr @"_SM7__constG2-56", [3 x ptr] [ ptr @"_SM28scala.reflect.AnyValManifestD8hashCodeiEO", ptr @"_SM28scala.reflect.AnyValManifestD8toStringL16java.lang.StringEO", ptr @"_SM28scala.reflect.AnyValManifestD6equalsL16java.lang.ObjectzEO" ] }
@"_SM43scala.reflect.ManifestFactory$LongManifest$G4type" = hidden global { { ptr, i32, i32, ptr }, i32, i32, ptr, [3 x ptr] } { { ptr, i32, i32, ptr } { ptr @"_SM15java.lang.ClassG4type", i32 434, i32 144, ptr @"_SM7__constG3-102" }, i32 24, i32 434, ptr @"_SM7__constG2-56", [3 x ptr] [ ptr @"_SM28scala.reflect.AnyValManifestD8hashCodeiEO", ptr @"_SM28scala.reflect.AnyValManifestD8toStringL16java.lang.StringEO", ptr @"_SM28scala.reflect.AnyValManifestD6equalsL16java.lang.ObjectzEO" ] }
@"_SM46scala.reflect.ManifestFactory$NothingManifest$G4type" = hidden global { { ptr, i32, i32, ptr }, i32, i32, ptr, [3 x ptr] } { { ptr, i32, i32, ptr } { ptr @"_SM15java.lang.ClassG4type", i32 88, i32 9, ptr @"_SM7__constG3-104" }, i32 48, i32 88, ptr @"_SM7__constG2-70", [3 x ptr] [ ptr @"_SM45scala.reflect.ManifestFactory$PhantomManifestD8hashCodeiEO", ptr @"_SM45scala.reflect.ManifestFactory$PhantomManifestD8toStringL16java.lang.StringEO", ptr @"_SM45scala.reflect.ManifestFactory$PhantomManifestD6equalsL16java.lang.ObjectzEO" ] }
@"_SM43scala.reflect.ManifestFactory$NullManifest$G4type" = hidden global { { ptr, i32, i32, ptr }, i32, i32, ptr, [3 x ptr] } { { ptr, i32, i32, ptr } { ptr @"_SM15java.lang.ClassG4type", i32 89, i32 10, ptr @"_SM7__constG3-106" }, i32 48, i32 89, ptr @"_SM7__constG2-70", [3 x ptr] [ ptr @"_SM45scala.reflect.ManifestFactory$PhantomManifestD8hashCodeiEO", ptr @"_SM45scala.reflect.ManifestFactory$PhantomManifestD8toStringL16java.lang.StringEO", ptr @"_SM45scala.reflect.ManifestFactory$PhantomManifestD6equalsL16java.lang.ObjectzEO" ] }
@"_SM45scala.reflect.ManifestFactory$ObjectManifest$G4type" = hidden global { { ptr, i32, i32, ptr }, i32, i32, ptr, [3 x ptr] } { { ptr, i32, i32, ptr } { ptr @"_SM15java.lang.ClassG4type", i32 87, i32 8, ptr @"_SM7__constG3-108" }, i32 48, i32 87, ptr @"_SM7__constG2-70", [3 x ptr] [ ptr @"_SM45scala.reflect.ManifestFactory$PhantomManifestD8hashCodeiEO", ptr @"_SM45scala.reflect.ManifestFactory$PhantomManifestD8toStringL16java.lang.StringEO", ptr @"_SM45scala.reflect.ManifestFactory$PhantomManifestD6equalsL16java.lang.ObjectzEO" ] }
@"_SM45scala.reflect.ManifestFactory$PhantomManifestG4type" = hidden global { { ptr, i32, i32, ptr }, i32, i32, ptr, [3 x ptr] } { { ptr, i32, i32, ptr } { ptr @"_SM15java.lang.ClassG4type", i32 86, i32 -1, ptr @"_SM7__constG3-110" }, i32 48, i32 91, ptr @"_SM7__constG2-70", [3 x ptr] [ ptr @"_SM45scala.reflect.ManifestFactory$PhantomManifestD8hashCodeiEO", ptr @"_SM45scala.reflect.ManifestFactory$PhantomManifestD8toStringL16java.lang.StringEO", ptr @"_SM45scala.reflect.ManifestFactory$PhantomManifestD6equalsL16java.lang.ObjectzEO" ] }
@"_SM43scala.reflect.ManifestFactory$ShortManifestG4type" = hidden global { { ptr, i32, i32, ptr }, i32, i32, ptr, [3 x ptr] } { { ptr, i32, i32, ptr } { ptr @"_SM15java.lang.ClassG4type", i32 431, i32 -1, ptr @"_SM7__constG3-112" }, i32 24, i32 432, ptr @"_SM7__constG2-56", [3 x ptr] [ ptr @"_SM28scala.reflect.AnyValManifestD8hashCodeiEO", ptr @"_SM28scala.reflect.AnyValManifestD8toStringL16java.lang.StringEO", ptr @"_SM28scala.reflect.AnyValManifestD6equalsL16java.lang.ObjectzEO" ] }
@"_SM44scala.reflect.ManifestFactory$ShortManifest$G4type" = hidden global { { ptr, i32, i32, ptr }, i32, i32, ptr, [3 x ptr] } { { ptr, i32, i32, ptr } { ptr @"_SM15java.lang.ClassG4type", i32 432, i32 143, ptr @"_SM7__constG3-114" }, i32 24, i32 432, ptr @"_SM7__constG2-56", [3 x ptr] [ ptr @"_SM28scala.reflect.AnyValManifestD8hashCodeiEO", ptr @"_SM28scala.reflect.AnyValManifestD8toStringL16java.lang.StringEO", ptr @"_SM28scala.reflect.AnyValManifestD6equalsL16java.lang.ObjectzEO" ] }
@"_SM42scala.reflect.ManifestFactory$UnitManifestG4type" = hidden global { { ptr, i32, i32, ptr }, i32, i32, ptr, [3 x ptr] } { { ptr, i32, i32, ptr } { ptr @"_SM15java.lang.ClassG4type", i32 421, i32 -1, ptr @"_SM7__constG3-116" }, i32 24, i32 422, ptr @"_SM7__constG2-56", [3 x ptr] [ ptr @"_SM28scala.reflect.AnyValManifestD8hashCodeiEO", ptr @"_SM28scala.reflect.AnyValManifestD8toStringL16java.lang.StringEO", ptr @"_SM28scala.reflect.AnyValManifestD6equalsL16java.lang.ObjectzEO" ] }
@"_SM43scala.reflect.ManifestFactory$UnitManifest$G4type" = hidden global { { ptr, i32, i32, ptr }, i32, i32, ptr, [3 x ptr] } { { ptr, i32, i32, ptr } { ptr @"_SM15java.lang.ClassG4type", i32 422, i32 138, ptr @"_SM7__constG3-118" }, i32 24, i32 422, ptr @"_SM7__constG2-56", [3 x ptr] [ ptr @"_SM28scala.reflect.AnyValManifestD8hashCodeiEO", ptr @"_SM28scala.reflect.AnyValManifestD8toStringL16java.lang.StringEO", ptr @"_SM28scala.reflect.AnyValManifestD6equalsL16java.lang.ObjectzEO" ] }
@"_SM25scala.reflect.OptManifestG4type" = hidden global { ptr, i32, i32, ptr } { ptr @"_SM15java.lang.ClassG4type", i32 -47, i32 -1, ptr @"_SM7__constG3-120" }
@"_SM33scala.scalanative.memory.SafeZoneG4type" = hidden global { ptr, i32, i32, ptr } { ptr @"_SM15java.lang.ClassG4type", i32 -90, i32 -1, ptr @"_SM7__constG3-122" }

define i1 @"_SM26java.lang.impl.PosixThreadD19isFillingStackTracezEO"(ptr %_1) alwaysinline personality ptr @__gxx_personality_v0 {
_2000000.0:
  %_2000004 = icmp ne ptr %_1, null
  br i1 %_2000004, label %_2000002.0, label %_2000003.0
_2000002.0:
  %_2000005 = getelementptr { { ptr }, ptr, ptr, i32, i32, i32, i1, ptr }, { { ptr }, ptr, ptr, i32, i32, i32, i1, ptr }* %_1, i32 0, i32 6
  %_2000006 = load i8, ptr %_2000005
  %_2000001 = trunc i8 %_2000006 to i1
  ret i1 %_2000001
_2000003.0:
  call ptr @"_SM34scala.scalanative.runtime.package$D16throwNullPointernEO"(ptr null)
  unreachable
}

define void @"_SM26java.lang.impl.PosixThreadD23isFillingStackTrace_$eqzuEO"(ptr %_1, i1 %_2) alwaysinline personality ptr @__gxx_personality_v0 {
_3000000.0:
  %_3000004 = icmp ne ptr %_1, null
  br i1 %_3000004, label %_3000002.0, label %_3000003.0
_3000002.0:
  %_3000006 = getelementptr { { ptr }, ptr, ptr, i32, i32, i32, i1, ptr }, { { ptr }, ptr, ptr, i32, i32, i32, i1, ptr }* %_1, i32 0, i32 6
  %_3000007 = zext i1 %_2 to i8
  store i8 %_3000007, ptr%_3000006, align 1
  ret void
_3000003.0:
  call ptr @"_SM34scala.scalanative.runtime.package$D16throwNullPointernEO"(ptr null)
  unreachable
}

define dereferenceable_or_null(16) ptr @"_SM27java.lang.impl.PosixThread$G4load"() noinline personality ptr @__gxx_personality_v0 {
_1.0:
  %_4 = getelementptr ptr, ptr @"__modules", i32 41
  %_5 = load ptr, ptr %_4, !dereferenceable_or_null !{i64 16}
  %_6 = icmp ne ptr %_5, null
  br i1 %_6, label %_2.0, label %_3.0
_2.0:
  ret ptr %_5
_3.0:
  %_7 = call dereferenceable_or_null(16) ptr @"scalanative_GC_alloc_small"(ptr @"_SM27java.lang.impl.PosixThread$G4type", i64 16)
  store ptr %_7, ptr%_4, align 8
  call void @"_SM27java.lang.impl.PosixThread$RE"(ptr dereferenceable_or_null(16) %_7)
  ret ptr %_7
}

define void @"_SM27java.lang.impl.PosixThread$RE"(ptr %_1) personality ptr @__gxx_personality_v0 {
_2000000.0:
  br label %_4000000.0
_4000000.0:
  br label %_5000000.0
_5000000.0:
  %_5000001 = call dereferenceable_or_null(16) ptr @"_SM27java.lang.impl.PosixThread$G4load"()
  br label %_6000000.0
_6000000.0:
  br label %_7000000.0
_7000000.0:
  br label %_8000000.0
_8000000.0:
  br label %_9000000.0
_9000000.0:
  %_9000003 = getelementptr { { ptr }, i1 }, { { ptr }, i1 }* %_5000001, i32 0, i32 1
  %_9000004 = zext i1 true to i8
  store i8 %_9000004, ptr%_9000003, align 1
  ret void
}

define dereferenceable_or_null(24) ptr @"_SM24java.nio.charset.CharsetD13cachedDecoderL21java.lang.ThreadLocalEPT24java.nio.charset.Charset"(ptr %_1) alwaysinline personality ptr @__gxx_personality_v0 {
_2.0:
  br label %_3.0
_3.0:
  br i1 true, label %_4.0, label %_5.0
_4.0:
  %_80 = icmp ne ptr %_1, null
  br i1 %_80, label %_78.0, label %_79.0
_78.0:
  %_81 = getelementptr { { ptr }, ptr, ptr, i64, ptr }, { { ptr }, ptr, ptr, i64, ptr }* %_1, i32 0, i32 3
  %_9 = call i64 @"_SM35scala.scalanative.runtime.LazyVals$D3getR_jEO"(ptr nonnull dereferenceable(8) @"_SM35scala.scalanative.runtime.LazyVals$G8instance", ptr %_81)
  %_12 = call i64 @"_SM23scala.runtime.LazyVals$D5STATEjijEO"(ptr nonnull dereferenceable(8) @"_SM23scala.runtime.LazyVals$G8instance", i64 %_9, i32 1)
  %_17 = sext i32 3 to i64
  %_18 = icmp eq i64 %_12, %_17
  br i1 %_18, label %_13.0, label %_14.0
_13.0:
  %_82 = getelementptr { { ptr }, ptr, ptr, i64, ptr }, { { ptr }, ptr, ptr, i64, ptr }* %_1, i32 0, i32 2
  %_19 = load ptr, ptr %_82, !dereferenceable_or_null !{i64 24}
  ret ptr %_19
_14.0:
  %_25 = sext i32 0 to i64
  %_26 = icmp eq i64 %_12, %_25
  br i1 %_26, label %_21.0, label %_22.0
_21.0:
  %_83 = getelementptr { { ptr }, ptr, ptr, i64, ptr }, { { ptr }, ptr, ptr, i64, ptr }* %_1, i32 0, i32 3
  %_34 = call i1 @"_SM35scala.scalanative.runtime.LazyVals$D3CASR_jiizEO"(ptr nonnull dereferenceable(8) @"_SM35scala.scalanative.runtime.LazyVals$G8instance", ptr %_83, i64 %_9, i32 1, i32 1)
  br i1 %_34, label %_27.0, label %_28.0
_27.0:
  br label %_36.0
_36.0:
  %_41 = invoke dereferenceable_or_null(16) ptr @"_SM22java.lang.ThreadLocal$G4load"() to label %_36.1 unwind label %_85.landingpad
_36.1:
  %_43 = invoke dereferenceable_or_null(16) ptr @"scalanative_GC_alloc_small"(ptr @"_SM34java.nio.charset.Charset$$Lambda$1G4type", i64 16) to label %_36.2 unwind label %_87.landingpad
_36.2:
  invoke void @"_SM34java.nio.charset.Charset$$Lambda$1RL24java.nio.charset.CharsetE"(ptr nonnull dereferenceable(16) %_43, ptr dereferenceable_or_null(40) %_1) to label %_36.3 unwind label %_90.landingpad
_36.3:
  %_49 = invoke dereferenceable_or_null(24) ptr @"_SM22java.lang.ThreadLocal$D11withInitialL27java.util.function.SupplierL21java.lang.ThreadLocalEO"(ptr nonnull dereferenceable(16) %_41, ptr nonnull dereferenceable(16) %_43) to label %_36.4 unwind label %_95.landingpad
_36.4:
  %_99 = getelementptr { { ptr }, ptr, ptr, i64, ptr }, { { ptr }, ptr, ptr, i64, ptr }* %_1, i32 0, i32 2
  store ptr %_49, ptr%_99, align 8
  %_106 = getelementptr { { ptr }, ptr, ptr, i64, ptr }, { { ptr }, ptr, ptr, i64, ptr }* %_1, i32 0, i32 3
  invoke void @"_SM35scala.scalanative.runtime.LazyVals$D7setFlagR_iiuEO"(ptr nonnull dereferenceable(8) @"_SM35scala.scalanative.runtime.LazyVals$G8instance", ptr %_106, i32 3, i32 1) to label %_36.5 unwind label %_112.landingpad
_36.5:
  ret ptr %_49
_35.0:
  %_38 = phi ptr [%_58, %_110.0], [%_56, %_108.0], [%_54, %_104.0], [%_52, %_102.0], [%_50, %_96.0], [%_48, %_94.0], [%_46, %_92.0], [%_44, %_88.0], [%_42, %_86.0], [%_40, %_84.0]
  %_117 = icmp eq ptr %_38, null
  br i1 %_117, label %_114.0, label %_115.0
_114.0:
  br label %_116.0
_115.0:
  %_118 = load ptr, ptr %_38
  %_119 = getelementptr { ptr, i32, i32, ptr }, { ptr, i32, i32, ptr }* %_118, i32 0, i32 1
  %_120 = load i32, ptr %_119
  %_121 = icmp sle i32 207, %_120
  %_122 = icmp sle i32 %_120, 263
  %_123 = and i1 %_121, %_122
  br label %_116.0
_116.0:
  %_61 = phi i1 [%_123, %_115.0], [false, %_114.0]
  br i1 %_61, label %_62.0, label %_63.0
_62.0:
  %_127 = icmp eq ptr %_38, null
  br i1 %_127, label %_125.0, label %_124.0
_124.0:
  %_128 = load ptr, ptr %_38
  %_129 = getelementptr { ptr, i32, i32, ptr }, { ptr, i32, i32, ptr }* %_128, i32 0, i32 1
  %_130 = load i32, ptr %_129
  %_131 = icmp sle i32 207, %_130
  %_132 = icmp sle i32 %_130, 263
  %_133 = and i1 %_131, %_132
  br i1 %_133, label %_125.0, label %_126.0
_125.0:
  %_134 = getelementptr { { ptr }, ptr, ptr, i64, ptr }, { { ptr }, ptr, ptr, i64, ptr }* %_1, i32 0, i32 3
  call void @"_SM35scala.scalanative.runtime.LazyVals$D7setFlagR_iiuEO"(ptr nonnull dereferenceable(8) @"_SM35scala.scalanative.runtime.LazyVals$G8instance", ptr %_134, i32 0, i32 1)
  %_137 = icmp ne ptr %_38, null
  br i1 %_137, label %_136.0, label %_79.0
_136.0:
  call ptr @"scalanative_throw"(ptr dereferenceable_or_null(40) %_38)
  unreachable
_63.0:
  %_140 = icmp ne ptr %_38, null
  br i1 %_140, label %_139.0, label %_79.0
_139.0:
  call ptr @"scalanative_throw"(ptr dereferenceable_or_null(8) %_38)
  unreachable
_28.0:
  br label %_29.0
_29.0:
  br label %_23.0
_22.0:
  %_142 = getelementptr { { ptr }, ptr, ptr, i64, ptr }, { { ptr }, ptr, ptr, i64, ptr }* %_1, i32 0, i32 3
  call void @"_SM35scala.scalanative.runtime.LazyVals$D17wait4NotificationR_jiuEO"(ptr nonnull dereferenceable(8) @"_SM35scala.scalanative.runtime.LazyVals$G8instance", ptr %_142, i64 %_9, i32 1)
  br label %_23.0
_23.0:
  br label %_15.0
_15.0:
  br label %_3.0
_5.0:
  ret ptr zeroinitializer
_79.0:
  call ptr @"_SM34scala.scalanative.runtime.package$D16throwNullPointernEO"(ptr null)
  unreachable
_126.0:
  %_145 = phi ptr [%_38, %_124.0]
  %_146 = phi ptr [@"_SM19java.lang.ThrowableG4type", %_124.0]
  %_147 = load ptr, ptr %_145
  call ptr @"_SM34scala.scalanative.runtime.package$D14throwClassCastR_R_nEO"(ptr null, ptr %_147, ptr %_146)
  unreachable
_84.0:
  %_40 = phi ptr [%_85, %_85.landingpad.succ]
  br label %_35.0
_86.0:
  %_42 = phi ptr [%_87, %_87.landingpad.succ]
  br label %_35.0
_88.0:
  %_44 = phi ptr [%_90, %_90.landingpad.succ]
  br label %_35.0
_92.0:
  %_46 = phi ptr [%_93, %_93.landingpad.succ]
  br label %_35.0
_94.0:
  %_48 = phi ptr [%_95, %_95.landingpad.succ]
  br label %_35.0
_96.0:
  %_50 = phi ptr [%_98, %_98.landingpad.succ], [%_100, %_100.landingpad.succ]
  br label %_35.0
_102.0:
  %_52 = phi ptr [%_103, %_103.landingpad.succ]
  br label %_35.0
_104.0:
  %_54 = phi ptr [%_105, %_105.landingpad.succ], [%_107, %_107.landingpad.succ]
  br label %_35.0
_108.0:
  %_56 = phi ptr [%_109, %_109.landingpad.succ]
  br label %_35.0
_110.0:
  %_58 = phi ptr [%_112, %_112.landingpad.succ]
  br label %_35.0
_85.landingpad:
  %_182 = landingpad { ptr, i32 } catch ptr @_ZTIN11scalanative16ExceptionWrapperE
  %_183 = extractvalue { ptr, i32 } %_182, 0
  %_184 = extractvalue { ptr, i32 } %_182, 1
  %_185 = call i32 @llvm.eh.typeid.for(ptr @_ZTIN11scalanative16ExceptionWrapperE)
  %_186 = icmp eq i32 %_184, %_185
  br i1 %_186, label %_85.landingpad.succ, label %_85.landingpad.fail
_85.landingpad.succ:
  %_187 = call ptr @__cxa_begin_catch(ptr %_183)
  %_189 = getelementptr ptr, ptr %_187, i32 1
  %_85 = load ptr, ptr %_189
  call void @__cxa_end_catch()br label %_84.0
_85.landingpad.fail:
  resume { ptr, i32 } %_182
_87.landingpad:
  %_190 = landingpad { ptr, i32 } catch ptr @_ZTIN11scalanative16ExceptionWrapperE
  %_191 = extractvalue { ptr, i32 } %_190, 0
  %_192 = extractvalue { ptr, i32 } %_190, 1
  %_193 = call i32 @llvm.eh.typeid.for(ptr @_ZTIN11scalanative16ExceptionWrapperE)
  %_194 = icmp eq i32 %_192, %_193
  br i1 %_194, label %_87.landingpad.succ, label %_87.landingpad.fail
_87.landingpad.succ:
  %_195 = call ptr @__cxa_begin_catch(ptr %_191)
  %_197 = getelementptr ptr, ptr %_195, i32 1
  %_87 = load ptr, ptr %_197
  call void @__cxa_end_catch()br label %_86.0
_87.landingpad.fail:
  resume { ptr, i32 } %_190
_90.landingpad:
  %_198 = landingpad { ptr, i32 } catch ptr @_ZTIN11scalanative16ExceptionWrapperE
  %_199 = extractvalue { ptr, i32 } %_198, 0
  %_200 = extractvalue { ptr, i32 } %_198, 1
  %_201 = call i32 @llvm.eh.typeid.for(ptr @_ZTIN11scalanative16ExceptionWrapperE)
  %_202 = icmp eq i32 %_200, %_201
  br i1 %_202, label %_90.landingpad.succ, label %_90.landingpad.fail
_90.landingpad.succ:
  %_203 = call ptr @__cxa_begin_catch(ptr %_199)
  %_205 = getelementptr ptr, ptr %_203, i32 1
  %_90 = load ptr, ptr %_205
  call void @__cxa_end_catch()br label %_88.0
_90.landingpad.fail:
  resume { ptr, i32 } %_198
_93.landingpad:
  %_206 = landingpad { ptr, i32 } catch ptr @_ZTIN11scalanative16ExceptionWrapperE
  %_207 = extractvalue { ptr, i32 } %_206, 0
  %_208 = extractvalue { ptr, i32 } %_206, 1
  %_209 = call i32 @llvm.eh.typeid.for(ptr @_ZTIN11scalanative16ExceptionWrapperE)
  %_210 = icmp eq i32 %_208, %_209
  br i1 %_210, label %_93.landingpad.succ, label %_93.landingpad.fail
_93.landingpad.succ:
  %_211 = call ptr @__cxa_begin_catch(ptr %_207)
  %_213 = getelementptr ptr, ptr %_211, i32 1
  %_93 = load ptr, ptr %_213
  call void @__cxa_end_catch()br label %_92.0
_93.landingpad.fail:
  resume { ptr, i32 } %_206
_95.landingpad:
  %_214 = landingpad { ptr, i32 } catch ptr @_ZTIN11scalanative16ExceptionWrapperE
  %_215 = extractvalue { ptr, i32 } %_214, 0
  %_216 = extractvalue { ptr, i32 } %_214, 1
  %_217 = call i32 @llvm.eh.typeid.for(ptr @_ZTIN11scalanative16ExceptionWrapperE)
  %_218 = icmp eq i32 %_216, %_217
  br i1 %_218, label %_95.landingpad.succ, label %_95.landingpad.fail
_95.landingpad.succ:
  %_219 = call ptr @__cxa_begin_catch(ptr %_215)
  %_221 = getelementptr ptr, ptr %_219, i32 1
  %_95 = load ptr, ptr %_221
  call void @__cxa_end_catch()br label %_94.0
_95.landingpad.fail:
  resume { ptr, i32 } %_214
_98.landingpad:
  %_222 = landingpad { ptr, i32 } catch ptr @_ZTIN11scalanative16ExceptionWrapperE
  %_223 = extractvalue { ptr, i32 } %_222, 0
  %_224 = extractvalue { ptr, i32 } %_222, 1
  %_225 = call i32 @llvm.eh.typeid.for(ptr @_ZTIN11scalanative16ExceptionWrapperE)
  %_226 = icmp eq i32 %_224, %_225
  br i1 %_226, label %_98.landingpad.succ, label %_98.landingpad.fail
_98.landingpad.succ:
  %_227 = call ptr @__cxa_begin_catch(ptr %_223)
  %_229 = getelementptr ptr, ptr %_227, i32 1
  %_98 = load ptr, ptr %_229
  call void @__cxa_end_catch()br label %_96.0
_98.landingpad.fail:
  resume { ptr, i32 } %_222
_100.landingpad:
  %_230 = landingpad { ptr, i32 } catch ptr @_ZTIN11scalanative16ExceptionWrapperE
  %_231 = extractvalue { ptr, i32 } %_230, 0
  %_232 = extractvalue { ptr, i32 } %_230, 1
  %_233 = call i32 @llvm.eh.typeid.for(ptr @_ZTIN11scalanative16ExceptionWrapperE)
  %_234 = icmp eq i32 %_232, %_233
  br i1 %_234, label %_100.landingpad.succ, label %_100.landingpad.fail
_100.landingpad.succ:
  %_235 = call ptr @__cxa_begin_catch(ptr %_231)
  %_237 = getelementptr ptr, ptr %_235, i32 1
  %_100 = load ptr, ptr %_237
  call void @__cxa_end_catch()br label %_96.0
_100.landingpad.fail:
  resume { ptr, i32 } %_230
_103.landingpad:
  %_238 = landingpad { ptr, i32 } catch ptr @_ZTIN11scalanative16ExceptionWrapperE
  %_239 = extractvalue { ptr, i32 } %_238, 0
  %_240 = extractvalue { ptr, i32 } %_238, 1
  %_241 = call i32 @llvm.eh.typeid.for(ptr @_ZTIN11scalanative16ExceptionWrapperE)
  %_242 = icmp eq i32 %_240, %_241
  br i1 %_242, label %_103.landingpad.succ, label %_103.landingpad.fail
_103.landingpad.succ:
  %_243 = call ptr @__cxa_begin_catch(ptr %_239)
  %_245 = getelementptr ptr, ptr %_243, i32 1
  %_103 = load ptr, ptr %_245
  call void @__cxa_end_catch()br label %_102.0
_103.landingpad.fail:
  resume { ptr, i32 } %_238
_105.landingpad:
  %_246 = landingpad { ptr, i32 } catch ptr @_ZTIN11scalanative16ExceptionWrapperE
  %_247 = extractvalue { ptr, i32 } %_246, 0
  %_248 = extractvalue { ptr, i32 } %_246, 1
  %_249 = call i32 @llvm.eh.typeid.for(ptr @_ZTIN11scalanative16ExceptionWrapperE)
  %_250 = icmp eq i32 %_248, %_249
  br i1 %_250, label %_105.landingpad.succ, label %_105.landingpad.fail
_105.landingpad.succ:
  %_251 = call ptr @__cxa_begin_catch(ptr %_247)
  %_253 = getelementptr ptr, ptr %_251, i32 1
  %_105 = load ptr, ptr %_253
  call void @__cxa_end_catch()br label %_104.0
_105.landingpad.fail:
  resume { ptr, i32 } %_246
_107.landingpad:
  %_254 = landingpad { ptr, i32 } catch ptr @_ZTIN11scalanative16ExceptionWrapperE
  %_255 = extractvalue { ptr, i32 } %_254, 0
  %_256 = extractvalue { ptr, i32 } %_254, 1
  %_257 = call i32 @llvm.eh.typeid.for(ptr @_ZTIN11scalanative16ExceptionWrapperE)
  %_258 = icmp eq i32 %_256, %_257
  br i1 %_258, label %_107.landingpad.succ, label %_107.landingpad.fail
_107.landingpad.succ:
  %_259 = call ptr @__cxa_begin_catch(ptr %_255)
  %_261 = getelementptr ptr, ptr %_259, i32 1
  %_107 = load ptr, ptr %_261
  call void @__cxa_end_catch()br label %_104.0
_107.landingpad.fail:
  resume { ptr, i32 } %_254
_109.landingpad:
  %_262 = landingpad { ptr, i32 } catch ptr @_ZTIN11scalanative16ExceptionWrapperE
  %_263 = extractvalue { ptr, i32 } %_262, 0
  %_264 = extractvalue { ptr, i32 } %_262, 1
  %_265 = call i32 @llvm.eh.typeid.for(ptr @_ZTIN11scalanative16ExceptionWrapperE)
  %_266 = icmp eq i32 %_264, %_265
  br i1 %_266, label %_109.landingpad.succ, label %_109.landingpad.fail
_109.landingpad.succ:
  %_267 = call ptr @__cxa_begin_catch(ptr %_263)
  %_269 = getelementptr ptr, ptr %_267, i32 1
  %_109 = load ptr, ptr %_269
  call void @__cxa_end_catch()br label %_108.0
_109.landingpad.fail:
  resume { ptr, i32 } %_262
_112.landingpad:
  %_270 = landingpad { ptr, i32 } catch ptr @_ZTIN11scalanative16ExceptionWrapperE
  %_271 = extractvalue { ptr, i32 } %_270, 0
  %_272 = extractvalue { ptr, i32 } %_270, 1
  %_273 = call i32 @llvm.eh.typeid.for(ptr @_ZTIN11scalanative16ExceptionWrapperE)
  %_274 = icmp eq i32 %_272, %_273
  br i1 %_274, label %_112.landingpad.succ, label %_112.landingpad.fail
_112.landingpad.succ:
  %_275 = call ptr @__cxa_begin_catch(ptr %_271)
  %_277 = getelementptr ptr, ptr %_275, i32 1
  %_112 = load ptr, ptr %_277
  call void @__cxa_end_catch()br label %_110.0
_112.landingpad.fail:
  resume { ptr, i32 } %_270
}

define i1 @"_SM24java.nio.charset.CharsetD6equalsL16java.lang.ObjectzEO"(ptr %_1, ptr %_2) personality ptr @__gxx_personality_v0 {
_3000000.0:
  %_14000003 = icmp ne ptr %_1, null
  br i1 %_14000003, label %_14000001.0, label %_14000002.0
_14000001.0:
  br label %_4000000.0
_4000000.0:
  %_14000007 = icmp eq ptr %_2, null
  br i1 %_14000007, label %_14000004.0, label %_14000005.0
_14000004.0:
  br label %_14000006.0
_14000005.0:
  %_14000008 = load ptr, ptr %_2
  %_14000009 = getelementptr { ptr, i32, i32, ptr }, { ptr, i32, i32, ptr }* %_14000008, i32 0, i32 1
  %_14000010 = load i32, ptr %_14000009
  %_14000011 = icmp sle i32 65, %_14000010
  %_14000012 = icmp sle i32 %_14000010, 66
  %_14000013 = and i1 %_14000011, %_14000012
  br label %_14000006.0
_14000006.0:
  %_4000002 = phi i1 [%_14000013, %_14000005.0], [false, %_14000004.0]
  br i1 %_4000002, label %_5000000.0, label %_6000000.0
_5000000.0:
  %_14000017 = icmp eq ptr %_2, null
  br i1 %_14000017, label %_14000015.0, label %_14000014.0
_14000014.0:
  %_14000018 = load ptr, ptr %_2
  %_14000019 = getelementptr { ptr, i32, i32, ptr }, { ptr, i32, i32, ptr }* %_14000018, i32 0, i32 1
  %_14000020 = load i32, ptr %_14000019
  %_14000021 = icmp sle i32 65, %_14000020
  %_14000022 = icmp sle i32 %_14000020, 66
  %_14000023 = and i1 %_14000021, %_14000022
  br i1 %_14000023, label %_14000015.0, label %_14000016.0
_14000015.0:
  %_14000024 = getelementptr { { ptr }, ptr, ptr, i64, ptr }, { { ptr }, ptr, ptr, i64, ptr }* %_1, i32 0, i32 1
  %_7000001 = load ptr, ptr %_14000024, !dereferenceable_or_null !{i64 32}
  %_5000003 = icmp eq ptr %_7000001, null
  br i1 %_5000003, label %_8000000.0, label %_9000000.0
_8000000.0:
  %_14000026 = icmp ne ptr %_2, null
  br i1 %_14000026, label %_14000025.0, label %_14000002.0
_14000025.0:
  %_14000027 = getelementptr { { ptr }, ptr, ptr, i64, ptr }, { { ptr }, ptr, ptr, i64, ptr }* %_2, i32 0, i32 1
  %_10000001 = load ptr, ptr %_14000027, !dereferenceable_or_null !{i64 32}
  %_8000002 = icmp eq ptr %_10000001, null
  br label %_11000000.0
_9000000.0:
  %_14000029 = icmp ne ptr %_2, null
  br i1 %_14000029, label %_14000028.0, label %_14000002.0
_14000028.0:
  %_14000030 = getelementptr { { ptr }, ptr, ptr, i64, ptr }, { { ptr }, ptr, ptr, i64, ptr }* %_2, i32 0, i32 1
  %_12000001 = load ptr, ptr %_14000030, !dereferenceable_or_null !{i64 32}
  %_9000001 = call i1 @"_SM16java.lang.StringD6equalsL16java.lang.ObjectzEO"(ptr dereferenceable_or_null(32) %_7000001, ptr dereferenceable_or_null(32) %_12000001)
  br label %_11000000.0
_11000000.0:
  %_11000001 = phi i1 [%_9000001, %_14000028.0], [%_8000002, %_14000025.0]
  br label %_13000000.0
_6000000.0:
  br label %_14000000.0
_14000000.0:
  br label %_13000000.0
_13000000.0:
  %_13000001 = phi i1 [false, %_14000000.0], [%_11000001, %_11000000.0]
  ret i1 %_13000001
_14000002.0:
  call ptr @"_SM34scala.scalanative.runtime.package$D16throwNullPointernEO"(ptr null)
  unreachable
_14000016.0:
  %_14000032 = phi ptr [%_2, %_14000014.0]
  %_14000033 = phi ptr [@"_SM24java.nio.charset.CharsetG4type", %_14000014.0]
  %_14000034 = load ptr, ptr %_14000032
  call ptr @"_SM34scala.scalanative.runtime.package$D14throwClassCastR_R_nEO"(ptr null, ptr %_14000034, ptr %_14000033)
  unreachable
}

define i32 @"_SM24java.nio.charset.CharsetD8hashCodeiEO"(ptr %_1) personality ptr @__gxx_personality_v0 {
_2000000.0:
  %_50000004 = icmp ne ptr %_1, null
  br i1 %_50000004, label %_50000002.0, label %_50000003.0
_50000002.0:
  %_50000005 = getelementptr { { ptr }, ptr, ptr, i64, ptr }, { { ptr }, ptr, ptr, i64, ptr }* %_1, i32 0, i32 1
  %_3000001 = load ptr, ptr %_50000005, !dereferenceable_or_null !{i64 32}
  br label %_5000000.0
_5000000.0:
  %_5000002 = icmp eq ptr %_3000001, null
  br i1 %_5000002, label %_6000000.0, label %_7000000.0
_6000000.0:
  br label %_8000000.0
_7000000.0:
  br label %_9000000.0
_9000000.0:
  %_50000009 = icmp eq ptr %_3000001, null
  br i1 %_50000009, label %_50000006.0, label %_50000007.0
_50000006.0:
  br label %_50000008.0
_50000007.0:
  %_50000010 = load ptr, ptr %_3000001
  %_50000011 = getelementptr { ptr, i32, i32, ptr }, { ptr, i32, i32, ptr }* %_50000010, i32 0, i32 1
  %_50000012 = load i32, ptr %_50000011
  %_50000013 = icmp sle i32 39, %_50000012
  %_50000014 = icmp sle i32 %_50000012, 54
  %_50000015 = and i1 %_50000013, %_50000014
  br label %_50000008.0
_50000008.0:
  %_9000002 = phi i1 [%_50000015, %_50000007.0], [false, %_50000006.0]
  br i1 %_9000002, label %_10000000.0, label %_11000000.0
_10000000.0:
  %_50000019 = icmp eq ptr %_3000001, null
  br i1 %_50000019, label %_50000017.0, label %_50000016.0
_50000016.0:
  %_50000020 = load ptr, ptr %_3000001
  %_50000021 = getelementptr { ptr, i32, i32, ptr }, { ptr, i32, i32, ptr }* %_50000020, i32 0, i32 1
  %_50000022 = load i32, ptr %_50000021
  %_50000023 = icmp sle i32 39, %_50000022
  %_50000024 = icmp sle i32 %_50000022, 54
  %_50000025 = and i1 %_50000023, %_50000024
  br i1 %_50000025, label %_50000017.0, label %_50000018.0
_50000017.0:
  br label %_12000000.0
_12000000.0:
  %_50000029 = icmp eq ptr %_3000001, null
  br i1 %_50000029, label %_50000026.0, label %_50000027.0
_50000026.0:
  br label %_50000028.0
_50000027.0:
  %_50000030 = load ptr, ptr %_3000001
  %_50000031 = icmp eq ptr %_50000030, @"_SM14java.lang.LongG4type"
  br label %_50000028.0
_50000028.0:
  %_12000002 = phi i1 [%_50000031, %_50000027.0], [false, %_50000026.0]
  br i1 %_12000002, label %_13000000.0, label %_14000000.0
_13000000.0:
  %_50000034 = icmp eq ptr %_3000001, null
  br i1 %_50000034, label %_50000033.0, label %_50000032.0
_50000032.0:
  %_50000035 = load ptr, ptr %_3000001
  %_50000036 = icmp eq ptr %_50000035, @"_SM14java.lang.LongG4type"
  br i1 %_50000036, label %_50000033.0, label %_50000018.0
_50000033.0:
  %_50000038 = icmp ne ptr %_3000001, null
  br i1 %_50000038, label %_50000037.0, label %_50000003.0
_50000037.0:
  %_50000039 = getelementptr { { ptr }, i64 }, { { ptr }, i64 }* %_3000001, i32 0, i32 1
  %_13000002 = load i64, ptr %_50000039
  %_13000006 = trunc i64 %_13000002 to i32
  %_13000007 = sext i32 %_13000006 to i64
  %_13000008 = icmp eq i64 %_13000007, %_13000002
  br i1 %_13000008, label %_15000000.0, label %_16000000.0
_15000000.0:
  br label %_17000000.0
_16000000.0:
  %_50000040 = and i64 32, 63
  %_16000004 = lshr i64 %_13000002, %_50000040
  %_16000005 = xor i64 %_13000002, %_16000004
  %_16000006 = trunc i64 %_16000005 to i32
  br label %_17000000.0
_17000000.0:
  %_17000001 = phi i32 [%_16000006, %_16000000.0], [%_13000006, %_15000000.0]
  br label %_18000000.0
_14000000.0:
  br label %_19000000.0
_19000000.0:
  %_50000044 = icmp eq ptr %_3000001, null
  br i1 %_50000044, label %_50000041.0, label %_50000042.0
_50000041.0:
  br label %_50000043.0
_50000042.0:
  %_50000045 = load ptr, ptr %_3000001
  %_50000046 = icmp eq ptr %_50000045, @"_SM16java.lang.DoubleG4type"
  br label %_50000043.0
_50000043.0:
  %_19000002 = phi i1 [%_50000046, %_50000042.0], [false, %_50000041.0]
  br i1 %_19000002, label %_20000000.0, label %_21000000.0
_20000000.0:
  %_50000049 = icmp eq ptr %_3000001, null
  br i1 %_50000049, label %_50000048.0, label %_50000047.0
_50000047.0:
  %_50000050 = load ptr, ptr %_3000001
  %_50000051 = icmp eq ptr %_50000050, @"_SM16java.lang.DoubleG4type"
  br i1 %_50000051, label %_50000048.0, label %_50000018.0
_50000048.0:
  %_50000053 = icmp ne ptr %_3000001, null
  br i1 %_50000053, label %_50000052.0, label %_50000003.0
_50000052.0:
  %_50000054 = getelementptr { { ptr }, double }, { { ptr }, double }* %_3000001, i32 0, i32 1
  %_20000002 = load double, ptr %_50000054
  %_50000062 = fcmp une double %_20000002, %_20000002
  br i1 %_50000062, label %_50000055.0, label %_50000056.0
_50000055.0:
  br label %_50000061.0
_50000056.0:
  %_50000063 = fcmp ole double %_20000002, 0xc1e0000000000000
  br i1 %_50000063, label %_50000057.0, label %_50000058.0
_50000057.0:
  br label %_50000061.0
_50000058.0:
  %_50000064 = fcmp oge double %_20000002, 0x41dfffffffc00000
  br i1 %_50000064, label %_50000059.0, label %_50000060.0
_50000059.0:
  br label %_50000061.0
_50000060.0:
  %_50000065 = fptosi double %_20000002 to i32
  br label %_50000061.0
_50000061.0:
  %_20000006 = phi i32 [%_50000065, %_50000060.0], [2147483647, %_50000059.0], [-2147483648, %_50000057.0], [zeroinitializer, %_50000055.0]
  %_20000007 = sitofp i32 %_20000006 to double
  %_20000008 = fcmp oeq double %_20000007, %_20000002
  br i1 %_20000008, label %_22000000.0, label %_23000000.0
_22000000.0:
  br label %_24000000.0
_23000000.0:
  %_23000004 = fptrunc double %_20000002 to float
  %_23000005 = fpext float %_23000004 to double
  %_23000006 = fcmp oeq double %_23000005, %_20000002
  br i1 %_23000006, label %_25000000.0, label %_26000000.0
_25000000.0:
  %_25000002 = fcmp une float %_23000004, %_23000004
  br i1 %_25000002, label %_27000000.0, label %_28000000.0
_27000000.0:
  br label %_29000000.0
_28000000.0:
  %_28000002 = bitcast float %_23000004 to i32
  br label %_29000000.0
_29000000.0:
  %_29000001 = phi i32 [%_28000002, %_28000000.0], [2143289344, %_27000000.0]
  br label %_30000000.0
_26000000.0:
  %_50000073 = fcmp une double %_20000002, %_20000002
  br i1 %_50000073, label %_50000066.0, label %_50000067.0
_50000066.0:
  br label %_50000072.0
_50000067.0:
  %_50000074 = fcmp ole double %_20000002, 0xc3e0000000000000
  br i1 %_50000074, label %_50000068.0, label %_50000069.0
_50000068.0:
  br label %_50000072.0
_50000069.0:
  %_50000075 = fcmp oge double %_20000002, 0x43e0000000000000
  br i1 %_50000075, label %_50000070.0, label %_50000071.0
_50000070.0:
  br label %_50000072.0
_50000071.0:
  %_50000076 = fptosi double %_20000002 to i64
  br label %_50000072.0
_50000072.0:
  %_26000004 = phi i64 [%_50000076, %_50000071.0], [9223372036854775807, %_50000070.0], [-9223372036854775808, %_50000068.0], [zeroinitializer, %_50000066.0]
  %_26000005 = sitofp i64 %_26000004 to double
  %_26000006 = fcmp oeq double %_26000005, %_20000002
  br i1 %_26000006, label %_31000000.0, label %_32000000.0
_31000000.0:
  %_31000002 = trunc i64 %_26000004 to i32
  br label %_33000000.0
_32000000.0:
  %_32000002 = fcmp une double %_20000002, %_20000002
  br i1 %_32000002, label %_34000000.0, label %_35000000.0
_34000000.0:
  br label %_36000000.0
_35000000.0:
  %_35000002 = bitcast double %_20000002 to i64
  br label %_36000000.0
_36000000.0:
  %_36000001 = phi i64 [%_35000002, %_35000000.0], [9221120237041090560, %_34000000.0]
  %_50000077 = and i64 32, 63
  %_36000005 = lshr i64 %_36000001, %_50000077
  %_36000006 = xor i64 %_36000001, %_36000005
  %_36000007 = trunc i64 %_36000006 to i32
  br label %_33000000.0
_33000000.0:
  %_33000001 = phi i32 [%_36000007, %_36000000.0], [%_31000002, %_31000000.0]
  br label %_30000000.0
_30000000.0:
  %_30000001 = phi i32 [%_33000001, %_33000000.0], [%_29000001, %_29000000.0]
  br label %_24000000.0
_24000000.0:
  %_24000001 = phi i32 [%_30000001, %_30000000.0], [%_20000006, %_22000000.0]
  br label %_18000000.0
_21000000.0:
  br label %_37000000.0
_37000000.0:
  %_50000081 = icmp eq ptr %_3000001, null
  br i1 %_50000081, label %_50000078.0, label %_50000079.0
_50000078.0:
  br label %_50000080.0
_50000079.0:
  %_50000082 = load ptr, ptr %_3000001
  %_50000083 = icmp eq ptr %_50000082, @"_SM15java.lang.FloatG4type"
  br label %_50000080.0
_50000080.0:
  %_37000002 = phi i1 [%_50000083, %_50000079.0], [false, %_50000078.0]
  br i1 %_37000002, label %_38000000.0, label %_39000000.0
_38000000.0:
  %_50000086 = icmp eq ptr %_3000001, null
  br i1 %_50000086, label %_50000085.0, label %_50000084.0
_50000084.0:
  %_50000087 = load ptr, ptr %_3000001
  %_50000088 = icmp eq ptr %_50000087, @"_SM15java.lang.FloatG4type"
  br i1 %_50000088, label %_50000085.0, label %_50000018.0
_50000085.0:
  %_50000090 = icmp ne ptr %_3000001, null
  br i1 %_50000090, label %_50000089.0, label %_50000003.0
_50000089.0:
  %_50000091 = getelementptr { { ptr }, float }, { { ptr }, float }* %_3000001, i32 0, i32 1
  %_38000002 = load float, ptr %_50000091
  %_50000099 = fcmp une float %_38000002, %_38000002
  br i1 %_50000099, label %_50000092.0, label %_50000093.0
_50000092.0:
  br label %_50000098.0
_50000093.0:
  %_50000100 = fcmp ole float %_38000002, 0xc1e0000000000000
  br i1 %_50000100, label %_50000094.0, label %_50000095.0
_50000094.0:
  br label %_50000098.0
_50000095.0:
  %_50000101 = fcmp oge float %_38000002, 0x41e0000000000000
  br i1 %_50000101, label %_50000096.0, label %_50000097.0
_50000096.0:
  br label %_50000098.0
_50000097.0:
  %_50000102 = fptosi float %_38000002 to i32
  br label %_50000098.0
_50000098.0:
  %_38000006 = phi i32 [%_50000102, %_50000097.0], [2147483647, %_50000096.0], [-2147483648, %_50000094.0], [zeroinitializer, %_50000092.0]
  %_38000007 = sitofp i32 %_38000006 to float
  %_38000008 = fcmp oeq float %_38000007, %_38000002
  br i1 %_38000008, label %_40000000.0, label %_41000000.0
_40000000.0:
  br label %_42000000.0
_41000000.0:
  %_50000110 = fcmp une float %_38000002, %_38000002
  br i1 %_50000110, label %_50000103.0, label %_50000104.0
_50000103.0:
  br label %_50000109.0
_50000104.0:
  %_50000111 = fcmp ole float %_38000002, 0xc3e0000000000000
  br i1 %_50000111, label %_50000105.0, label %_50000106.0
_50000105.0:
  br label %_50000109.0
_50000106.0:
  %_50000112 = fcmp oge float %_38000002, 0x43e0000000000000
  br i1 %_50000112, label %_50000107.0, label %_50000108.0
_50000107.0:
  br label %_50000109.0
_50000108.0:
  %_50000113 = fptosi float %_38000002 to i64
  br label %_50000109.0
_50000109.0:
  %_41000005 = phi i64 [%_50000113, %_50000108.0], [9223372036854775807, %_50000107.0], [-9223372036854775808, %_50000105.0], [zeroinitializer, %_50000103.0]
  %_41000006 = sitofp i64 %_41000005 to double
  %_41000007 = fpext float %_38000002 to double
  %_41000008 = fcmp oeq double %_41000006, %_41000007
  br i1 %_41000008, label %_43000000.0, label %_44000000.0
_43000000.0:
  %_50000114 = and i64 32, 63
  %_43000004 = lshr i64 %_41000005, %_50000114
  %_43000005 = xor i64 %_41000005, %_43000004
  %_43000006 = trunc i64 %_43000005 to i32
  br label %_45000000.0
_44000000.0:
  %_44000002 = fcmp une float %_38000002, %_38000002
  br i1 %_44000002, label %_46000000.0, label %_47000000.0
_46000000.0:
  br label %_48000000.0
_47000000.0:
  %_47000002 = bitcast float %_38000002 to i32
  br label %_48000000.0
_48000000.0:
  %_48000001 = phi i32 [%_47000002, %_47000000.0], [2143289344, %_46000000.0]
  br label %_45000000.0
_45000000.0:
  %_45000001 = phi i32 [%_48000001, %_48000000.0], [%_43000006, %_43000000.0]
  br label %_42000000.0
_42000000.0:
  %_42000001 = phi i32 [%_45000001, %_45000000.0], [%_38000006, %_40000000.0]
  br label %_18000000.0
_39000000.0:
  br label %_49000000.0
_49000000.0:
  %_50000116 = icmp ne ptr %_3000001, null
  br i1 %_50000116, label %_50000115.0, label %_50000003.0
_50000115.0:
  %_50000117 = load ptr, ptr %_3000001
  %_50000118 = getelementptr { { ptr, i32, i32, ptr }, i32, i32, ptr, [7 x ptr] }, { { ptr, i32, i32, ptr }, i32, i32, ptr, [7 x ptr] }* %_50000117, i32 0, i32 4, i32 0
  %_49000002 = load ptr, ptr %_50000118
  %_49000003 = call i32 %_49000002(ptr dereferenceable_or_null(8) %_3000001)
  br label %_18000000.0
_18000000.0:
  %_18000001 = phi i32 [%_49000003, %_50000115.0], [%_42000001, %_42000000.0], [%_24000001, %_24000000.0], [%_17000001, %_17000000.0]
  br label %_8000000.0
_11000000.0:
  br label %_50000000.0
_50000000.0:
  %_50000001 = call i32 @"_SM16java.lang.StringD8hashCodeiEO"(ptr dereferenceable_or_null(32) %_3000001)
  br label %_8000000.0
_8000000.0:
  %_8000001 = phi i32 [%_50000001, %_50000000.0], [%_18000001, %_18000000.0], [0, %_6000000.0]
  ret i32 %_8000001
_50000003.0:
  call ptr @"_SM34scala.scalanative.runtime.package$D16throwNullPointernEO"(ptr null)
  unreachable
_50000018.0:
  %_50000120 = phi ptr [%_3000001, %_50000016.0], [%_3000001, %_50000084.0], [%_3000001, %_50000047.0], [%_3000001, %_50000032.0]
  %_50000121 = phi ptr [@"_SM16java.lang.NumberG4type", %_50000016.0], [@"_SM15java.lang.FloatG4type", %_50000084.0], [@"_SM16java.lang.DoubleG4type", %_50000047.0], [@"_SM14java.lang.LongG4type", %_50000032.0]
  %_50000122 = load ptr, ptr %_50000120
  call ptr @"_SM34scala.scalanative.runtime.package$D14throwClassCastR_R_nEO"(ptr null, ptr %_50000122, ptr %_50000121)
  unreachable
}

define dereferenceable_or_null(32) ptr @"_SM24java.nio.charset.CharsetD8toStringL16java.lang.StringEO"(ptr %_1) personality ptr @__gxx_personality_v0 {
_2000000.0:
  %_3000004 = icmp ne ptr %_1, null
  br i1 %_3000004, label %_3000002.0, label %_3000003.0
_3000002.0:
  %_3000005 = getelementptr { { ptr }, ptr, ptr, i64, ptr }, { { ptr }, ptr, ptr, i64, ptr }* %_1, i32 0, i32 1
  %_3000001 = load ptr, ptr %_3000005, !dereferenceable_or_null !{i64 32}
  ret ptr %_3000001
_3000003.0:
  call ptr @"_SM34scala.scalanative.runtime.package$D16throwNullPointernEO"(ptr null)
  unreachable
}

define nonnull dereferenceable(56) ptr @"_SM25java.nio.charset.Charset$D14defaultCharsetL24java.nio.charset.CharsetEO"(ptr %_1) personality ptr @__gxx_personality_v0 {
_2000000.0:
  %_2000002 = call dereferenceable_or_null(56) ptr @"_SM17niocharset.UTF_8$G4load"()
  ret ptr %_2000002
}

define void @"_SM25java.nio.charset.Charset$RE"(ptr %_1) personality ptr @__gxx_personality_v0 {
_2000000.0:
  ret void
}

define void @"_SM34java.nio.charset.Charset$$Lambda$1RL24java.nio.charset.CharsetE"(ptr %_1, ptr %_2) personality ptr @__gxx_personality_v0 {
_3000000.0:
  %_3000004 = icmp ne ptr %_1, null
  br i1 %_3000004, label %_3000002.0, label %_3000003.0
_3000002.0:
  %_3000006 = getelementptr { { ptr }, ptr }, { { ptr }, ptr }* %_1, i32 0, i32 1
  store ptr %_2, ptr%_3000006, align 8
  ret void
_3000003.0:
  call ptr @"_SM34scala.scalanative.runtime.package$D16throwNullPointernEO"(ptr null)
  unreachable
}

define dereferenceable_or_null(32) ptr @"_SM31java.nio.charset.CharsetDecoderD11replacementL16java.lang.StringEO"(ptr %_1) personality ptr @__gxx_personality_v0 {
_2000000.0:
  %_2000004 = icmp ne ptr %_1, null
  br i1 %_2000004, label %_2000002.0, label %_2000003.0
_2000002.0:
  %_2000005 = getelementptr { { ptr }, float, i32, ptr, ptr, ptr, float, ptr }, { { ptr }, float, i32, ptr, ptr, ptr, float, ptr }* %_1, i32 0, i32 7
  %_2000001 = load ptr, ptr %_2000005, !dereferenceable_or_null !{i64 32}
  ret ptr %_2000001
_2000003.0:
  call ptr @"_SM34scala.scalanative.runtime.package$D16throwNullPointernEO"(ptr null)
  unreachable
}

define dereferenceable_or_null(56) ptr @"_SM31java.nio.charset.CharsetDecoderD16onMalformedInputL34java.nio.charset.CodingErrorActionL31java.nio.charset.CharsetDecoderEO"(ptr %_1, ptr %_2) personality ptr @__gxx_personality_v0 {
_3000000.0:
  %_9000004 = icmp ne ptr %_1, null
  br i1 %_9000004, label %_9000002.0, label %_9000003.0
_9000002.0:
  %_3000002 = icmp eq ptr %_2, null
  br i1 %_3000002, label %_4000000.0, label %_5000000.0
_5000000.0:
  br label %_9000000.0
_9000000.0:
  %_9000006 = getelementptr { { ptr }, float, i32, ptr, ptr, ptr, float, ptr }, { { ptr }, float, i32, ptr, ptr, ptr, float, ptr }* %_1, i32 0, i32 4
  store ptr %_2, ptr%_9000006, align 8
  ret ptr %_1
_4000000.0:
  br label %_7000000.0
_7000000.0:
  %_7000001 = call dereferenceable_or_null(40) ptr @"scalanative_GC_alloc_small"(ptr @"_SM34java.lang.IllegalArgumentExceptionG4type", i64 40)
  %_9000008 = getelementptr { { ptr }, ptr, ptr, ptr, i1, i1 }, { { ptr }, ptr, ptr, ptr, i1, i1 }* %_7000001, i32 0, i32 5
  %_9000009 = zext i1 true to i8
  store i8 %_9000009, ptr%_9000008, align 1
  %_9000011 = getelementptr { { ptr }, ptr, ptr, ptr, i1, i1 }, { { ptr }, ptr, ptr, ptr, i1, i1 }* %_7000001, i32 0, i32 4
  %_9000012 = zext i1 true to i8
  store i8 %_9000012, ptr%_9000011, align 1
  %_9000014 = getelementptr { { ptr }, ptr, ptr, ptr, i1, i1 }, { { ptr }, ptr, ptr, ptr, i1, i1 }* %_7000001, i32 0, i32 3
  store ptr @"_SM7__constG3-124", ptr%_9000014, align 8
  %_7000005 = call dereferenceable_or_null(40) ptr @"_SM19java.lang.ThrowableD16fillInStackTraceL19java.lang.ThrowableEO"(ptr nonnull dereferenceable(40) %_7000001)
  br label %_8000000.0
_8000000.0:
  call ptr @"scalanative_throw"(ptr nonnull dereferenceable(40) %_7000001)
  unreachable
_9000003.0:
  call ptr @"_SM34scala.scalanative.runtime.package$D16throwNullPointernEO"(ptr null)
  unreachable
}

define dereferenceable_or_null(16) ptr @"_SM31java.nio.charset.CharsetDecoderD20malformedInputActionL34java.nio.charset.CodingErrorActionEO"(ptr %_1) personality ptr @__gxx_personality_v0 {
_2000000.0:
  %_2000004 = icmp ne ptr %_1, null
  br i1 %_2000004, label %_2000002.0, label %_2000003.0
_2000002.0:
  %_2000005 = getelementptr { { ptr }, float, i32, ptr, ptr, ptr, float, ptr }, { { ptr }, float, i32, ptr, ptr, ptr, float, ptr }* %_1, i32 0, i32 4
  %_2000001 = load ptr, ptr %_2000005, !dereferenceable_or_null !{i64 16}
  ret ptr %_2000001
_2000003.0:
  call ptr @"_SM34scala.scalanative.runtime.package$D16throwNullPointernEO"(ptr null)
  unreachable
}

define dereferenceable_or_null(56) ptr @"_SM31java.nio.charset.CharsetDecoderD21onUnmappableCharacterL34java.nio.charset.CodingErrorActionL31java.nio.charset.CharsetDecoderEO"(ptr %_1, ptr %_2) personality ptr @__gxx_personality_v0 {
_3000000.0:
  %_9000004 = icmp ne ptr %_1, null
  br i1 %_9000004, label %_9000002.0, label %_9000003.0
_9000002.0:
  %_3000002 = icmp eq ptr %_2, null
  br i1 %_3000002, label %_4000000.0, label %_5000000.0
_5000000.0:
  br label %_9000000.0
_9000000.0:
  %_9000006 = getelementptr { { ptr }, float, i32, ptr, ptr, ptr, float, ptr }, { { ptr }, float, i32, ptr, ptr, ptr, float, ptr }* %_1, i32 0, i32 3
  store ptr %_2, ptr%_9000006, align 8
  ret ptr %_1
_4000000.0:
  br label %_7000000.0
_7000000.0:
  %_7000001 = call dereferenceable_or_null(40) ptr @"scalanative_GC_alloc_small"(ptr @"_SM34java.lang.IllegalArgumentExceptionG4type", i64 40)
  %_9000008 = getelementptr { { ptr }, ptr, ptr, ptr, i1, i1 }, { { ptr }, ptr, ptr, ptr, i1, i1 }* %_7000001, i32 0, i32 5
  %_9000009 = zext i1 true to i8
  store i8 %_9000009, ptr%_9000008, align 1
  %_9000011 = getelementptr { { ptr }, ptr, ptr, ptr, i1, i1 }, { { ptr }, ptr, ptr, ptr, i1, i1 }* %_7000001, i32 0, i32 4
  %_9000012 = zext i1 true to i8
  store i8 %_9000012, ptr%_9000011, align 1
  %_9000014 = getelementptr { { ptr }, ptr, ptr, ptr, i1, i1 }, { { ptr }, ptr, ptr, ptr, i1, i1 }* %_7000001, i32 0, i32 3
  store ptr @"_SM7__constG3-124", ptr%_9000014, align 8
  %_7000005 = call dereferenceable_or_null(40) ptr @"_SM19java.lang.ThrowableD16fillInStackTraceL19java.lang.ThrowableEO"(ptr nonnull dereferenceable(40) %_7000001)
  br label %_8000000.0
_8000000.0:
  call ptr @"scalanative_throw"(ptr nonnull dereferenceable(40) %_7000001)
  unreachable
_9000003.0:
  call ptr @"_SM34scala.scalanative.runtime.package$D16throwNullPointernEO"(ptr null)
  unreachable
}

define dereferenceable_or_null(16) ptr @"_SM31java.nio.charset.CharsetDecoderD25unmappableCharacterActionL34java.nio.charset.CodingErrorActionEO"(ptr %_1) personality ptr @__gxx_personality_v0 {
_2000000.0:
  %_2000004 = icmp ne ptr %_1, null
  br i1 %_2000004, label %_2000002.0, label %_2000003.0
_2000002.0:
  %_2000005 = getelementptr { { ptr }, float, i32, ptr, ptr, ptr, float, ptr }, { { ptr }, float, i32, ptr, ptr, ptr, float, ptr }* %_1, i32 0, i32 3
  %_2000001 = load ptr, ptr %_2000005, !dereferenceable_or_null !{i64 16}
  ret ptr %_2000001
_2000003.0:
  call ptr @"_SM34scala.scalanative.runtime.package$D16throwNullPointernEO"(ptr null)
  unreachable
}

define dereferenceable_or_null(16) ptr @"_SM31java.nio.charset.CharsetDecoderD5flushL19java.nio.CharBufferL28java.nio.charset.CoderResultEO"(ptr %_1, ptr %_2) personality ptr @__gxx_personality_v0 {
_3000000.0:
  %_20000003 = icmp ne ptr %_1, null
  br i1 %_20000003, label %_20000001.0, label %_20000002.0
_20000001.0:
  br label %_4000000.0
_4000000.0:
  %_20000004 = getelementptr { { ptr }, float, i32, ptr, ptr, ptr, float, ptr }, { { ptr }, float, i32, ptr, ptr, ptr, float, ptr }* %_1, i32 0, i32 2
  %_4000001 = load i32, ptr %_20000004
  %_4000003 = icmp eq i32 %_4000001, 3
  br i1 %_4000003, label %_5000000.0, label %_6000000.0
_5000000.0:
  %_7000001 = call dereferenceable_or_null(104) ptr @"_SM29java.nio.charset.CoderResult$G4load"()
  %_20000005 = getelementptr { { ptr }, ptr, ptr, ptr, ptr, ptr, ptr, ptr, ptr, ptr, ptr, ptr, ptr }, { { ptr }, ptr, ptr, ptr, ptr, ptr, ptr, ptr, ptr, ptr, ptr, ptr, ptr }* %_7000001, i32 0, i32 12
  %_7000002 = load ptr, ptr %_20000005, !dereferenceable_or_null !{i64 16}
  %_20000007 = icmp ne ptr %_7000002, null
  br i1 %_20000007, label %_20000006.0, label %_20000002.0
_20000006.0:
  %_20000008 = getelementptr { { ptr }, i32, i32 }, { { ptr }, i32, i32 }* %_7000002, i32 0, i32 2
  %_8000001 = load i32, ptr %_20000008
  %_5000001 = icmp eq i32 %_8000001, 0
  br i1 %_5000001, label %_9000000.0, label %_10000000.0
_9000000.0:
  %_20000010 = getelementptr { { ptr }, float, i32, ptr, ptr, ptr, float, ptr }, { { ptr }, float, i32, ptr, ptr, ptr, float, ptr }* %_1, i32 0, i32 2
  store i32 4, ptr%_20000010, align 4
  br label %_11000000.0
_10000000.0:
  br label %_11000000.0
_11000000.0:
  br label %_12000000.0
_6000000.0:
  br label %_13000000.0
_13000000.0:
  %_13000002 = icmp eq i32 %_4000001, 4
  br i1 %_13000002, label %_14000000.0, label %_15000000.0
_14000000.0:
  %_14000001 = call dereferenceable_or_null(104) ptr @"_SM29java.nio.charset.CoderResult$G4load"()
  %_20000011 = getelementptr { { ptr }, ptr, ptr, ptr, ptr, ptr, ptr, ptr, ptr, ptr, ptr, ptr, ptr }, { { ptr }, ptr, ptr, ptr, ptr, ptr, ptr, ptr, ptr, ptr, ptr, ptr, ptr }* %_14000001, i32 0, i32 12
  %_16000001 = load ptr, ptr %_20000011, !dereferenceable_or_null !{i64 16}
  br label %_12000000.0
_15000000.0:
  br label %_17000000.0
_12000000.0:
  %_12000001 = phi ptr [%_16000001, %_14000000.0], [%_7000002, %_11000000.0]
  ret ptr %_12000001
_17000000.0:
  br label %_19000000.0
_19000000.0:
  %_19000001 = call dereferenceable_or_null(40) ptr @"scalanative_GC_alloc_small"(ptr @"_SM31java.lang.IllegalStateExceptionG4type", i64 40)
  %_20000013 = getelementptr { { ptr }, ptr, ptr, ptr, i1, i1 }, { { ptr }, ptr, ptr, ptr, i1, i1 }* %_19000001, i32 0, i32 5
  %_20000014 = zext i1 true to i8
  store i8 %_20000014, ptr%_20000013, align 1
  %_20000016 = getelementptr { { ptr }, ptr, ptr, ptr, i1, i1 }, { { ptr }, ptr, ptr, ptr, i1, i1 }* %_19000001, i32 0, i32 4
  %_20000017 = zext i1 true to i8
  store i8 %_20000017, ptr%_20000016, align 1
  %_19000004 = call dereferenceable_or_null(40) ptr @"_SM19java.lang.ThrowableD16fillInStackTraceL19java.lang.ThrowableEO"(ptr nonnull dereferenceable(40) %_19000001)
  br label %_20000000.0
_20000000.0:
  call ptr @"scalanative_throw"(ptr nonnull dereferenceable(40) %_19000001)
  unreachable
_20000002.0:
  call ptr @"_SM34scala.scalanative.runtime.package$D16throwNullPointernEO"(ptr null)
  unreachable
}

define nonnull dereferenceable(56) ptr @"_SM31java.nio.charset.CharsetDecoderD6decodeL19java.nio.ByteBufferL19java.nio.CharBufferEO"(ptr %_1, ptr %_2) personality ptr @__gxx_personality_v0 {
_3000000.0:
  %_33000007 = icmp ne ptr %_1, null
  br i1 %_33000007, label %_33000005.0, label %_33000006.0
_33000005.0:
  %_33000009 = getelementptr { { ptr }, float, i32, ptr, ptr, ptr, float, ptr }, { { ptr }, float, i32, ptr, ptr, ptr, float, ptr }* %_1, i32 0, i32 2
  store i32 1, ptr%_33000009, align 4
  %_33000011 = icmp ne ptr %_2, null
  br i1 %_33000011, label %_33000010.0, label %_33000006.0
_33000010.0:
  %_33000012 = getelementptr { { ptr }, i32, i32, i32, i32, ptr }, { { ptr }, i32, i32, i32, i32, ptr }* %_2, i32 0, i32 1
  %_5000001 = load i32, ptr %_33000012
  %_33000013 = getelementptr { { ptr }, i32, i32, i32, i32, ptr }, { { ptr }, i32, i32, i32, i32, ptr }* %_2, i32 0, i32 4
  %_5000002 = load i32, ptr %_33000013
  %_33000014 = getelementptr { { ptr }, float, i32, ptr, ptr, ptr, float, ptr }, { { ptr }, float, i32, ptr, ptr, ptr, float, ptr }* %_1, i32 0, i32 1
  %_6000001 = load float, ptr %_33000014
  %_7000001 = sub i32 %_5000001, %_5000002
  %_7000002 = sitofp i32 %_7000001 to double
  %_7000003 = fpext float %_6000001 to double
  %_7000004 = fmul double %_7000002, %_7000003
  %_33000022 = fcmp une double %_7000004, %_7000004
  br i1 %_33000022, label %_33000015.0, label %_33000016.0
_33000015.0:
  br label %_33000021.0
_33000016.0:
  %_33000023 = fcmp ole double %_7000004, 0xc1e0000000000000
  br i1 %_33000023, label %_33000017.0, label %_33000018.0
_33000017.0:
  br label %_33000021.0
_33000018.0:
  %_33000024 = fcmp oge double %_7000004, 0x41dfffffffc00000
  br i1 %_33000024, label %_33000019.0, label %_33000020.0
_33000019.0:
  br label %_33000021.0
_33000020.0:
  %_33000025 = fptosi double %_7000004 to i32
  br label %_33000021.0
_33000021.0:
  %_7000005 = phi i32 [%_33000025, %_33000020.0], [2147483647, %_33000019.0], [-2147483648, %_33000017.0], [zeroinitializer, %_33000015.0]
  %_7000006 = call dereferenceable_or_null(16) ptr @"_SM36scala.scalanative.runtime.CharArray$D5allociL35scala.scalanative.runtime.CharArrayEO"(ptr @"_SM36scala.scalanative.runtime.CharArray$G8instance", i32 %_7000005)
  %_33000027 = getelementptr { ptr, i32, i32 }, { ptr, i32, i32 }* %_7000006, i32 0, i32 1
  %_7000007 = load i32, ptr %_33000027
  %_7000010 = call nonnull dereferenceable(56) ptr @"_SM24java.nio.HeapCharBuffer$D4wrapLAc_iiiizL19java.nio.CharBufferEO"(ptr nonnull dereferenceable(8) @"_SM24java.nio.HeapCharBuffer$G8instance", ptr nonnull dereferenceable(16) %_7000006, i32 0, i32 %_7000007, i32 0, i32 %_7000007, i1 false)
  br label %_9000000.0
_9000000.0:
  %_9000001 = phi ptr [%_7000010, %_33000021.0], [%_18000001, %_20000000.0]
  br label %_10000000.0
_10000000.0:
  br label %_11000000.0
_11000000.0:
  %_11000001 = call dereferenceable_or_null(16) ptr @"_SM31java.nio.charset.CharsetDecoderD6decodeL19java.nio.ByteBufferL19java.nio.CharBufferzL28java.nio.charset.CoderResultEO"(ptr dereferenceable_or_null(56) %_1, ptr dereferenceable_or_null(56) %_2, ptr nonnull dereferenceable(56) %_9000001, i1 true)
  %_33000029 = icmp ne ptr %_11000001, null
  br i1 %_33000029, label %_33000028.0, label %_33000006.0
_33000028.0:
  %_33000030 = getelementptr { { ptr }, i32, i32 }, { { ptr }, i32, i32 }* %_11000001, i32 0, i32 2
  %_11000002 = load i32, ptr %_33000030
  %_11000004 = icmp eq i32 %_11000002, 0
  br i1 %_11000004, label %_12000000.0, label %_13000000.0
_12000000.0:
  %_33000031 = getelementptr { { ptr }, i32, i32, i32, i32, ptr }, { { ptr }, i32, i32, i32, i32, ptr }* %_2, i32 0, i32 4
  %_12000001 = load i32, ptr %_33000031
  %_33000032 = getelementptr { { ptr }, i32, i32, i32, i32, ptr }, { { ptr }, i32, i32, i32, i32, ptr }* %_2, i32 0, i32 1
  %_12000002 = load i32, ptr %_33000032
  %_12000006 = icmp ne i32 %_12000001, %_12000002
  %_12000007 = xor i1 %_12000006, true
  %_12000008 = xor i1 %_12000007, true
  br i1 %_12000008, label %_14000000.0, label %_15000000.0
_15000000.0:
  br label %_16000000.0
_16000000.0:
  br label %_17000000.0
_13000000.0:
  %_33000033 = getelementptr { { ptr }, i32, i32 }, { { ptr }, i32, i32 }* %_11000001, i32 0, i32 2
  %_13000001 = load i32, ptr %_33000033
  %_13000003 = icmp eq i32 %_13000001, 1
  br i1 %_13000003, label %_18000000.0, label %_19000000.0
_18000000.0:
  %_18000001 = call nonnull dereferenceable(56) ptr @"_SM31java.nio.charset.CharsetDecoderD6grow$1L19java.nio.CharBufferL19java.nio.CharBufferEpT31java.nio.charset.CharsetDecoder"(ptr nonnull dereferenceable(56) %_9000001)
  br label %_20000000.0
_20000000.0:
  br label %_9000000.0
_14000000.0:
  %_14000001 = call dereferenceable_or_null(24) ptr @"_SM17java.lang.String$G4load"()
  br label %_21000000.0
_21000000.0:
  %_21000004 = call dereferenceable_or_null(40) ptr @"scalanative_GC_alloc_small"(ptr @"_SM24java.lang.AssertionErrorG4type", i64 40)
  %_33000035 = getelementptr { { ptr }, ptr, ptr, ptr, i1, i1 }, { { ptr }, ptr, ptr, ptr, i1, i1 }* %_21000004, i32 0, i32 5
  %_33000036 = zext i1 true to i8
  store i8 %_33000036, ptr%_33000035, align 1
  %_33000038 = getelementptr { { ptr }, ptr, ptr, ptr, i1, i1 }, { { ptr }, ptr, ptr, ptr, i1, i1 }* %_21000004, i32 0, i32 4
  %_33000039 = zext i1 true to i8
  store i8 %_33000039, ptr%_33000038, align 1
  %_33000041 = getelementptr { { ptr }, ptr, ptr, ptr, i1, i1 }, { { ptr }, ptr, ptr, ptr, i1, i1 }* %_21000004, i32 0, i32 3
  store ptr @"_SM7__constG3-126", ptr%_33000041, align 8
  %_21000008 = call dereferenceable_or_null(40) ptr @"_SM19java.lang.ThrowableD16fillInStackTraceL19java.lang.ThrowableEO"(ptr nonnull dereferenceable(40) %_21000004)
  br label %_22000000.0
_22000000.0:
  call ptr @"scalanative_throw"(ptr nonnull dereferenceable(40) %_21000004)
  unreachable
_19000000.0:
  call ptr @"_SM28java.nio.charset.CoderResultD14throwExceptionuEO"(ptr dereferenceable_or_null(16) %_11000001)
  br label %_33000044.0
_17000000.0:
  br label %_24000000.0
_24000000.0:
  %_24000001 = phi ptr [%_9000001, %_17000000.0], [%_30000001, %_32000000.0]
  br label %_25000000.0
_25000000.0:
  br label %_26000000.0
_26000000.0:
  %_26000001 = call dereferenceable_or_null(16) ptr @"_SM31java.nio.charset.CharsetDecoderD5flushL19java.nio.CharBufferL28java.nio.charset.CoderResultEO"(ptr dereferenceable_or_null(56) %_1, ptr nonnull dereferenceable(56) %_24000001)
  %_33000047 = icmp ne ptr %_26000001, null
  br i1 %_33000047, label %_33000046.0, label %_33000006.0
_33000046.0:
  %_33000048 = getelementptr { { ptr }, i32, i32 }, { { ptr }, i32, i32 }* %_26000001, i32 0, i32 2
  %_26000002 = load i32, ptr %_33000048
  %_26000004 = icmp eq i32 %_26000002, 0
  br i1 %_26000004, label %_27000000.0, label %_28000000.0
_27000000.0:
  br label %_29000000.0
_28000000.0:
  %_33000049 = getelementptr { { ptr }, i32, i32 }, { { ptr }, i32, i32 }* %_26000001, i32 0, i32 2
  %_28000001 = load i32, ptr %_33000049
  %_28000003 = icmp eq i32 %_28000001, 1
  br i1 %_28000003, label %_30000000.0, label %_31000000.0
_30000000.0:
  %_30000001 = call nonnull dereferenceable(56) ptr @"_SM31java.nio.charset.CharsetDecoderD6grow$1L19java.nio.CharBufferL19java.nio.CharBufferEpT31java.nio.charset.CharsetDecoder"(ptr nonnull dereferenceable(56) %_24000001)
  br label %_32000000.0
_32000000.0:
  br label %_24000000.0
_31000000.0:
  call ptr @"_SM28java.nio.charset.CoderResultD14throwExceptionuEO"(ptr dereferenceable_or_null(16) %_26000001)
  br label %_33000044.0
_29000000.0:
  %_33000053 = getelementptr { { ptr }, i32, i32, i32, i32, ptr }, { { ptr }, i32, i32, i32, i32, ptr }* %_24000001, i32 0, i32 3
  store i32 -1, ptr%_33000053, align 4
  %_33000054 = getelementptr { { ptr }, i32, i32, i32, i32, ptr }, { { ptr }, i32, i32, i32, i32, ptr }* %_24000001, i32 0, i32 4
  %_33000002 = load i32, ptr %_33000054
  %_33000056 = getelementptr { { ptr }, i32, i32, i32, i32, ptr }, { { ptr }, i32, i32, i32, i32, ptr }* %_24000001, i32 0, i32 1
  store i32 %_33000002, ptr%_33000056, align 4
  %_33000058 = getelementptr { { ptr }, i32, i32, i32, i32, ptr }, { { ptr }, i32, i32, i32, i32, ptr }* %_24000001, i32 0, i32 4
  store i32 0, ptr%_33000058, align 4
  ret ptr %_24000001
_33000006.0:
  call ptr @"_SM34scala.scalanative.runtime.package$D16throwNullPointernEO"(ptr null)
  unreachable
_33000044.0:
  call ptr @"_SM34scala.scalanative.runtime.package$D14throwUndefinednEO"(ptr null)
  unreachable
}

define dereferenceable_or_null(16) ptr @"_SM31java.nio.charset.CharsetDecoderD6decodeL19java.nio.ByteBufferL19java.nio.CharBufferzL28java.nio.charset.CoderResultEO"(ptr %_1, ptr %_2, ptr %_3, i1 %_4) personality ptr @__gxx_personality_v0 {
_5000000.0:
  %_20000006 = icmp ne ptr %_1, null
  br i1 %_20000006, label %_20000004.0, label %_20000005.0
_20000004.0:
  %_20000007 = getelementptr { { ptr }, float, i32, ptr, ptr, ptr, float, ptr }, { { ptr }, float, i32, ptr, ptr, ptr, float, ptr }* %_1, i32 0, i32 2
  %_5000001 = load i32, ptr %_20000007
  %_5000003 = icmp eq i32 %_5000001, 4
  br i1 %_5000003, label %_6000000.0, label %_7000000.0
_6000000.0:
  br label %_8000000.0
_7000000.0:
  %_7000002 = xor i1 %_4, true
  br i1 %_7000002, label %_9000000.0, label %_10000000.0
_9000000.0:
  %_20000008 = getelementptr { { ptr }, float, i32, ptr, ptr, ptr, float, ptr }, { { ptr }, float, i32, ptr, ptr, ptr, float, ptr }* %_1, i32 0, i32 2
  %_9000001 = load i32, ptr %_20000008
  %_9000003 = icmp eq i32 %_9000001, 3
  br label %_11000000.0
_10000000.0:
  br label %_11000000.0
_11000000.0:
  %_11000001 = phi i1 [false, %_10000000.0], [%_9000003, %_9000000.0]
  br label %_8000000.0
_8000000.0:
  %_8000001 = phi i1 [%_11000001, %_11000000.0], [true, %_6000000.0]
  br i1 %_8000001, label %_12000000.0, label %_13000000.0
_13000000.0:
  br label %_17000000.0
_17000000.0:
  br i1 %_4, label %_18000000.0, label %_19000000.0
_18000000.0:
  br label %_20000000.0
_19000000.0:
  br label %_20000000.0
_20000000.0:
  %_20000001 = phi i32 [2, %_19000000.0], [3, %_18000000.0]
  %_20000010 = getelementptr { { ptr }, float, i32, ptr, ptr, ptr, float, ptr }, { { ptr }, float, i32, ptr, ptr, ptr, float, ptr }* %_1, i32 0, i32 2
  store i32 %_20000001, ptr%_20000010, align 4
  %_20000003 = call dereferenceable_or_null(16) ptr @"_SM31java.nio.charset.CharsetDecoderD6loop$1L19java.nio.ByteBufferL19java.nio.CharBufferzL28java.nio.charset.CoderResultEPT31java.nio.charset.CharsetDecoder"(ptr dereferenceable_or_null(56) %_1, ptr dereferenceable_or_null(56) %_2, ptr dereferenceable_or_null(48) %_3, i1 %_4)
  ret ptr %_20000003
_12000000.0:
  br label %_15000000.0
_15000000.0:
  %_15000001 = call dereferenceable_or_null(40) ptr @"scalanative_GC_alloc_small"(ptr @"_SM31java.lang.IllegalStateExceptionG4type", i64 40)
  %_20000012 = getelementptr { { ptr }, ptr, ptr, ptr, i1, i1 }, { { ptr }, ptr, ptr, ptr, i1, i1 }* %_15000001, i32 0, i32 5
  %_20000013 = zext i1 true to i8
  store i8 %_20000013, ptr%_20000012, align 1
  %_20000015 = getelementptr { { ptr }, ptr, ptr, ptr, i1, i1 }, { { ptr }, ptr, ptr, ptr, i1, i1 }* %_15000001, i32 0, i32 4
  %_20000016 = zext i1 true to i8
  store i8 %_20000016, ptr%_20000015, align 1
  %_15000004 = call dereferenceable_or_null(40) ptr @"_SM19java.lang.ThrowableD16fillInStackTraceL19java.lang.ThrowableEO"(ptr nonnull dereferenceable(40) %_15000001)
  br label %_16000000.0
_16000000.0:
  call ptr @"scalanative_throw"(ptr nonnull dereferenceable(40) %_15000001)
  unreachable
_20000005.0:
  call ptr @"_SM34scala.scalanative.runtime.package$D16throwNullPointernEO"(ptr null)
  unreachable
}

define nonnull dereferenceable(56) ptr @"_SM31java.nio.charset.CharsetDecoderD6grow$1L19java.nio.CharBufferL19java.nio.CharBufferEpT31java.nio.charset.CharsetDecoder"(ptr %_1) personality ptr @__gxx_personality_v0 {
_2000000.0:
  %_10000007 = icmp ne ptr %_1, null
  br i1 %_10000007, label %_10000005.0, label %_10000006.0
_10000005.0:
  %_10000008 = getelementptr { { ptr }, i32, i32, i32, i32, ptr }, { { ptr }, i32, i32, i32, i32, ptr }* %_1, i32 0, i32 2
  %_3000001 = load i32, ptr %_10000008
  %_2000002 = icmp eq i32 %_3000001, 0
  br i1 %_2000002, label %_4000000.0, label %_5000000.0
_4000000.0:
  %_6000004 = call dereferenceable_or_null(16) ptr @"_SM36scala.scalanative.runtime.CharArray$D5allociL35scala.scalanative.runtime.CharArrayEO"(ptr @"_SM36scala.scalanative.runtime.CharArray$G8instance", i32 1)
  %_6000005 = call nonnull dereferenceable(56) ptr @"_SM24java.nio.HeapCharBuffer$D4wrapLAc_iiiizL19java.nio.CharBufferEO"(ptr nonnull dereferenceable(8) @"_SM24java.nio.HeapCharBuffer$G8instance", ptr nonnull dereferenceable(16) %_6000004, i32 0, i32 1, i32 0, i32 1, i1 false)
  br label %_7000000.0
_5000000.0:
  %_10000010 = getelementptr { { ptr }, i32, i32, i32, i32, ptr }, { { ptr }, i32, i32, i32, i32, ptr }* %_1, i32 0, i32 2
  %_8000001 = load i32, ptr %_10000010
  %_10000011 = and i32 1, 31
  %_9000001 = shl i32 %_8000001, %_10000011
  %_9000002 = call dereferenceable_or_null(16) ptr @"_SM36scala.scalanative.runtime.CharArray$D5allociL35scala.scalanative.runtime.CharArrayEO"(ptr @"_SM36scala.scalanative.runtime.CharArray$G8instance", i32 %_9000001)
  %_10000013 = getelementptr { ptr, i32, i32 }, { ptr, i32, i32 }* %_9000002, i32 0, i32 1
  %_9000003 = load i32, ptr %_10000013
  %_9000006 = call nonnull dereferenceable(56) ptr @"_SM24java.nio.HeapCharBuffer$D4wrapLAc_iiiizL19java.nio.CharBufferEO"(ptr nonnull dereferenceable(8) @"_SM24java.nio.HeapCharBuffer$G8instance", ptr nonnull dereferenceable(16) %_9000002, i32 0, i32 %_9000003, i32 0, i32 %_9000003, i1 false)
  %_10000015 = getelementptr { { ptr }, i32, i32, i32, i32, ptr }, { { ptr }, i32, i32, i32, i32, ptr }* %_1, i32 0, i32 3
  store i32 -1, ptr%_10000015, align 4
  %_10000016 = getelementptr { { ptr }, i32, i32, i32, i32, ptr }, { { ptr }, i32, i32, i32, i32, ptr }* %_1, i32 0, i32 4
  %_10000002 = load i32, ptr %_10000016
  %_10000018 = getelementptr { { ptr }, i32, i32, i32, i32, ptr }, { { ptr }, i32, i32, i32, i32, ptr }* %_1, i32 0, i32 1
  store i32 %_10000002, ptr%_10000018, align 4
  %_10000020 = getelementptr { { ptr }, i32, i32, i32, i32, ptr }, { { ptr }, i32, i32, i32, i32, ptr }* %_1, i32 0, i32 4
  store i32 0, ptr%_10000020, align 4
  %_5000003 = call dereferenceable_or_null(48) ptr @"_SM19java.nio.CharBufferD3putL19java.nio.CharBufferL19java.nio.CharBufferEO"(ptr nonnull dereferenceable(56) %_9000006, ptr dereferenceable_or_null(48) %_1)
  br label %_7000000.0
_7000000.0:
  %_7000001 = phi ptr [%_9000006, %_5000000.0], [%_6000005, %_4000000.0]
  ret ptr %_7000001
_10000006.0:
  call ptr @"_SM34scala.scalanative.runtime.package$D16throwNullPointernEO"(ptr null)
  unreachable
}

define dereferenceable_or_null(16) ptr @"_SM31java.nio.charset.CharsetDecoderD6loop$1L19java.nio.ByteBufferL19java.nio.CharBufferzL28java.nio.charset.CoderResultEPT31java.nio.charset.CharsetDecoder"(ptr %_4, ptr %_1, ptr %_2, i1 %_3) inlinehint personality ptr @__gxx_personality_v0 {
_5.0:
  br label %_6.0
_6.0:
  br i1 true, label %_7.0, label %_8.0
_7.0:
  br label %_9.0
_9.0:
  br label %_13.0
_13.0:
  %_175 = icmp ne ptr %_4, null
  br i1 %_175, label %_172.0, label %_173.0
_172.0:
  %_20 = invoke dereferenceable_or_null(16) ptr @"_SM24niocharset.UTF_8$DecoderD10decodeLoopL19java.nio.ByteBufferL19java.nio.CharBufferL28java.nio.charset.CoderResultEO"(ptr dereferenceable_or_null(56) %_4, ptr dereferenceable_or_null(56) %_1, ptr dereferenceable_or_null(48) %_2) to label %_172.1 unwind label %_178.landingpad
_172.1:
  br label %_14.0
_12.0:
  %_15 = phi ptr [%_19, %_177.0], [%_17, %_171.0]
  %_182 = icmp eq ptr %_15, null
  br i1 %_182, label %_179.0, label %_180.0
_179.0:
  br label %_181.0
_180.0:
  %_183 = load ptr, ptr %_15
  %_184 = icmp eq ptr %_183, @"_SM32java.nio.BufferOverflowExceptionG4type"
  br label %_181.0
_181.0:
  %_21 = phi i1 [%_184, %_180.0], [false, %_179.0]
  br i1 %_21, label %_22.0, label %_23.0
_22.0:
  %_188 = icmp eq ptr %_15, null
  br i1 %_188, label %_186.0, label %_185.0
_185.0:
  %_189 = load ptr, ptr %_15
  %_190 = icmp eq ptr %_189, @"_SM32java.nio.BufferOverflowExceptionG4type"
  br i1 %_190, label %_186.0, label %_187.0
_186.0:
  %_27 = call dereferenceable_or_null(40) ptr @"scalanative_GC_alloc_small"(ptr @"_SM38java.nio.charset.CoderMalfunctionErrorG4type", i64 40)
  call void @"_SM38java.nio.charset.CoderMalfunctionErrorRL19java.lang.ExceptionE"(ptr nonnull dereferenceable(40) %_27, ptr dereferenceable_or_null(40) %_15)
  call ptr @"scalanative_throw"(ptr nonnull dereferenceable(40) %_27)
  unreachable
_23.0:
  %_196 = icmp eq ptr %_15, null
  br i1 %_196, label %_193.0, label %_194.0
_193.0:
  br label %_195.0
_194.0:
  %_197 = load ptr, ptr %_15
  %_198 = icmp eq ptr %_197, @"_SM33java.nio.BufferUnderflowExceptionG4type"
  br label %_195.0
_195.0:
  %_31 = phi i1 [%_198, %_194.0], [false, %_193.0]
  br i1 %_31, label %_32.0, label %_33.0
_32.0:
  %_201 = icmp eq ptr %_15, null
  br i1 %_201, label %_200.0, label %_199.0
_199.0:
  %_202 = load ptr, ptr %_15
  %_203 = icmp eq ptr %_202, @"_SM33java.nio.BufferUnderflowExceptionG4type"
  br i1 %_203, label %_200.0, label %_187.0
_200.0:
  %_37 = call dereferenceable_or_null(40) ptr @"scalanative_GC_alloc_small"(ptr @"_SM38java.nio.charset.CoderMalfunctionErrorG4type", i64 40)
  call void @"_SM38java.nio.charset.CoderMalfunctionErrorRL19java.lang.ExceptionE"(ptr nonnull dereferenceable(40) %_37, ptr dereferenceable_or_null(40) %_15)
  call ptr @"scalanative_throw"(ptr nonnull dereferenceable(40) %_37)
  unreachable
_33.0:
  %_208 = icmp ne ptr %_15, null
  br i1 %_208, label %_206.0, label %_207.0
_206.0:
  call ptr @"scalanative_throw"(ptr dereferenceable_or_null(8) %_15)
  unreachable
_14.0:
  %_16 = phi ptr [%_20, %_172.1]
  %_211 = icmp ne ptr %_16, null
  br i1 %_211, label %_210.0, label %_207.0
_210.0:
  %_47 = call i1 @"_SM28java.nio.charset.CoderResultD11isUnderflowzEO"(ptr dereferenceable_or_null(16) %_16)
  br i1 %_47, label %_42.0, label %_43.0
_42.0:
  %_213 = icmp ne ptr %_1, null
  br i1 %_213, label %_212.0, label %_207.0
_212.0:
  %_49 = call i32 @"_SM15java.nio.BufferD9remainingiEO"(ptr dereferenceable_or_null(56) %_1)
  br i1 %_3, label %_54.0, label %_55.0
_54.0:
  %_58 = icmp sgt i32 %_49, 0
  br label %_56.0
_55.0:
  br label %_56.0
_56.0:
  %_57 = phi i1 [false, %_55.0], [%_58, %_54.0]
  br i1 %_57, label %_50.0, label %_51.0
_50.0:
  %_59 = call dereferenceable_or_null(104) ptr @"_SM29java.nio.charset.CoderResult$G4load"()
  %_61 = call dereferenceable_or_null(16) ptr @"_SM29java.nio.charset.CoderResult$D18malformedForLengthiL28java.nio.charset.CoderResultEO"(ptr nonnull dereferenceable(104) %_59, i32 %_49)
  br label %_52.0
_51.0:
  br label %_52.0
_52.0:
  %_53 = phi ptr [%_16, %_51.0], [%_61, %_50.0]
  br label %_44.0
_43.0:
  br label %_44.0
_44.0:
  %_45 = phi ptr [%_16, %_43.0], [%_53, %_52.0]
  %_215 = icmp ne ptr %_45, null
  br i1 %_215, label %_214.0, label %_207.0
_214.0:
  %_71 = call i1 @"_SM28java.nio.charset.CoderResultD11isUnderflowzEO"(ptr dereferenceable_or_null(16) %_45)
  br i1 %_71, label %_66.0, label %_67.0
_66.0:
  br label %_68.0
_67.0:
  %_73 = call i1 @"_SM28java.nio.charset.CoderResultD10isOverflowzEO"(ptr dereferenceable_or_null(16) %_45)
  br label %_68.0
_68.0:
  %_69 = phi i1 [%_73, %_67.0], [true, %_66.0]
  br i1 %_69, label %_62.0, label %_63.0
_62.0:
  br label %_64.0
_63.0:
  %_79 = call i1 @"_SM28java.nio.charset.CoderResultD12isUnmappablezEO"(ptr dereferenceable_or_null(16) %_45)
  br i1 %_79, label %_74.0, label %_75.0
_74.0:
  %_81 = call dereferenceable_or_null(16) ptr @"_SM31java.nio.charset.CharsetDecoderD25unmappableCharacterActionL34java.nio.charset.CodingErrorActionEO"(ptr dereferenceable_or_null(56) %_4)
  br label %_76.0
_75.0:
  %_83 = call dereferenceable_or_null(16) ptr @"_SM31java.nio.charset.CharsetDecoderD20malformedInputActionL34java.nio.charset.CodingErrorActionEO"(ptr dereferenceable_or_null(56) %_4)
  br label %_76.0
_76.0:
  %_77 = phi ptr [%_83, %_75.0], [%_81, %_74.0]
  br label %_84.0
_84.0:
  %_95 = call dereferenceable_or_null(32) ptr @"_SM35java.nio.charset.CodingErrorAction$G4load"()
  %_97 = call dereferenceable_or_null(16) ptr @"_SM35java.nio.charset.CodingErrorAction$D7REPLACEL34java.nio.charset.CodingErrorActionEO"(ptr nonnull dereferenceable(32) %_95)
  %_98 = icmp eq ptr %_97, null
  br i1 %_98, label %_91.0, label %_92.0
_91.0:
  %_99 = icmp eq ptr %_77, null
  br label %_93.0
_92.0:
  %_217 = icmp ne ptr %_97, null
  br i1 %_217, label %_216.0, label %_207.0
_216.0:
  %_101 = call i1 @"_SM16java.lang.ObjectD6equalsL16java.lang.ObjectzEO"(ptr dereferenceable_or_null(16) %_97, ptr dereferenceable_or_null(16) %_77)
  br label %_93.0
_93.0:
  %_94 = phi i1 [%_101, %_216.0], [%_99, %_91.0]
  br i1 %_94, label %_87.0, label %_88.0
_87.0:
  %_219 = icmp ne ptr %_2, null
  br i1 %_219, label %_218.0, label %_207.0
_218.0:
  %_107 = call i32 @"_SM15java.nio.BufferD9remainingiEO"(ptr dereferenceable_or_null(48) %_2)
  %_109 = call dereferenceable_or_null(32) ptr @"_SM31java.nio.charset.CharsetDecoderD11replacementL16java.lang.StringEO"(ptr dereferenceable_or_null(56) %_4)
  %_221 = icmp ne ptr %_109, null
  br i1 %_221, label %_220.0, label %_207.0
_220.0:
  %_111 = call i32 @"_SM16java.lang.StringD6lengthiEO"(ptr dereferenceable_or_null(32) %_109)
  %_112 = icmp slt i32 %_107, %_111
  br i1 %_112, label %_102.0, label %_103.0
_102.0:
  %_113 = call dereferenceable_or_null(104) ptr @"_SM29java.nio.charset.CoderResult$G4load"()
  %_115 = call dereferenceable_or_null(16) ptr @"_SM29java.nio.charset.CoderResult$D8OVERFLOWL28java.nio.charset.CoderResultEO"(ptr nonnull dereferenceable(104) %_113)
  br label %_104.0
_103.0:
  %_117 = call dereferenceable_or_null(32) ptr @"_SM31java.nio.charset.CharsetDecoderD11replacementL16java.lang.StringEO"(ptr dereferenceable_or_null(56) %_4)
  %_119 = call dereferenceable_or_null(48) ptr @"_SM19java.nio.CharBufferD3putL16java.lang.StringL19java.nio.CharBufferEO"(ptr dereferenceable_or_null(48) %_2, ptr dereferenceable_or_null(32) %_117)
  %_121 = call i32 @"_SM15java.nio.BufferD8positioniEO"(ptr dereferenceable_or_null(56) %_1)
  %_123 = call i32 @"_SM28java.nio.charset.CoderResultD6lengthiEO"(ptr dereferenceable_or_null(16) %_45)
  %_124 = add i32 %_121, %_123
  %_126 = call dereferenceable_or_null(56) ptr @"_SM19java.nio.ByteBufferD8positioniL19java.nio.ByteBufferEO"(ptr dereferenceable_or_null(56) %_1, i32 %_124)
  br label %_10.0
_104.0:
  %_105 = phi ptr [%_115, %_102.0]
  br label %_85.0
_88.0:
  br label %_89.0
_89.0:
  %_137 = call dereferenceable_or_null(32) ptr @"_SM35java.nio.charset.CodingErrorAction$G4load"()
  %_139 = call dereferenceable_or_null(16) ptr @"_SM35java.nio.charset.CodingErrorAction$D6REPORTL34java.nio.charset.CodingErrorActionEO"(ptr nonnull dereferenceable(32) %_137)
  %_140 = icmp eq ptr %_139, null
  br i1 %_140, label %_133.0, label %_134.0
_133.0:
  %_141 = icmp eq ptr %_77, null
  br label %_135.0
_134.0:
  %_223 = icmp ne ptr %_139, null
  br i1 %_223, label %_222.0, label %_207.0
_222.0:
  %_143 = call i1 @"_SM16java.lang.ObjectD6equalsL16java.lang.ObjectzEO"(ptr dereferenceable_or_null(16) %_139, ptr dereferenceable_or_null(16) %_77)
  br label %_135.0
_135.0:
  %_136 = phi i1 [%_143, %_222.0], [%_141, %_133.0]
  br i1 %_136, label %_129.0, label %_130.0
_129.0:
  br label %_85.0
_130.0:
  br label %_131.0
_131.0:
  %_153 = call dereferenceable_or_null(32) ptr @"_SM35java.nio.charset.CodingErrorAction$G4load"()
  %_155 = call dereferenceable_or_null(16) ptr @"_SM35java.nio.charset.CodingErrorAction$D6IGNOREL34java.nio.charset.CodingErrorActionEO"(ptr nonnull dereferenceable(32) %_153)
  %_156 = icmp eq ptr %_155, null
  br i1 %_156, label %_149.0, label %_150.0
_149.0:
  %_157 = icmp eq ptr %_77, null
  br label %_151.0
_150.0:
  %_225 = icmp ne ptr %_155, null
  br i1 %_225, label %_224.0, label %_207.0
_224.0:
  %_159 = call i1 @"_SM16java.lang.ObjectD6equalsL16java.lang.ObjectzEO"(ptr dereferenceable_or_null(16) %_155, ptr dereferenceable_or_null(16) %_77)
  br label %_151.0
_151.0:
  %_152 = phi i1 [%_159, %_224.0], [%_157, %_149.0]
  br i1 %_152, label %_145.0, label %_146.0
_145.0:
  %_161 = call i32 @"_SM15java.nio.BufferD8positioniEO"(ptr dereferenceable_or_null(56) %_1)
  %_163 = call i32 @"_SM28java.nio.charset.CoderResultD6lengthiEO"(ptr dereferenceable_or_null(16) %_45)
  %_164 = add i32 %_161, %_163
  %_166 = call dereferenceable_or_null(56) ptr @"_SM19java.nio.ByteBufferD8positioniL19java.nio.ByteBufferEO"(ptr dereferenceable_or_null(56) %_1, i32 %_164)
  br label %_10.0
_146.0:
  br label %_147.0
_147.0:
  %_169 = call dereferenceable_or_null(64) ptr @"scalanative_GC_alloc_small"(ptr @"_SM16scala.MatchErrorG4type", i64 64)
  call void @"_SM16scala.MatchErrorRL16java.lang.ObjectE"(ptr nonnull dereferenceable(64) %_169, ptr dereferenceable_or_null(16) %_77)
  call ptr @"scalanative_throw"(ptr nonnull dereferenceable(64) %_169)
  unreachable
_85.0:
  %_86 = phi ptr [%_45, %_129.0], [%_105, %_104.0]
  br label %_64.0
_64.0:
  %_65 = phi ptr [%_86, %_85.0], [%_45, %_62.0]
  ret ptr %_65
_10.0:
  br label %_6.0
_8.0:
  ret ptr zeroinitializer
_173.0:
  invoke ptr @"_SM34scala.scalanative.runtime.package$D16throwNullPointernEO"(ptr null) to label %_173.1 unwind label %_228.landingpad
_173.1:
  unreachable
_207.0:
  call ptr @"_SM34scala.scalanative.runtime.package$D16throwNullPointernEO"(ptr null)
  unreachable
_187.0:
  %_231 = phi ptr [%_15, %_199.0], [%_15, %_185.0]
  %_232 = phi ptr [@"_SM33java.nio.BufferUnderflowExceptionG4type", %_199.0], [@"_SM32java.nio.BufferOverflowExceptionG4type", %_185.0]
  %_233 = load ptr, ptr %_231
  call ptr @"_SM34scala.scalanative.runtime.package$D14throwClassCastR_R_nEO"(ptr null, ptr %_233, ptr %_232)
  unreachable
_171.0:
  %_17 = phi ptr [%_174, %_174.landingpad.succ], [%_228, %_228.landingpad.succ], [%_176, %_176.landingpad.succ]
  br label %_12.0
_177.0:
  %_19 = phi ptr [%_178, %_178.landingpad.succ]
  br label %_12.0
_174.landingpad:
  %_270 = landingpad { ptr, i32 } catch ptr @_ZTIN11scalanative16ExceptionWrapperE
  %_271 = extractvalue { ptr, i32 } %_270, 0
  %_272 = extractvalue { ptr, i32 } %_270, 1
  %_273 = call i32 @llvm.eh.typeid.for(ptr @_ZTIN11scalanative16ExceptionWrapperE)
  %_274 = icmp eq i32 %_272, %_273
  br i1 %_274, label %_174.landingpad.succ, label %_174.landingpad.fail
_174.landingpad.succ:
  %_275 = call ptr @__cxa_begin_catch(ptr %_271)
  %_277 = getelementptr ptr, ptr %_275, i32 1
  %_174 = load ptr, ptr %_277
  call void @__cxa_end_catch()br label %_171.0
_174.landingpad.fail:
  resume { ptr, i32 } %_270
_176.landingpad:
  %_278 = landingpad { ptr, i32 } catch ptr @_ZTIN11scalanative16ExceptionWrapperE
  %_279 = extractvalue { ptr, i32 } %_278, 0
  %_280 = extractvalue { ptr, i32 } %_278, 1
  %_281 = call i32 @llvm.eh.typeid.for(ptr @_ZTIN11scalanative16ExceptionWrapperE)
  %_282 = icmp eq i32 %_280, %_281
  br i1 %_282, label %_176.landingpad.succ, label %_176.landingpad.fail
_176.landingpad.succ:
  %_283 = call ptr @__cxa_begin_catch(ptr %_279)
  %_285 = getelementptr ptr, ptr %_283, i32 1
  %_176 = load ptr, ptr %_285
  call void @__cxa_end_catch()br label %_171.0
_176.landingpad.fail:
  resume { ptr, i32 } %_278
_178.landingpad:
  %_286 = landingpad { ptr, i32 } catch ptr @_ZTIN11scalanative16ExceptionWrapperE
  %_287 = extractvalue { ptr, i32 } %_286, 0
  %_288 = extractvalue { ptr, i32 } %_286, 1
  %_289 = call i32 @llvm.eh.typeid.for(ptr @_ZTIN11scalanative16ExceptionWrapperE)
  %_290 = icmp eq i32 %_288, %_289
  br i1 %_290, label %_178.landingpad.succ, label %_178.landingpad.fail
_178.landingpad.succ:
  %_291 = call ptr @__cxa_begin_catch(ptr %_287)
  %_293 = getelementptr ptr, ptr %_291, i32 1
  %_178 = load ptr, ptr %_293
  call void @__cxa_end_catch()br label %_177.0
_178.landingpad.fail:
  resume { ptr, i32 } %_286
_228.landingpad:
  %_294 = landingpad { ptr, i32 } catch ptr @_ZTIN11scalanative16ExceptionWrapperE
  %_295 = extractvalue { ptr, i32 } %_294, 0
  %_296 = extractvalue { ptr, i32 } %_294, 1
  %_297 = call i32 @llvm.eh.typeid.for(ptr @_ZTIN11scalanative16ExceptionWrapperE)
  %_298 = icmp eq i32 %_296, %_297
  br i1 %_298, label %_228.landingpad.succ, label %_228.landingpad.fail
_228.landingpad.succ:
  %_299 = call ptr @__cxa_begin_catch(ptr %_295)
  %_301 = getelementptr ptr, ptr %_299, i32 1
  %_228 = load ptr, ptr %_301
  call void @__cxa_end_catch()br label %_171.0
_228.landingpad.fail:
  resume { ptr, i32 } %_294
}

define dereferenceable_or_null(16) ptr @"_SM31java.nio.charset.CharsetEncoderD11replacementLAb_EO"(ptr %_1) personality ptr @__gxx_personality_v0 {
_2000000.0:
  %_3000004 = icmp ne ptr %_1, null
  br i1 %_3000004, label %_3000002.0, label %_3000003.0
_3000002.0:
  %_3000005 = getelementptr { { ptr }, i32, ptr, ptr, ptr, float, float, ptr }, { { ptr }, i32, ptr, ptr, ptr, float, float, ptr }* %_1, i32 0, i32 7
  %_3000001 = load ptr, ptr %_3000005, !dereferenceable_or_null !{i64 16}
  ret ptr %_3000001
_3000003.0:
  call ptr @"_SM34scala.scalanative.runtime.package$D16throwNullPointernEO"(ptr null)
  unreachable
}

define dereferenceable_or_null(56) ptr @"_SM31java.nio.charset.CharsetEncoderD16onMalformedInputL34java.nio.charset.CodingErrorActionL31java.nio.charset.CharsetEncoderEO"(ptr %_1, ptr %_2) personality ptr @__gxx_personality_v0 {
_3000000.0:
  %_9000004 = icmp ne ptr %_1, null
  br i1 %_9000004, label %_9000002.0, label %_9000003.0
_9000002.0:
  %_3000002 = icmp eq ptr %_2, null
  br i1 %_3000002, label %_4000000.0, label %_5000000.0
_5000000.0:
  br label %_9000000.0
_9000000.0:
  %_9000006 = getelementptr { { ptr }, i32, ptr, ptr, ptr, float, float, ptr }, { { ptr }, i32, ptr, ptr, ptr, float, float, ptr }* %_1, i32 0, i32 3
  store ptr %_2, ptr%_9000006, align 8
  ret ptr %_1
_4000000.0:
  br label %_7000000.0
_7000000.0:
  %_7000001 = call dereferenceable_or_null(40) ptr @"scalanative_GC_alloc_small"(ptr @"_SM34java.lang.IllegalArgumentExceptionG4type", i64 40)
  %_9000008 = getelementptr { { ptr }, ptr, ptr, ptr, i1, i1 }, { { ptr }, ptr, ptr, ptr, i1, i1 }* %_7000001, i32 0, i32 5
  %_9000009 = zext i1 true to i8
  store i8 %_9000009, ptr%_9000008, align 1
  %_9000011 = getelementptr { { ptr }, ptr, ptr, ptr, i1, i1 }, { { ptr }, ptr, ptr, ptr, i1, i1 }* %_7000001, i32 0, i32 4
  %_9000012 = zext i1 true to i8
  store i8 %_9000012, ptr%_9000011, align 1
  %_9000014 = getelementptr { { ptr }, ptr, ptr, ptr, i1, i1 }, { { ptr }, ptr, ptr, ptr, i1, i1 }* %_7000001, i32 0, i32 3
  store ptr @"_SM7__constG3-124", ptr%_9000014, align 8
  %_7000005 = call dereferenceable_or_null(40) ptr @"_SM19java.lang.ThrowableD16fillInStackTraceL19java.lang.ThrowableEO"(ptr nonnull dereferenceable(40) %_7000001)
  br label %_8000000.0
_8000000.0:
  call ptr @"scalanative_throw"(ptr nonnull dereferenceable(40) %_7000001)
  unreachable
_9000003.0:
  call ptr @"_SM34scala.scalanative.runtime.package$D16throwNullPointernEO"(ptr null)
  unreachable
}

define dereferenceable_or_null(16) ptr @"_SM31java.nio.charset.CharsetEncoderD20malformedInputActionL34java.nio.charset.CodingErrorActionEO"(ptr %_1) personality ptr @__gxx_personality_v0 {
_2000000.0:
  %_2000004 = icmp ne ptr %_1, null
  br i1 %_2000004, label %_2000002.0, label %_2000003.0
_2000002.0:
  %_2000005 = getelementptr { { ptr }, i32, ptr, ptr, ptr, float, float, ptr }, { { ptr }, i32, ptr, ptr, ptr, float, float, ptr }* %_1, i32 0, i32 3
  %_2000001 = load ptr, ptr %_2000005, !dereferenceable_or_null !{i64 16}
  ret ptr %_2000001
_2000003.0:
  call ptr @"_SM34scala.scalanative.runtime.package$D16throwNullPointernEO"(ptr null)
  unreachable
}

define dereferenceable_or_null(56) ptr @"_SM31java.nio.charset.CharsetEncoderD21onUnmappableCharacterL34java.nio.charset.CodingErrorActionL31java.nio.charset.CharsetEncoderEO"(ptr %_1, ptr %_2) personality ptr @__gxx_personality_v0 {
_3000000.0:
  %_9000004 = icmp ne ptr %_1, null
  br i1 %_9000004, label %_9000002.0, label %_9000003.0
_9000002.0:
  %_3000002 = icmp eq ptr %_2, null
  br i1 %_3000002, label %_4000000.0, label %_5000000.0
_5000000.0:
  br label %_9000000.0
_9000000.0:
  %_9000006 = getelementptr { { ptr }, i32, ptr, ptr, ptr, float, float, ptr }, { { ptr }, i32, ptr, ptr, ptr, float, float, ptr }* %_1, i32 0, i32 2
  store ptr %_2, ptr%_9000006, align 8
  ret ptr %_1
_4000000.0:
  br label %_7000000.0
_7000000.0:
  %_7000001 = call dereferenceable_or_null(40) ptr @"scalanative_GC_alloc_small"(ptr @"_SM34java.lang.IllegalArgumentExceptionG4type", i64 40)
  %_9000008 = getelementptr { { ptr }, ptr, ptr, ptr, i1, i1 }, { { ptr }, ptr, ptr, ptr, i1, i1 }* %_7000001, i32 0, i32 5
  %_9000009 = zext i1 true to i8
  store i8 %_9000009, ptr%_9000008, align 1
  %_9000011 = getelementptr { { ptr }, ptr, ptr, ptr, i1, i1 }, { { ptr }, ptr, ptr, ptr, i1, i1 }* %_7000001, i32 0, i32 4
  %_9000012 = zext i1 true to i8
  store i8 %_9000012, ptr%_9000011, align 1
  %_9000014 = getelementptr { { ptr }, ptr, ptr, ptr, i1, i1 }, { { ptr }, ptr, ptr, ptr, i1, i1 }* %_7000001, i32 0, i32 3
  store ptr @"_SM7__constG3-124", ptr%_9000014, align 8
  %_7000005 = call dereferenceable_or_null(40) ptr @"_SM19java.lang.ThrowableD16fillInStackTraceL19java.lang.ThrowableEO"(ptr nonnull dereferenceable(40) %_7000001)
  br label %_8000000.0
_8000000.0:
  call ptr @"scalanative_throw"(ptr nonnull dereferenceable(40) %_7000001)
  unreachable
_9000003.0:
  call ptr @"_SM34scala.scalanative.runtime.package$D16throwNullPointernEO"(ptr null)
  unreachable
}

define dereferenceable_or_null(16) ptr @"_SM31java.nio.charset.CharsetEncoderD25unmappableCharacterActionL34java.nio.charset.CodingErrorActionEO"(ptr %_1) personality ptr @__gxx_personality_v0 {
_2000000.0:
  %_2000004 = icmp ne ptr %_1, null
  br i1 %_2000004, label %_2000002.0, label %_2000003.0
_2000002.0:
  %_2000005 = getelementptr { { ptr }, i32, ptr, ptr, ptr, float, float, ptr }, { { ptr }, i32, ptr, ptr, ptr, float, float, ptr }* %_1, i32 0, i32 2
  %_2000001 = load ptr, ptr %_2000005, !dereferenceable_or_null !{i64 16}
  ret ptr %_2000001
_2000003.0:
  call ptr @"_SM34scala.scalanative.runtime.package$D16throwNullPointernEO"(ptr null)
  unreachable
}

define dereferenceable_or_null(16) ptr @"_SM31java.nio.charset.CharsetEncoderD6encodeL19java.nio.CharBufferL19java.nio.ByteBufferzL28java.nio.charset.CoderResultEO"(ptr %_1, ptr %_2, ptr %_3, i1 %_4) personality ptr @__gxx_personality_v0 {
_5000000.0:
  %_20000006 = icmp ne ptr %_1, null
  br i1 %_20000006, label %_20000004.0, label %_20000005.0
_20000004.0:
  %_20000007 = getelementptr { { ptr }, i32, ptr, ptr, ptr, float, float, ptr }, { { ptr }, i32, ptr, ptr, ptr, float, float, ptr }* %_1, i32 0, i32 1
  %_5000001 = load i32, ptr %_20000007
  %_5000003 = icmp eq i32 %_5000001, 3
  br i1 %_5000003, label %_6000000.0, label %_7000000.0
_6000000.0:
  br label %_8000000.0
_7000000.0:
  %_7000002 = xor i1 %_4, true
  br i1 %_7000002, label %_9000000.0, label %_10000000.0
_9000000.0:
  %_20000008 = getelementptr { { ptr }, i32, ptr, ptr, ptr, float, float, ptr }, { { ptr }, i32, ptr, ptr, ptr, float, float, ptr }* %_1, i32 0, i32 1
  %_9000001 = load i32, ptr %_20000008
  %_9000003 = icmp eq i32 %_9000001, 2
  br label %_11000000.0
_10000000.0:
  br label %_11000000.0
_11000000.0:
  %_11000001 = phi i1 [false, %_10000000.0], [%_9000003, %_9000000.0]
  br label %_8000000.0
_8000000.0:
  %_8000001 = phi i1 [%_11000001, %_11000000.0], [true, %_6000000.0]
  br i1 %_8000001, label %_12000000.0, label %_13000000.0
_13000000.0:
  br label %_17000000.0
_17000000.0:
  br i1 %_4, label %_18000000.0, label %_19000000.0
_18000000.0:
  br label %_20000000.0
_19000000.0:
  br label %_20000000.0
_20000000.0:
  %_20000001 = phi i32 [1, %_19000000.0], [2, %_18000000.0]
  %_20000010 = getelementptr { { ptr }, i32, ptr, ptr, ptr, float, float, ptr }, { { ptr }, i32, ptr, ptr, ptr, float, float, ptr }* %_1, i32 0, i32 1
  store i32 %_20000001, ptr%_20000010, align 4
  %_20000003 = call dereferenceable_or_null(16) ptr @"_SM31java.nio.charset.CharsetEncoderD6loop$2L19java.nio.CharBufferL19java.nio.ByteBufferzL28java.nio.charset.CoderResultEPT31java.nio.charset.CharsetEncoder"(ptr dereferenceable_or_null(56) %_1, ptr dereferenceable_or_null(48) %_2, ptr dereferenceable_or_null(56) %_3, i1 %_4)
  ret ptr %_20000003
_12000000.0:
  br label %_15000000.0
_15000000.0:
  %_15000001 = call dereferenceable_or_null(40) ptr @"scalanative_GC_alloc_small"(ptr @"_SM31java.lang.IllegalStateExceptionG4type", i64 40)
  %_20000012 = getelementptr { { ptr }, ptr, ptr, ptr, i1, i1 }, { { ptr }, ptr, ptr, ptr, i1, i1 }* %_15000001, i32 0, i32 5
  %_20000013 = zext i1 true to i8
  store i8 %_20000013, ptr%_20000012, align 1
  %_20000015 = getelementptr { { ptr }, ptr, ptr, ptr, i1, i1 }, { { ptr }, ptr, ptr, ptr, i1, i1 }* %_15000001, i32 0, i32 4
  %_20000016 = zext i1 true to i8
  store i8 %_20000016, ptr%_20000015, align 1
  %_15000004 = call dereferenceable_or_null(40) ptr @"_SM19java.lang.ThrowableD16fillInStackTraceL19java.lang.ThrowableEO"(ptr nonnull dereferenceable(40) %_15000001)
  br label %_16000000.0
_16000000.0:
  call ptr @"scalanative_throw"(ptr nonnull dereferenceable(40) %_15000001)
  unreachable
_20000005.0:
  call ptr @"_SM34scala.scalanative.runtime.package$D16throwNullPointernEO"(ptr null)
  unreachable
}

define dereferenceable_or_null(16) ptr @"_SM31java.nio.charset.CharsetEncoderD6loop$2L19java.nio.CharBufferL19java.nio.ByteBufferzL28java.nio.charset.CoderResultEPT31java.nio.charset.CharsetEncoder"(ptr %_4, ptr %_1, ptr %_2, i1 %_3) inlinehint personality ptr @__gxx_personality_v0 {
_5.0:
  br label %_6.0
_6.0:
  br i1 true, label %_7.0, label %_8.0
_7.0:
  br label %_9.0
_9.0:
  br label %_13.0
_13.0:
  %_174 = icmp ne ptr %_4, null
  br i1 %_174, label %_171.0, label %_172.0
_171.0:
  %_20 = invoke dereferenceable_or_null(16) ptr @"_SM24niocharset.UTF_8$EncoderD10encodeLoopL19java.nio.CharBufferL19java.nio.ByteBufferL28java.nio.charset.CoderResultEO"(ptr dereferenceable_or_null(56) %_4, ptr dereferenceable_or_null(48) %_1, ptr dereferenceable_or_null(56) %_2) to label %_171.1 unwind label %_177.landingpad
_171.1:
  br label %_14.0
_12.0:
  %_15 = phi ptr [%_19, %_176.0], [%_17, %_170.0]
  %_181 = icmp eq ptr %_15, null
  br i1 %_181, label %_178.0, label %_179.0
_178.0:
  br label %_180.0
_179.0:
  %_182 = load ptr, ptr %_15
  %_183 = icmp eq ptr %_182, @"_SM32java.nio.BufferOverflowExceptionG4type"
  br label %_180.0
_180.0:
  %_21 = phi i1 [%_183, %_179.0], [false, %_178.0]
  br i1 %_21, label %_22.0, label %_23.0
_22.0:
  %_187 = icmp eq ptr %_15, null
  br i1 %_187, label %_185.0, label %_184.0
_184.0:
  %_188 = load ptr, ptr %_15
  %_189 = icmp eq ptr %_188, @"_SM32java.nio.BufferOverflowExceptionG4type"
  br i1 %_189, label %_185.0, label %_186.0
_185.0:
  %_27 = call dereferenceable_or_null(40) ptr @"scalanative_GC_alloc_small"(ptr @"_SM38java.nio.charset.CoderMalfunctionErrorG4type", i64 40)
  call void @"_SM38java.nio.charset.CoderMalfunctionErrorRL19java.lang.ExceptionE"(ptr nonnull dereferenceable(40) %_27, ptr dereferenceable_or_null(40) %_15)
  call ptr @"scalanative_throw"(ptr nonnull dereferenceable(40) %_27)
  unreachable
_23.0:
  %_195 = icmp eq ptr %_15, null
  br i1 %_195, label %_192.0, label %_193.0
_192.0:
  br label %_194.0
_193.0:
  %_196 = load ptr, ptr %_15
  %_197 = icmp eq ptr %_196, @"_SM33java.nio.BufferUnderflowExceptionG4type"
  br label %_194.0
_194.0:
  %_31 = phi i1 [%_197, %_193.0], [false, %_192.0]
  br i1 %_31, label %_32.0, label %_33.0
_32.0:
  %_200 = icmp eq ptr %_15, null
  br i1 %_200, label %_199.0, label %_198.0
_198.0:
  %_201 = load ptr, ptr %_15
  %_202 = icmp eq ptr %_201, @"_SM33java.nio.BufferUnderflowExceptionG4type"
  br i1 %_202, label %_199.0, label %_186.0
_199.0:
  %_37 = call dereferenceable_or_null(40) ptr @"scalanative_GC_alloc_small"(ptr @"_SM38java.nio.charset.CoderMalfunctionErrorG4type", i64 40)
  call void @"_SM38java.nio.charset.CoderMalfunctionErrorRL19java.lang.ExceptionE"(ptr nonnull dereferenceable(40) %_37, ptr dereferenceable_or_null(40) %_15)
  call ptr @"scalanative_throw"(ptr nonnull dereferenceable(40) %_37)
  unreachable
_33.0:
  %_207 = icmp ne ptr %_15, null
  br i1 %_207, label %_205.0, label %_206.0
_205.0:
  call ptr @"scalanative_throw"(ptr dereferenceable_or_null(8) %_15)
  unreachable
_14.0:
  %_16 = phi ptr [%_20, %_171.1]
  %_210 = icmp ne ptr %_16, null
  br i1 %_210, label %_209.0, label %_206.0
_209.0:
  %_47 = call i1 @"_SM28java.nio.charset.CoderResultD11isUnderflowzEO"(ptr dereferenceable_or_null(16) %_16)
  br i1 %_47, label %_42.0, label %_43.0
_42.0:
  %_212 = icmp ne ptr %_1, null
  br i1 %_212, label %_211.0, label %_206.0
_211.0:
  %_49 = call i32 @"_SM15java.nio.BufferD9remainingiEO"(ptr dereferenceable_or_null(48) %_1)
  br i1 %_3, label %_54.0, label %_55.0
_54.0:
  %_58 = icmp sgt i32 %_49, 0
  br label %_56.0
_55.0:
  br label %_56.0
_56.0:
  %_57 = phi i1 [false, %_55.0], [%_58, %_54.0]
  br i1 %_57, label %_50.0, label %_51.0
_50.0:
  %_59 = call dereferenceable_or_null(104) ptr @"_SM29java.nio.charset.CoderResult$G4load"()
  %_61 = call dereferenceable_or_null(16) ptr @"_SM29java.nio.charset.CoderResult$D18malformedForLengthiL28java.nio.charset.CoderResultEO"(ptr nonnull dereferenceable(104) %_59, i32 %_49)
  br label %_52.0
_51.0:
  br label %_52.0
_52.0:
  %_53 = phi ptr [%_16, %_51.0], [%_61, %_50.0]
  br label %_44.0
_43.0:
  br label %_44.0
_44.0:
  %_45 = phi ptr [%_16, %_43.0], [%_53, %_52.0]
  %_214 = icmp ne ptr %_45, null
  br i1 %_214, label %_213.0, label %_206.0
_213.0:
  %_71 = call i1 @"_SM28java.nio.charset.CoderResultD11isUnderflowzEO"(ptr dereferenceable_or_null(16) %_45)
  br i1 %_71, label %_66.0, label %_67.0
_66.0:
  br label %_68.0
_67.0:
  %_73 = call i1 @"_SM28java.nio.charset.CoderResultD10isOverflowzEO"(ptr dereferenceable_or_null(16) %_45)
  br label %_68.0
_68.0:
  %_69 = phi i1 [%_73, %_67.0], [true, %_66.0]
  br i1 %_69, label %_62.0, label %_63.0
_62.0:
  br label %_64.0
_63.0:
  %_79 = call i1 @"_SM28java.nio.charset.CoderResultD12isUnmappablezEO"(ptr dereferenceable_or_null(16) %_45)
  br i1 %_79, label %_74.0, label %_75.0
_74.0:
  %_81 = call dereferenceable_or_null(16) ptr @"_SM31java.nio.charset.CharsetEncoderD25unmappableCharacterActionL34java.nio.charset.CodingErrorActionEO"(ptr dereferenceable_or_null(56) %_4)
  br label %_76.0
_75.0:
  %_83 = call dereferenceable_or_null(16) ptr @"_SM31java.nio.charset.CharsetEncoderD20malformedInputActionL34java.nio.charset.CodingErrorActionEO"(ptr dereferenceable_or_null(56) %_4)
  br label %_76.0
_76.0:
  %_77 = phi ptr [%_83, %_75.0], [%_81, %_74.0]
  br label %_84.0
_84.0:
  %_95 = call dereferenceable_or_null(32) ptr @"_SM35java.nio.charset.CodingErrorAction$G4load"()
  %_97 = call dereferenceable_or_null(16) ptr @"_SM35java.nio.charset.CodingErrorAction$D7REPLACEL34java.nio.charset.CodingErrorActionEO"(ptr nonnull dereferenceable(32) %_95)
  %_98 = icmp eq ptr %_97, null
  br i1 %_98, label %_91.0, label %_92.0
_91.0:
  %_99 = icmp eq ptr %_77, null
  br label %_93.0
_92.0:
  %_216 = icmp ne ptr %_97, null
  br i1 %_216, label %_215.0, label %_206.0
_215.0:
  %_101 = call i1 @"_SM16java.lang.ObjectD6equalsL16java.lang.ObjectzEO"(ptr dereferenceable_or_null(16) %_97, ptr dereferenceable_or_null(16) %_77)
  br label %_93.0
_93.0:
  %_94 = phi i1 [%_101, %_215.0], [%_99, %_91.0]
  br i1 %_94, label %_87.0, label %_88.0
_87.0:
  %_218 = icmp ne ptr %_2, null
  br i1 %_218, label %_217.0, label %_206.0
_217.0:
  %_107 = call i32 @"_SM15java.nio.BufferD9remainingiEO"(ptr dereferenceable_or_null(56) %_2)
  %_109 = call dereferenceable_or_null(16) ptr @"_SM31java.nio.charset.CharsetEncoderD11replacementLAb_EO"(ptr dereferenceable_or_null(56) %_4)
  %_220 = icmp ne ptr %_109, null
  br i1 %_220, label %_219.0, label %_206.0
_219.0:
  %_221 = getelementptr { ptr, i32, i32 }, { ptr, i32, i32 }* %_109, i32 0, i32 1
  %_110 = load i32, ptr %_221
  %_111 = icmp slt i32 %_107, %_110
  br i1 %_111, label %_102.0, label %_103.0
_102.0:
  %_112 = call dereferenceable_or_null(104) ptr @"_SM29java.nio.charset.CoderResult$G4load"()
  %_114 = call dereferenceable_or_null(16) ptr @"_SM29java.nio.charset.CoderResult$D8OVERFLOWL28java.nio.charset.CoderResultEO"(ptr nonnull dereferenceable(104) %_112)
  br label %_104.0
_103.0:
  %_116 = call dereferenceable_or_null(16) ptr @"_SM31java.nio.charset.CharsetEncoderD11replacementLAb_EO"(ptr dereferenceable_or_null(56) %_4)
  %_118 = call dereferenceable_or_null(56) ptr @"_SM19java.nio.ByteBufferD3putLAb_L19java.nio.ByteBufferEO"(ptr dereferenceable_or_null(56) %_2, ptr dereferenceable_or_null(16) %_116)
  %_120 = call i32 @"_SM15java.nio.BufferD8positioniEO"(ptr dereferenceable_or_null(48) %_1)
  %_122 = call i32 @"_SM28java.nio.charset.CoderResultD6lengthiEO"(ptr dereferenceable_or_null(16) %_45)
  %_123 = add i32 %_120, %_122
  %_125 = call dereferenceable_or_null(48) ptr @"_SM19java.nio.CharBufferD8positioniL19java.nio.CharBufferEO"(ptr dereferenceable_or_null(48) %_1, i32 %_123)
  br label %_10.0
_104.0:
  %_105 = phi ptr [%_114, %_102.0]
  br label %_85.0
_88.0:
  br label %_89.0
_89.0:
  %_136 = call dereferenceable_or_null(32) ptr @"_SM35java.nio.charset.CodingErrorAction$G4load"()
  %_138 = call dereferenceable_or_null(16) ptr @"_SM35java.nio.charset.CodingErrorAction$D6REPORTL34java.nio.charset.CodingErrorActionEO"(ptr nonnull dereferenceable(32) %_136)
  %_139 = icmp eq ptr %_138, null
  br i1 %_139, label %_132.0, label %_133.0
_132.0:
  %_140 = icmp eq ptr %_77, null
  br label %_134.0
_133.0:
  %_223 = icmp ne ptr %_138, null
  br i1 %_223, label %_222.0, label %_206.0
_222.0:
  %_142 = call i1 @"_SM16java.lang.ObjectD6equalsL16java.lang.ObjectzEO"(ptr dereferenceable_or_null(16) %_138, ptr dereferenceable_or_null(16) %_77)
  br label %_134.0
_134.0:
  %_135 = phi i1 [%_142, %_222.0], [%_140, %_132.0]
  br i1 %_135, label %_128.0, label %_129.0
_128.0:
  br label %_85.0
_129.0:
  br label %_130.0
_130.0:
  %_152 = call dereferenceable_or_null(32) ptr @"_SM35java.nio.charset.CodingErrorAction$G4load"()
  %_154 = call dereferenceable_or_null(16) ptr @"_SM35java.nio.charset.CodingErrorAction$D6IGNOREL34java.nio.charset.CodingErrorActionEO"(ptr nonnull dereferenceable(32) %_152)
  %_155 = icmp eq ptr %_154, null
  br i1 %_155, label %_148.0, label %_149.0
_148.0:
  %_156 = icmp eq ptr %_77, null
  br label %_150.0
_149.0:
  %_225 = icmp ne ptr %_154, null
  br i1 %_225, label %_224.0, label %_206.0
_224.0:
  %_158 = call i1 @"_SM16java.lang.ObjectD6equalsL16java.lang.ObjectzEO"(ptr dereferenceable_or_null(16) %_154, ptr dereferenceable_or_null(16) %_77)
  br label %_150.0
_150.0:
  %_151 = phi i1 [%_158, %_224.0], [%_156, %_148.0]
  br i1 %_151, label %_144.0, label %_145.0
_144.0:
  %_160 = call i32 @"_SM15java.nio.BufferD8positioniEO"(ptr dereferenceable_or_null(48) %_1)
  %_162 = call i32 @"_SM28java.nio.charset.CoderResultD6lengthiEO"(ptr dereferenceable_or_null(16) %_45)
  %_163 = add i32 %_160, %_162
  %_165 = call dereferenceable_or_null(48) ptr @"_SM19java.nio.CharBufferD8positioniL19java.nio.CharBufferEO"(ptr dereferenceable_or_null(48) %_1, i32 %_163)
  br label %_10.0
_145.0:
  br label %_146.0
_146.0:
  %_168 = call dereferenceable_or_null(64) ptr @"scalanative_GC_alloc_small"(ptr @"_SM16scala.MatchErrorG4type", i64 64)
  call void @"_SM16scala.MatchErrorRL16java.lang.ObjectE"(ptr nonnull dereferenceable(64) %_168, ptr dereferenceable_or_null(16) %_77)
  call ptr @"scalanative_throw"(ptr nonnull dereferenceable(64) %_168)
  unreachable
_85.0:
  %_86 = phi ptr [%_45, %_128.0], [%_105, %_104.0]
  br label %_64.0
_64.0:
  %_65 = phi ptr [%_86, %_85.0], [%_45, %_62.0]
  ret ptr %_65
_10.0:
  br label %_6.0
_8.0:
  ret ptr zeroinitializer
_172.0:
  invoke ptr @"_SM34scala.scalanative.runtime.package$D16throwNullPointernEO"(ptr null) to label %_172.1 unwind label %_228.landingpad
_172.1:
  unreachable
_206.0:
  call ptr @"_SM34scala.scalanative.runtime.package$D16throwNullPointernEO"(ptr null)
  unreachable
_186.0:
  %_231 = phi ptr [%_15, %_198.0], [%_15, %_184.0]
  %_232 = phi ptr [@"_SM33java.nio.BufferUnderflowExceptionG4type", %_198.0], [@"_SM32java.nio.BufferOverflowExceptionG4type", %_184.0]
  %_233 = load ptr, ptr %_231
  call ptr @"_SM34scala.scalanative.runtime.package$D14throwClassCastR_R_nEO"(ptr null, ptr %_233, ptr %_232)
  unreachable
_170.0:
  %_17 = phi ptr [%_173, %_173.landingpad.succ], [%_228, %_228.landingpad.succ], [%_175, %_175.landingpad.succ]
  br label %_12.0
_176.0:
  %_19 = phi ptr [%_177, %_177.landingpad.succ]
  br label %_12.0
_173.landingpad:
  %_272 = landingpad { ptr, i32 } catch ptr @_ZTIN11scalanative16ExceptionWrapperE
  %_273 = extractvalue { ptr, i32 } %_272, 0
  %_274 = extractvalue { ptr, i32 } %_272, 1
  %_275 = call i32 @llvm.eh.typeid.for(ptr @_ZTIN11scalanative16ExceptionWrapperE)
  %_276 = icmp eq i32 %_274, %_275
  br i1 %_276, label %_173.landingpad.succ, label %_173.landingpad.fail
_173.landingpad.succ:
  %_277 = call ptr @__cxa_begin_catch(ptr %_273)
  %_279 = getelementptr ptr, ptr %_277, i32 1
  %_173 = load ptr, ptr %_279
  call void @__cxa_end_catch()br label %_170.0
_173.landingpad.fail:
  resume { ptr, i32 } %_272
_175.landingpad:
  %_280 = landingpad { ptr, i32 } catch ptr @_ZTIN11scalanative16ExceptionWrapperE
  %_281 = extractvalue { ptr, i32 } %_280, 0
  %_282 = extractvalue { ptr, i32 } %_280, 1
  %_283 = call i32 @llvm.eh.typeid.for(ptr @_ZTIN11scalanative16ExceptionWrapperE)
  %_284 = icmp eq i32 %_282, %_283
  br i1 %_284, label %_175.landingpad.succ, label %_175.landingpad.fail
_175.landingpad.succ:
  %_285 = call ptr @__cxa_begin_catch(ptr %_281)
  %_287 = getelementptr ptr, ptr %_285, i32 1
  %_175 = load ptr, ptr %_287
  call void @__cxa_end_catch()br label %_170.0
_175.landingpad.fail:
  resume { ptr, i32 } %_280
_177.landingpad:
  %_288 = landingpad { ptr, i32 } catch ptr @_ZTIN11scalanative16ExceptionWrapperE
  %_289 = extractvalue { ptr, i32 } %_288, 0
  %_290 = extractvalue { ptr, i32 } %_288, 1
  %_291 = call i32 @llvm.eh.typeid.for(ptr @_ZTIN11scalanative16ExceptionWrapperE)
  %_292 = icmp eq i32 %_290, %_291
  br i1 %_292, label %_177.landingpad.succ, label %_177.landingpad.fail
_177.landingpad.succ:
  %_293 = call ptr @__cxa_begin_catch(ptr %_289)
  %_295 = getelementptr ptr, ptr %_293, i32 1
  %_177 = load ptr, ptr %_295
  call void @__cxa_end_catch()br label %_176.0
_177.landingpad.fail:
  resume { ptr, i32 } %_288
_228.landingpad:
  %_296 = landingpad { ptr, i32 } catch ptr @_ZTIN11scalanative16ExceptionWrapperE
  %_297 = extractvalue { ptr, i32 } %_296, 0
  %_298 = extractvalue { ptr, i32 } %_296, 1
  %_299 = call i32 @llvm.eh.typeid.for(ptr @_ZTIN11scalanative16ExceptionWrapperE)
  %_300 = icmp eq i32 %_298, %_299
  br i1 %_300, label %_228.landingpad.succ, label %_228.landingpad.fail
_228.landingpad.succ:
  %_301 = call ptr @__cxa_begin_catch(ptr %_297)
  %_303 = getelementptr ptr, ptr %_301, i32 1
  %_228 = load ptr, ptr %_303
  call void @__cxa_end_catch()br label %_170.0
_228.landingpad.fail:
  resume { ptr, i32 } %_296
}

define void @"_SM38java.nio.charset.CoderMalfunctionErrorRL19java.lang.ExceptionE"(ptr %_1, ptr %_2) personality ptr @__gxx_personality_v0 {
_3000000.0:
  %_9000003 = icmp ne ptr %_1, null
  br i1 %_9000003, label %_9000001.0, label %_9000002.0
_9000001.0:
  %_4000002 = icmp eq ptr %_2, null
  br i1 %_4000002, label %_5000000.0, label %_6000000.0
_5000000.0:
  br label %_7000000.0
_6000000.0:
  %_6000001 = call dereferenceable_or_null(32) ptr @"_SM19java.lang.ThrowableD8toStringL16java.lang.StringEO"(ptr dereferenceable_or_null(40) %_2)
  br label %_7000000.0
_7000000.0:
  %_7000001 = phi ptr [%_6000001, %_6000000.0], [null, %_5000000.0]
  %_9000005 = getelementptr { { ptr }, ptr, ptr, ptr, i1, i1 }, { { ptr }, ptr, ptr, ptr, i1, i1 }* %_1, i32 0, i32 3
  store ptr %_7000001, ptr%_9000005, align 8
  %_9000007 = getelementptr { { ptr }, ptr, ptr, ptr, i1, i1 }, { { ptr }, ptr, ptr, ptr, i1, i1 }* %_1, i32 0, i32 1
  store ptr %_2, ptr%_9000007, align 8
  %_9000009 = getelementptr { { ptr }, ptr, ptr, ptr, i1, i1 }, { { ptr }, ptr, ptr, ptr, i1, i1 }* %_1, i32 0, i32 4
  %_9000010 = zext i1 true to i8
  store i8 %_9000010, ptr%_9000009, align 1
  %_9000012 = getelementptr { { ptr }, ptr, ptr, ptr, i1, i1 }, { { ptr }, ptr, ptr, ptr, i1, i1 }* %_1, i32 0, i32 5
  %_9000013 = zext i1 true to i8
  store i8 %_9000013, ptr%_9000012, align 1
  br label %_8000000.0
_8000000.0:
  %_8000001 = call dereferenceable_or_null(40) ptr @"_SM19java.lang.ThrowableD16fillInStackTraceL19java.lang.ThrowableEO"(ptr dereferenceable_or_null(40) %_1)
  br label %_9000000.0
_9000000.0:
  ret void
_9000002.0:
  call ptr @"_SM34scala.scalanative.runtime.package$D16throwNullPointernEO"(ptr null)
  unreachable
}

define i1 @"_SM28java.nio.charset.CoderResultD10isOverflowzEO"(ptr %_1) inlinehint personality ptr @__gxx_personality_v0 {
_2000000.0:
  %_2000006 = icmp ne ptr %_1, null
  br i1 %_2000006, label %_2000004.0, label %_2000005.0
_2000004.0:
  %_2000007 = getelementptr { { ptr }, i32, i32 }, { { ptr }, i32, i32 }* %_1, i32 0, i32 2
  %_2000001 = load i32, ptr %_2000007
  %_2000003 = icmp eq i32 %_2000001, 1
  ret i1 %_2000003
_2000005.0:
  call ptr @"_SM34scala.scalanative.runtime.package$D16throwNullPointernEO"(ptr null)
  unreachable
}

define i1 @"_SM28java.nio.charset.CoderResultD11isUnderflowzEO"(ptr %_1) inlinehint personality ptr @__gxx_personality_v0 {
_2000000.0:
  %_2000006 = icmp ne ptr %_1, null
  br i1 %_2000006, label %_2000004.0, label %_2000005.0
_2000004.0:
  %_2000007 = getelementptr { { ptr }, i32, i32 }, { { ptr }, i32, i32 }* %_1, i32 0, i32 2
  %_2000001 = load i32, ptr %_2000007
  %_2000003 = icmp eq i32 %_2000001, 0
  ret i1 %_2000003
_2000005.0:
  call ptr @"_SM34scala.scalanative.runtime.package$D16throwNullPointernEO"(ptr null)
  unreachable
}

define i1 @"_SM28java.nio.charset.CoderResultD12isUnmappablezEO"(ptr %_1) inlinehint personality ptr @__gxx_personality_v0 {
_2000000.0:
  %_2000006 = icmp ne ptr %_1, null
  br i1 %_2000006, label %_2000004.0, label %_2000005.0
_2000004.0:
  %_2000007 = getelementptr { { ptr }, i32, i32 }, { { ptr }, i32, i32 }* %_1, i32 0, i32 2
  %_2000001 = load i32, ptr %_2000007
  %_2000003 = icmp eq i32 %_2000001, 3
  ret i1 %_2000003
_2000005.0:
  call ptr @"_SM34scala.scalanative.runtime.package$D16throwNullPointernEO"(ptr null)
  unreachable
}

define ptr @"_SM28java.nio.charset.CoderResultD14throwExceptionuEO"(ptr %_1) personality ptr @__gxx_personality_v0 {
_2000000.0:
  %_23000003 = icmp ne ptr %_1, null
  br i1 %_23000003, label %_23000001.0, label %_23000002.0
_23000001.0:
  br label %_3000000.0
_3000000.0:
  %_23000004 = getelementptr { { ptr }, i32, i32 }, { { ptr }, i32, i32 }* %_1, i32 0, i32 2
  %_3000001 = load i32, ptr %_23000004
  switch i32 %_3000001, label %_4000000.0 [
    i32 1, label %_5000000.0
    i32 0, label %_6000000.0
    i32 2, label %_7000000.0
    i32 3, label %_8000000.0
  ]
_4000000.0:
  br label %_10000000.0
_10000000.0:
  %_10000001 = call dereferenceable_or_null(64) ptr @"scalanative_GC_alloc_small"(ptr @"_SM16scala.MatchErrorG4type", i64 64)
  %_23000006 = getelementptr { { ptr }, ptr, ptr, ptr, i1, i1 }, { { ptr }, ptr, ptr, ptr, i1, i1 }* %_10000001, i32 0, i32 5
  %_23000007 = zext i1 true to i8
  store i8 %_23000007, ptr%_23000006, align 1
  %_23000009 = getelementptr { { ptr }, ptr, ptr, ptr, i1, i1 }, { { ptr }, ptr, ptr, ptr, i1, i1 }* %_10000001, i32 0, i32 4
  %_23000010 = zext i1 true to i8
  store i8 %_23000010, ptr%_23000009, align 1
  %_10000004 = call dereferenceable_or_null(16) ptr @"_SM27scala.runtime.BoxesRunTime$D12boxToIntegeriL17java.lang.IntegerEO"(ptr null, i32 %_3000001)
  %_23000012 = getelementptr { { ptr }, ptr, ptr, ptr, i1, i1, ptr, ptr, i1 }, { { ptr }, ptr, ptr, ptr, i1, i1, ptr, ptr, i1 }* %_10000001, i32 0, i32 6
  store ptr %_10000004, ptr%_23000012, align 8
  %_10000006 = call dereferenceable_or_null(40) ptr @"_SM19java.lang.ThrowableD16fillInStackTraceL19java.lang.ThrowableEO"(ptr nonnull dereferenceable(64) %_10000001)
  br label %_11000000.0
_11000000.0:
  call ptr @"scalanative_throw"(ptr nonnull dereferenceable(64) %_10000001)
  unreachable
_5000000.0:
  br label %_13000000.0
_13000000.0:
  %_13000001 = call dereferenceable_or_null(40) ptr @"scalanative_GC_alloc_small"(ptr @"_SM32java.nio.BufferOverflowExceptionG4type", i64 40)
  %_23000015 = getelementptr { { ptr }, ptr, ptr, ptr, i1, i1 }, { { ptr }, ptr, ptr, ptr, i1, i1 }* %_13000001, i32 0, i32 5
  %_23000016 = zext i1 true to i8
  store i8 %_23000016, ptr%_23000015, align 1
  %_23000018 = getelementptr { { ptr }, ptr, ptr, ptr, i1, i1 }, { { ptr }, ptr, ptr, ptr, i1, i1 }* %_13000001, i32 0, i32 4
  %_23000019 = zext i1 true to i8
  store i8 %_23000019, ptr%_23000018, align 1
  %_13000004 = call dereferenceable_or_null(40) ptr @"_SM19java.lang.ThrowableD16fillInStackTraceL19java.lang.ThrowableEO"(ptr nonnull dereferenceable(40) %_13000001)
  br label %_14000000.0
_14000000.0:
  call ptr @"scalanative_throw"(ptr nonnull dereferenceable(40) %_13000001)
  unreachable
_6000000.0:
  br label %_16000000.0
_16000000.0:
  %_16000001 = call dereferenceable_or_null(40) ptr @"scalanative_GC_alloc_small"(ptr @"_SM33java.nio.BufferUnderflowExceptionG4type", i64 40)
  %_23000022 = getelementptr { { ptr }, ptr, ptr, ptr, i1, i1 }, { { ptr }, ptr, ptr, ptr, i1, i1 }* %_16000001, i32 0, i32 5
  %_23000023 = zext i1 true to i8
  store i8 %_23000023, ptr%_23000022, align 1
  %_23000025 = getelementptr { { ptr }, ptr, ptr, ptr, i1, i1 }, { { ptr }, ptr, ptr, ptr, i1, i1 }* %_16000001, i32 0, i32 4
  %_23000026 = zext i1 true to i8
  store i8 %_23000026, ptr%_23000025, align 1
  %_16000004 = call dereferenceable_or_null(40) ptr @"_SM19java.lang.ThrowableD16fillInStackTraceL19java.lang.ThrowableEO"(ptr nonnull dereferenceable(40) %_16000001)
  br label %_17000000.0
_17000000.0:
  call ptr @"scalanative_throw"(ptr nonnull dereferenceable(40) %_16000001)
  unreachable
_7000000.0:
  %_23000028 = getelementptr { { ptr }, i32, i32 }, { { ptr }, i32, i32 }* %_1, i32 0, i32 1
  %_7000002 = load i32, ptr %_23000028
  br label %_19000000.0
_19000000.0:
  %_19000001 = call dereferenceable_or_null(40) ptr @"scalanative_GC_alloc_small"(ptr @"_SM40java.nio.charset.MalformedInputExceptionG4type", i64 40)
  %_23000030 = getelementptr { { ptr }, ptr, ptr, ptr, i1, i1 }, { { ptr }, ptr, ptr, ptr, i1, i1 }* %_19000001, i32 0, i32 5
  %_23000031 = zext i1 true to i8
  store i8 %_23000031, ptr%_23000030, align 1
  %_23000033 = getelementptr { { ptr }, ptr, ptr, ptr, i1, i1 }, { { ptr }, ptr, ptr, ptr, i1, i1 }* %_19000001, i32 0, i32 4
  %_23000034 = zext i1 true to i8
  store i8 %_23000034, ptr%_23000033, align 1
  %_23000036 = getelementptr { { ptr }, ptr, ptr, ptr, i1, i1, i32 }, { { ptr }, ptr, ptr, ptr, i1, i1, i32 }* %_19000001, i32 0, i32 6
  store i32 %_7000002, ptr%_23000036, align 4
  %_19000005 = call dereferenceable_or_null(40) ptr @"_SM19java.lang.ThrowableD16fillInStackTraceL19java.lang.ThrowableEO"(ptr nonnull dereferenceable(40) %_19000001)
  br label %_20000000.0
_20000000.0:
  call ptr @"scalanative_throw"(ptr nonnull dereferenceable(40) %_19000001)
  unreachable
_8000000.0:
  %_23000038 = getelementptr { { ptr }, i32, i32 }, { { ptr }, i32, i32 }* %_1, i32 0, i32 1
  %_8000002 = load i32, ptr %_23000038
  br label %_22000000.0
_22000000.0:
  %_22000001 = call dereferenceable_or_null(40) ptr @"scalanative_GC_alloc_small"(ptr @"_SM45java.nio.charset.UnmappableCharacterExceptionG4type", i64 40)
  %_23000040 = getelementptr { { ptr }, ptr, ptr, ptr, i1, i1 }, { { ptr }, ptr, ptr, ptr, i1, i1 }* %_22000001, i32 0, i32 5
  %_23000041 = zext i1 true to i8
  store i8 %_23000041, ptr%_23000040, align 1
  %_23000043 = getelementptr { { ptr }, ptr, ptr, ptr, i1, i1 }, { { ptr }, ptr, ptr, ptr, i1, i1 }* %_22000001, i32 0, i32 4
  %_23000044 = zext i1 true to i8
  store i8 %_23000044, ptr%_23000043, align 1
  %_23000046 = getelementptr { { ptr }, ptr, ptr, ptr, i1, i1, i32 }, { { ptr }, ptr, ptr, ptr, i1, i1, i32 }* %_22000001, i32 0, i32 6
  store i32 %_8000002, ptr%_23000046, align 4
  %_22000005 = call dereferenceable_or_null(40) ptr @"_SM19java.lang.ThrowableD16fillInStackTraceL19java.lang.ThrowableEO"(ptr nonnull dereferenceable(40) %_22000001)
  br label %_23000000.0
_23000000.0:
  call ptr @"scalanative_throw"(ptr nonnull dereferenceable(40) %_22000001)
  unreachable
_23000002.0:
  call ptr @"_SM34scala.scalanative.runtime.package$D16throwNullPointernEO"(ptr null)
  unreachable
}

define i32 @"_SM28java.nio.charset.CoderResultD6lengthiEO"(ptr %_1) inlinehint personality ptr @__gxx_personality_v0 {
_2000000.0:
  %_8000003 = icmp ne ptr %_1, null
  br i1 %_8000003, label %_8000001.0, label %_8000002.0
_8000001.0:
  %_8000004 = getelementptr { { ptr }, i32, i32 }, { { ptr }, i32, i32 }* %_1, i32 0, i32 1
  %_2000001 = load i32, ptr %_8000004
  %_2000003 = icmp slt i32 %_2000001, 0
  br i1 %_2000003, label %_3000000.0, label %_4000000.0
_4000000.0:
  br label %_8000000.0
_8000000.0:
  ret i32 %_2000001
_3000000.0:
  br label %_6000000.0
_6000000.0:
  %_6000001 = call dereferenceable_or_null(40) ptr @"scalanative_GC_alloc_small"(ptr @"_SM39java.lang.UnsupportedOperationExceptionG4type", i64 40)
  %_8000006 = getelementptr { { ptr }, ptr, ptr, ptr, i1, i1 }, { { ptr }, ptr, ptr, ptr, i1, i1 }* %_6000001, i32 0, i32 5
  %_8000007 = zext i1 true to i8
  store i8 %_8000007, ptr%_8000006, align 1
  %_8000009 = getelementptr { { ptr }, ptr, ptr, ptr, i1, i1 }, { { ptr }, ptr, ptr, ptr, i1, i1 }* %_6000001, i32 0, i32 4
  %_8000010 = zext i1 true to i8
  store i8 %_8000010, ptr%_8000009, align 1
  %_6000004 = call dereferenceable_or_null(40) ptr @"_SM19java.lang.ThrowableD16fillInStackTraceL19java.lang.ThrowableEO"(ptr nonnull dereferenceable(40) %_6000001)
  br label %_7000000.0
_7000000.0:
  call ptr @"scalanative_throw"(ptr nonnull dereferenceable(40) %_6000001)
  unreachable
_8000002.0:
  call ptr @"_SM34scala.scalanative.runtime.package$D16throwNullPointernEO"(ptr null)
  unreachable
}

define dereferenceable_or_null(16) ptr @"_SM29java.nio.charset.CoderResult$D18malformedForLengthiL28java.nio.charset.CoderResultEO"(ptr %_1, i32 %_2) inlinehint personality ptr @__gxx_personality_v0 {
_3000000.0:
  %_11000004 = icmp ne ptr %_1, null
  br i1 %_11000004, label %_11000002.0, label %_11000003.0
_11000002.0:
  br label %_4000000.0
_4000000.0:
  switch i32 %_2, label %_5000000.0 [
    i32 1, label %_6000000.0
    i32 2, label %_7000000.0
    i32 3, label %_8000000.0
    i32 4, label %_9000000.0
  ]
_5000000.0:
  %_10000001 = call dereferenceable_or_null(104) ptr @"_SM29java.nio.charset.CoderResult$G4load"()
  %_11000005 = getelementptr { { ptr }, ptr, ptr, ptr, ptr, ptr, ptr, ptr, ptr, ptr, ptr, ptr, ptr }, { { ptr }, ptr, ptr, ptr, ptr, ptr, ptr, ptr, ptr, ptr, ptr, ptr, ptr }* %_10000001, i32 0, i32 6
  %_10000002 = load ptr, ptr %_11000005, !dereferenceable_or_null !{i64 8}
  %_10000006 = bitcast ptr %_10000002 to ptr
  %_10000007 = call dereferenceable_or_null(16) ptr @"_SM27scala.runtime.BoxesRunTime$D12boxToIntegeriL17java.lang.IntegerEO"(ptr null, i32 %_2)
  %_10000008 = call dereferenceable_or_null(24) ptr @"scalanative_GC_alloc_small"(ptr @"_SM39java.nio.charset.CoderResult$$$Lambda$1G4type", i64 24)
  %_11000007 = getelementptr { { ptr }, ptr, i32 }, { { ptr }, ptr, i32 }* %_10000008, i32 0, i32 2
  store i32 %_2, ptr%_11000007, align 4
  %_11000009 = getelementptr { { ptr }, ptr, i32 }, { { ptr }, ptr, i32 }* %_10000008, i32 0, i32 1
  store ptr %_1, ptr%_11000009, align 8
  %_10000011 = call dereferenceable_or_null(8) ptr @"_SM32scala.collection.mutable.HashMapD15getOrElseUpdateL16java.lang.ObjectL15scala.Function0L16java.lang.ObjectEO"(ptr dereferenceable_or_null(32) %_10000006, ptr nonnull dereferenceable(16) %_10000007, ptr nonnull dereferenceable(24) %_10000008)
  %_11000013 = icmp eq ptr %_10000011, null
  br i1 %_11000013, label %_11000011.0, label %_11000010.0
_11000010.0:
  %_11000014 = load ptr, ptr %_10000011
  %_11000015 = icmp eq ptr %_11000014, @"_SM28java.nio.charset.CoderResultG4type"
  br i1 %_11000015, label %_11000011.0, label %_11000012.0
_11000011.0:
  br label %_11000000.0
_6000000.0:
  %_6000001 = call dereferenceable_or_null(104) ptr @"_SM29java.nio.charset.CoderResult$G4load"()
  %_11000016 = getelementptr { { ptr }, ptr, ptr, ptr, ptr, ptr, ptr, ptr, ptr, ptr, ptr, ptr, ptr }, { { ptr }, ptr, ptr, ptr, ptr, ptr, ptr, ptr, ptr, ptr, ptr, ptr, ptr }* %_6000001, i32 0, i32 5
  %_6000002 = load ptr, ptr %_11000016, !dereferenceable_or_null !{i64 16}
  br label %_11000000.0
_7000000.0:
  %_7000001 = call dereferenceable_or_null(104) ptr @"_SM29java.nio.charset.CoderResult$G4load"()
  %_11000017 = getelementptr { { ptr }, ptr, ptr, ptr, ptr, ptr, ptr, ptr, ptr, ptr, ptr, ptr, ptr }, { { ptr }, ptr, ptr, ptr, ptr, ptr, ptr, ptr, ptr, ptr, ptr, ptr, ptr }* %_7000001, i32 0, i32 4
  %_7000002 = load ptr, ptr %_11000017, !dereferenceable_or_null !{i64 16}
  br label %_11000000.0
_8000000.0:
  %_8000001 = call dereferenceable_or_null(104) ptr @"_SM29java.nio.charset.CoderResult$G4load"()
  %_11000018 = getelementptr { { ptr }, ptr, ptr, ptr, ptr, ptr, ptr, ptr, ptr, ptr, ptr, ptr, ptr }, { { ptr }, ptr, ptr, ptr, ptr, ptr, ptr, ptr, ptr, ptr, ptr, ptr, ptr }* %_8000001, i32 0, i32 3
  %_8000002 = load ptr, ptr %_11000018, !dereferenceable_or_null !{i64 16}
  br label %_11000000.0
_9000000.0:
  %_9000001 = call dereferenceable_or_null(104) ptr @"_SM29java.nio.charset.CoderResult$G4load"()
  %_11000019 = getelementptr { { ptr }, ptr, ptr, ptr, ptr, ptr, ptr, ptr, ptr, ptr, ptr, ptr, ptr }, { { ptr }, ptr, ptr, ptr, ptr, ptr, ptr, ptr, ptr, ptr, ptr, ptr, ptr }* %_9000001, i32 0, i32 2
  %_9000002 = load ptr, ptr %_11000019, !dereferenceable_or_null !{i64 16}
  br label %_11000000.0
_11000000.0:
  %_11000001 = phi ptr [%_9000002, %_9000000.0], [%_8000002, %_8000000.0], [%_7000002, %_7000000.0], [%_6000002, %_6000000.0], [%_10000011, %_11000011.0]
  ret ptr %_11000001
_11000003.0:
  call ptr @"_SM34scala.scalanative.runtime.package$D16throwNullPointernEO"(ptr null)
  unreachable
_11000012.0:
  %_11000021 = phi ptr [%_10000011, %_11000010.0]
  %_11000022 = phi ptr [@"_SM28java.nio.charset.CoderResultG4type", %_11000010.0]
  %_11000023 = load ptr, ptr %_11000021
  call ptr @"_SM34scala.scalanative.runtime.package$D14throwClassCastR_R_nEO"(ptr null, ptr %_11000023, ptr %_11000022)
  unreachable
}

define dereferenceable_or_null(16) ptr @"_SM29java.nio.charset.CoderResult$D8OVERFLOWL28java.nio.charset.CoderResultEO"(ptr %_1) alwaysinline personality ptr @__gxx_personality_v0 {
_2000000.0:
  %_2000001 = call dereferenceable_or_null(104) ptr @"_SM29java.nio.charset.CoderResult$G4load"()
  %_2000003 = getelementptr { { ptr }, ptr, ptr, ptr, ptr, ptr, ptr, ptr, ptr, ptr, ptr, ptr, ptr }, { { ptr }, ptr, ptr, ptr, ptr, ptr, ptr, ptr, ptr, ptr, ptr, ptr, ptr }* %_2000001, i32 0, i32 1
  %_2000002 = load ptr, ptr %_2000003, !dereferenceable_or_null !{i64 16}
  ret ptr %_2000002
}

define dereferenceable_or_null(104) ptr @"_SM29java.nio.charset.CoderResult$G4load"() noinline personality ptr @__gxx_personality_v0 {
_1.0:
  %_4 = getelementptr ptr, ptr @"__modules", i32 1
  %_5 = load ptr, ptr %_4, !dereferenceable_or_null !{i64 104}
  %_6 = icmp ne ptr %_5, null
  br i1 %_6, label %_2.0, label %_3.0
_2.0:
  ret ptr %_5
_3.0:
  %_7 = call dereferenceable_or_null(104) ptr @"scalanative_GC_alloc_small"(ptr @"_SM29java.nio.charset.CoderResult$G4type", i64 104)
  store ptr %_7, ptr%_4, align 8
  call void @"_SM29java.nio.charset.CoderResult$RE"(ptr dereferenceable_or_null(104) %_7)
  ret ptr %_7
}

define void @"_SM29java.nio.charset.CoderResult$RE"(ptr %_1) personality ptr @__gxx_personality_v0 {
_2000000.0:
  %_2000001 = call dereferenceable_or_null(104) ptr @"_SM29java.nio.charset.CoderResult$G4load"()
  %_2000003 = call dereferenceable_or_null(16) ptr @"scalanative_GC_alloc_small"(ptr @"_SM28java.nio.charset.CoderResultG4type", i64 16)
  %_15000006 = getelementptr { { ptr }, i32, i32 }, { { ptr }, i32, i32 }* %_2000003, i32 0, i32 1
  store i32 -1, ptr%_15000006, align 4
  %_15000008 = getelementptr { { ptr }, i32, i32 }, { { ptr }, i32, i32 }* %_2000003, i32 0, i32 2
  store i32 1, ptr%_15000008, align 4
  %_15000010 = getelementptr { { ptr }, ptr, ptr, ptr, ptr, ptr, ptr, ptr, ptr, ptr, ptr, ptr, ptr }, { { ptr }, ptr, ptr, ptr, ptr, ptr, ptr, ptr, ptr, ptr, ptr, ptr, ptr }* %_2000001, i32 0, i32 1
  store ptr %_2000003, ptr%_15000010, align 8
  %_2000008 = call dereferenceable_or_null(16) ptr @"scalanative_GC_alloc_small"(ptr @"_SM28java.nio.charset.CoderResultG4type", i64 16)
  %_15000012 = getelementptr { { ptr }, i32, i32 }, { { ptr }, i32, i32 }* %_2000008, i32 0, i32 1
  store i32 -1, ptr%_15000012, align 4
  %_15000014 = getelementptr { { ptr }, ptr, ptr, ptr, ptr, ptr, ptr, ptr, ptr, ptr, ptr, ptr, ptr }, { { ptr }, ptr, ptr, ptr, ptr, ptr, ptr, ptr, ptr, ptr, ptr, ptr, ptr }* %_2000001, i32 0, i32 12
  store ptr %_2000008, ptr%_15000014, align 8
  %_2000012 = call dereferenceable_or_null(16) ptr @"scalanative_GC_alloc_small"(ptr @"_SM28java.nio.charset.CoderResultG4type", i64 16)
  %_15000016 = getelementptr { { ptr }, i32, i32 }, { { ptr }, i32, i32 }* %_2000012, i32 0, i32 1
  store i32 1, ptr%_15000016, align 4
  %_15000018 = getelementptr { { ptr }, i32, i32 }, { { ptr }, i32, i32 }* %_2000012, i32 0, i32 2
  store i32 2, ptr%_15000018, align 4
  %_15000020 = getelementptr { { ptr }, ptr, ptr, ptr, ptr, ptr, ptr, ptr, ptr, ptr, ptr, ptr, ptr }, { { ptr }, ptr, ptr, ptr, ptr, ptr, ptr, ptr, ptr, ptr, ptr, ptr, ptr }* %_2000001, i32 0, i32 5
  store ptr %_2000012, ptr%_15000020, align 8
  %_2000017 = call dereferenceable_or_null(16) ptr @"scalanative_GC_alloc_small"(ptr @"_SM28java.nio.charset.CoderResultG4type", i64 16)
  %_15000022 = getelementptr { { ptr }, i32, i32 }, { { ptr }, i32, i32 }* %_2000017, i32 0, i32 1
  store i32 2, ptr%_15000022, align 4
  %_15000024 = getelementptr { { ptr }, i32, i32 }, { { ptr }, i32, i32 }* %_2000017, i32 0, i32 2
  store i32 2, ptr%_15000024, align 4
  %_15000026 = getelementptr { { ptr }, ptr, ptr, ptr, ptr, ptr, ptr, ptr, ptr, ptr, ptr, ptr, ptr }, { { ptr }, ptr, ptr, ptr, ptr, ptr, ptr, ptr, ptr, ptr, ptr, ptr, ptr }* %_2000001, i32 0, i32 4
  store ptr %_2000017, ptr%_15000026, align 8
  %_2000022 = call dereferenceable_or_null(16) ptr @"scalanative_GC_alloc_small"(ptr @"_SM28java.nio.charset.CoderResultG4type", i64 16)
  %_15000028 = getelementptr { { ptr }, i32, i32 }, { { ptr }, i32, i32 }* %_2000022, i32 0, i32 1
  store i32 3, ptr%_15000028, align 4
  %_15000030 = getelementptr { { ptr }, i32, i32 }, { { ptr }, i32, i32 }* %_2000022, i32 0, i32 2
  store i32 2, ptr%_15000030, align 4
  %_15000032 = getelementptr { { ptr }, ptr, ptr, ptr, ptr, ptr, ptr, ptr, ptr, ptr, ptr, ptr, ptr }, { { ptr }, ptr, ptr, ptr, ptr, ptr, ptr, ptr, ptr, ptr, ptr, ptr, ptr }* %_2000001, i32 0, i32 3
  store ptr %_2000022, ptr%_15000032, align 8
  %_2000027 = call dereferenceable_or_null(16) ptr @"scalanative_GC_alloc_small"(ptr @"_SM28java.nio.charset.CoderResultG4type", i64 16)
  %_15000034 = getelementptr { { ptr }, i32, i32 }, { { ptr }, i32, i32 }* %_2000027, i32 0, i32 1
  store i32 4, ptr%_15000034, align 4
  %_15000036 = getelementptr { { ptr }, i32, i32 }, { { ptr }, i32, i32 }* %_2000027, i32 0, i32 2
  store i32 2, ptr%_15000036, align 4
  %_15000038 = getelementptr { { ptr }, ptr, ptr, ptr, ptr, ptr, ptr, ptr, ptr, ptr, ptr, ptr, ptr }, { { ptr }, ptr, ptr, ptr, ptr, ptr, ptr, ptr, ptr, ptr, ptr, ptr, ptr }* %_2000001, i32 0, i32 2
  store ptr %_2000027, ptr%_15000038, align 8
  %_10000001 = call dereferenceable_or_null(16) ptr @"_SM29scala.collection.mutable.Map$G4load"()
  %_15000039 = getelementptr { { ptr }, ptr }, { { ptr }, ptr }* %_10000001, i32 0, i32 1
  %_10000002 = load ptr, ptr %_15000039, !dereferenceable_or_null !{i64 8}
  %_15000042 = icmp ne ptr %_10000002, null
  br i1 %_15000042, label %_15000040.0, label %_15000041.0
_15000040.0:
  %_15000043 = load ptr, ptr %_10000002
  %_15000044 = getelementptr { ptr, i32, i32, ptr }, { ptr, i32, i32, ptr }* %_15000043, i32 0, i32 2
  %_15000045 = load i32, ptr %_15000044
  %_15000046 = getelementptr ptr, ptr @"_SM22__scalanative_metadataG14dispatch_table", i32 4743
  %_15000047 = getelementptr ptr, ptr %_15000046, i32 %_15000045
  %_10000004 = load ptr, ptr %_15000047
  %_10000005 = call dereferenceable_or_null(8) ptr %_10000004(ptr dereferenceable_or_null(8) %_10000002)
  %_15000051 = icmp eq ptr %_10000005, null
  br i1 %_15000051, label %_15000049.0, label %_15000048.0
_15000048.0:
  %_15000052 = load ptr, ptr %_10000005
  %_15000053 = getelementptr { ptr, i32, i32, ptr }, { ptr, i32, i32, ptr }* %_15000052, i32 0, i32 1
  %_15000054 = load i32, ptr %_15000053
  %_15000055 = call i1 @"__check_class_has_trait"(i32 %_15000054, i32 56)
  br i1 %_15000055, label %_15000049.0, label %_15000050.0
_15000049.0:
  %_15000057 = getelementptr { { ptr }, ptr, ptr, ptr, ptr, ptr, ptr, ptr, ptr, ptr, ptr, ptr, ptr }, { { ptr }, ptr, ptr, ptr, ptr, ptr, ptr, ptr, ptr, ptr, ptr, ptr, ptr }* %_2000001, i32 0, i32 6
  store ptr %_10000005, ptr%_15000057, align 8
  %_2000035 = call dereferenceable_or_null(16) ptr @"scalanative_GC_alloc_small"(ptr @"_SM28java.nio.charset.CoderResultG4type", i64 16)
  %_15000059 = getelementptr { { ptr }, i32, i32 }, { { ptr }, i32, i32 }* %_2000035, i32 0, i32 1
  store i32 1, ptr%_15000059, align 4
  %_15000061 = getelementptr { { ptr }, i32, i32 }, { { ptr }, i32, i32 }* %_2000035, i32 0, i32 2
  store i32 3, ptr%_15000061, align 4
  %_15000063 = getelementptr { { ptr }, ptr, ptr, ptr, ptr, ptr, ptr, ptr, ptr, ptr, ptr, ptr, ptr }, { { ptr }, ptr, ptr, ptr, ptr, ptr, ptr, ptr, ptr, ptr, ptr, ptr, ptr }* %_2000001, i32 0, i32 11
  store ptr %_2000035, ptr%_15000063, align 8
  %_2000040 = call dereferenceable_or_null(16) ptr @"scalanative_GC_alloc_small"(ptr @"_SM28java.nio.charset.CoderResultG4type", i64 16)
  %_15000065 = getelementptr { { ptr }, i32, i32 }, { { ptr }, i32, i32 }* %_2000040, i32 0, i32 1
  store i32 2, ptr%_15000065, align 4
  %_15000067 = getelementptr { { ptr }, i32, i32 }, { { ptr }, i32, i32 }* %_2000040, i32 0, i32 2
  store i32 3, ptr%_15000067, align 4
  %_15000069 = getelementptr { { ptr }, ptr, ptr, ptr, ptr, ptr, ptr, ptr, ptr, ptr, ptr, ptr, ptr }, { { ptr }, ptr, ptr, ptr, ptr, ptr, ptr, ptr, ptr, ptr, ptr, ptr, ptr }* %_2000001, i32 0, i32 10
  store ptr %_2000040, ptr%_15000069, align 8
  %_2000045 = call dereferenceable_or_null(16) ptr @"scalanative_GC_alloc_small"(ptr @"_SM28java.nio.charset.CoderResultG4type", i64 16)
  %_15000071 = getelementptr { { ptr }, i32, i32 }, { { ptr }, i32, i32 }* %_2000045, i32 0, i32 1
  store i32 3, ptr%_15000071, align 4
  %_15000073 = getelementptr { { ptr }, i32, i32 }, { { ptr }, i32, i32 }* %_2000045, i32 0, i32 2
  store i32 3, ptr%_15000073, align 4
  %_15000075 = getelementptr { { ptr }, ptr, ptr, ptr, ptr, ptr, ptr, ptr, ptr, ptr, ptr, ptr, ptr }, { { ptr }, ptr, ptr, ptr, ptr, ptr, ptr, ptr, ptr, ptr, ptr, ptr, ptr }* %_2000001, i32 0, i32 9
  store ptr %_2000045, ptr%_15000075, align 8
  %_2000050 = call dereferenceable_or_null(16) ptr @"scalanative_GC_alloc_small"(ptr @"_SM28java.nio.charset.CoderResultG4type", i64 16)
  %_15000077 = getelementptr { { ptr }, i32, i32 }, { { ptr }, i32, i32 }* %_2000050, i32 0, i32 1
  store i32 4, ptr%_15000077, align 4
  %_15000079 = getelementptr { { ptr }, i32, i32 }, { { ptr }, i32, i32 }* %_2000050, i32 0, i32 2
  store i32 3, ptr%_15000079, align 4
  %_15000081 = getelementptr { { ptr }, ptr, ptr, ptr, ptr, ptr, ptr, ptr, ptr, ptr, ptr, ptr, ptr }, { { ptr }, ptr, ptr, ptr, ptr, ptr, ptr, ptr, ptr, ptr, ptr, ptr, ptr }* %_2000001, i32 0, i32 8
  store ptr %_2000050, ptr%_15000081, align 8
  %_15000082 = getelementptr { { ptr }, ptr }, { { ptr }, ptr }* %_10000001, i32 0, i32 1
  %_15000001 = load ptr, ptr %_15000082, !dereferenceable_or_null !{i64 8}
  %_15000084 = icmp ne ptr %_15000001, null
  br i1 %_15000084, label %_15000083.0, label %_15000041.0
_15000083.0:
  %_15000085 = load ptr, ptr %_15000001
  %_15000086 = getelementptr { ptr, i32, i32, ptr }, { ptr, i32, i32, ptr }* %_15000085, i32 0, i32 2
  %_15000087 = load i32, ptr %_15000086
  %_15000088 = getelementptr ptr, ptr @"_SM22__scalanative_metadataG14dispatch_table", i32 4743
  %_15000089 = getelementptr ptr, ptr %_15000088, i32 %_15000087
  %_15000003 = load ptr, ptr %_15000089
  %_15000004 = call dereferenceable_or_null(8) ptr %_15000003(ptr dereferenceable_or_null(8) %_15000001)
  %_15000092 = icmp eq ptr %_15000004, null
  br i1 %_15000092, label %_15000091.0, label %_15000090.0
_15000090.0:
  %_15000093 = load ptr, ptr %_15000004
  %_15000094 = getelementptr { ptr, i32, i32, ptr }, { ptr, i32, i32, ptr }* %_15000093, i32 0, i32 1
  %_15000095 = load i32, ptr %_15000094
  %_15000096 = call i1 @"__check_class_has_trait"(i32 %_15000095, i32 56)
  br i1 %_15000096, label %_15000091.0, label %_15000050.0
_15000091.0:
  %_15000098 = getelementptr { { ptr }, ptr, ptr, ptr, ptr, ptr, ptr, ptr, ptr, ptr, ptr, ptr, ptr }, { { ptr }, ptr, ptr, ptr, ptr, ptr, ptr, ptr, ptr, ptr, ptr, ptr, ptr }* %_2000001, i32 0, i32 7
  store ptr %_15000004, ptr%_15000098, align 8
  ret void
_15000041.0:
  call ptr @"_SM34scala.scalanative.runtime.package$D16throwNullPointernEO"(ptr null)
  unreachable
_15000050.0:
  %_15000100 = phi ptr [%_10000005, %_15000048.0], [%_15000004, %_15000090.0]
  %_15000101 = phi ptr [@"_SM28scala.collection.mutable.MapG4type", %_15000048.0], [@"_SM28scala.collection.mutable.MapG4type", %_15000090.0]
  %_15000102 = load ptr, ptr %_15000100
  call ptr @"_SM34scala.scalanative.runtime.package$D14throwClassCastR_R_nEO"(ptr null, ptr %_15000102, ptr %_15000101)
  unreachable
}

define nonnull dereferenceable(16) ptr @"_SM39java.nio.charset.CoderResult$$$Lambda$1D5applyL16java.lang.ObjectEO"(ptr %_1) personality ptr @__gxx_personality_v0 {
_2000000.0:
  %_2000008 = icmp ne ptr %_1, null
  br i1 %_2000008, label %_2000006.0, label %_2000007.0
_2000006.0:
  %_2000009 = getelementptr { { ptr }, ptr, i32 }, { { ptr }, ptr, i32 }* %_1, i32 0, i32 1
  %_2000001 = load ptr, ptr %_2000009, !dereferenceable_or_null !{i64 104}
  %_2000010 = getelementptr { { ptr }, ptr, i32 }, { { ptr }, ptr, i32 }* %_1, i32 0, i32 2
  %_2000002 = load i32, ptr %_2000010
  %_2000003 = call dereferenceable_or_null(16) ptr @"scalanative_GC_alloc_small"(ptr @"_SM28java.nio.charset.CoderResultG4type", i64 16)
  %_2000012 = getelementptr { { ptr }, i32, i32 }, { { ptr }, i32, i32 }* %_2000003, i32 0, i32 1
  store i32 %_2000002, ptr%_2000012, align 4
  %_2000014 = getelementptr { { ptr }, i32, i32 }, { { ptr }, i32, i32 }* %_2000003, i32 0, i32 2
  store i32 2, ptr%_2000014, align 4
  ret ptr %_2000003
_2000007.0:
  call ptr @"_SM34scala.scalanative.runtime.package$D16throwNullPointernEO"(ptr null)
  unreachable
}

define dereferenceable_or_null(32) ptr @"_SM34java.nio.charset.CodingErrorActionD8toStringL16java.lang.StringEO"(ptr %_1) personality ptr @__gxx_personality_v0 {
_2000000.0:
  %_2000004 = icmp ne ptr %_1, null
  br i1 %_2000004, label %_2000002.0, label %_2000003.0
_2000002.0:
  %_2000005 = getelementptr { { ptr }, ptr }, { { ptr }, ptr }* %_1, i32 0, i32 1
  %_2000001 = load ptr, ptr %_2000005, !dereferenceable_or_null !{i64 32}
  ret ptr %_2000001
_2000003.0:
  call ptr @"_SM34scala.scalanative.runtime.package$D16throwNullPointernEO"(ptr null)
  unreachable
}

define dereferenceable_or_null(16) ptr @"_SM35java.nio.charset.CodingErrorAction$D6IGNOREL34java.nio.charset.CodingErrorActionEO"(ptr %_1) alwaysinline personality ptr @__gxx_personality_v0 {
_2000000.0:
  %_2000001 = call dereferenceable_or_null(32) ptr @"_SM35java.nio.charset.CodingErrorAction$G4load"()
  %_2000003 = getelementptr { { ptr }, ptr, ptr, ptr }, { { ptr }, ptr, ptr, ptr }* %_2000001, i32 0, i32 1
  %_2000002 = load ptr, ptr %_2000003, !dereferenceable_or_null !{i64 16}
  ret ptr %_2000002
}

define dereferenceable_or_null(16) ptr @"_SM35java.nio.charset.CodingErrorAction$D6REPORTL34java.nio.charset.CodingErrorActionEO"(ptr %_1) alwaysinline personality ptr @__gxx_personality_v0 {
_2000000.0:
  %_2000001 = call dereferenceable_or_null(32) ptr @"_SM35java.nio.charset.CodingErrorAction$G4load"()
  %_2000003 = getelementptr { { ptr }, ptr, ptr, ptr }, { { ptr }, ptr, ptr, ptr }* %_2000001, i32 0, i32 2
  %_2000002 = load ptr, ptr %_2000003, !dereferenceable_or_null !{i64 16}
  ret ptr %_2000002
}

define dereferenceable_or_null(16) ptr @"_SM35java.nio.charset.CodingErrorAction$D7REPLACEL34java.nio.charset.CodingErrorActionEO"(ptr %_1) alwaysinline personality ptr @__gxx_personality_v0 {
_2000000.0:
  %_2000001 = call dereferenceable_or_null(32) ptr @"_SM35java.nio.charset.CodingErrorAction$G4load"()
  %_2000003 = getelementptr { { ptr }, ptr, ptr, ptr }, { { ptr }, ptr, ptr, ptr }* %_2000001, i32 0, i32 3
  %_2000002 = load ptr, ptr %_2000003, !dereferenceable_or_null !{i64 16}
  ret ptr %_2000002
}

define dereferenceable_or_null(32) ptr @"_SM35java.nio.charset.CodingErrorAction$G4load"() noinline personality ptr @__gxx_personality_v0 {
_1.0:
  %_4 = getelementptr ptr, ptr @"__modules", i32 149
  %_5 = load ptr, ptr %_4, !dereferenceable_or_null !{i64 32}
  %_6 = icmp ne ptr %_5, null
  br i1 %_6, label %_2.0, label %_3.0
_2.0:
  ret ptr %_5
_3.0:
  %_7 = call dereferenceable_or_null(32) ptr @"scalanative_GC_alloc_small"(ptr @"_SM35java.nio.charset.CodingErrorAction$G4type", i64 32)
  store ptr %_7, ptr%_4, align 8
  call void @"_SM35java.nio.charset.CodingErrorAction$RE"(ptr dereferenceable_or_null(32) %_7)
  ret ptr %_7
}

define void @"_SM35java.nio.charset.CodingErrorAction$RE"(ptr %_1) personality ptr @__gxx_personality_v0 {
_2000000.0:
  %_2000001 = call dereferenceable_or_null(32) ptr @"_SM35java.nio.charset.CodingErrorAction$G4load"()
  %_2000005 = call dereferenceable_or_null(16) ptr @"scalanative_GC_alloc_small"(ptr @"_SM34java.nio.charset.CodingErrorActionG4type", i64 16)
  %_2000021 = getelementptr { { ptr }, ptr }, { { ptr }, ptr }* %_2000005, i32 0, i32 1
  store ptr @"_SM7__constG3-128", ptr%_2000021, align 8
  %_2000023 = getelementptr { { ptr }, ptr, ptr, ptr }, { { ptr }, ptr, ptr, ptr }* %_2000001, i32 0, i32 1
  store ptr %_2000005, ptr%_2000023, align 8
  %_2000011 = call dereferenceable_or_null(16) ptr @"scalanative_GC_alloc_small"(ptr @"_SM34java.nio.charset.CodingErrorActionG4type", i64 16)
  %_2000025 = getelementptr { { ptr }, ptr }, { { ptr }, ptr }* %_2000011, i32 0, i32 1
  store ptr @"_SM7__constG3-130", ptr%_2000025, align 8
  %_2000027 = getelementptr { { ptr }, ptr, ptr, ptr }, { { ptr }, ptr, ptr, ptr }* %_2000001, i32 0, i32 3
  store ptr %_2000011, ptr%_2000027, align 8
  %_2000017 = call dereferenceable_or_null(16) ptr @"scalanative_GC_alloc_small"(ptr @"_SM34java.nio.charset.CodingErrorActionG4type", i64 16)
  %_2000029 = getelementptr { { ptr }, ptr }, { { ptr }, ptr }* %_2000017, i32 0, i32 1
  store ptr @"_SM7__constG3-132", ptr%_2000029, align 8
  %_2000031 = getelementptr { { ptr }, ptr, ptr, ptr }, { { ptr }, ptr, ptr, ptr }* %_2000001, i32 0, i32 2
  store ptr %_2000017, ptr%_2000031, align 8
  ret void
}

define nonnull dereferenceable(32) ptr @"_SM40java.nio.charset.MalformedInputExceptionD10getMessageL16java.lang.StringEO"(ptr %_1) personality ptr @__gxx_personality_v0 {
_2000000.0:
  %_6000004 = icmp ne ptr %_1, null
  br i1 %_6000004, label %_6000002.0, label %_6000003.0
_6000002.0:
  %_4000001 = call dereferenceable_or_null(24) ptr @"scalanative_GC_alloc_small"(ptr @"_SM23java.lang.StringBuilderG4type", i64 24)
  %_4000002 = call dereferenceable_or_null(16) ptr @"_SM36scala.scalanative.runtime.CharArray$D5allociL35scala.scalanative.runtime.CharArrayEO"(ptr @"_SM36scala.scalanative.runtime.CharArray$G8instance", i32 15)
  %_6000007 = getelementptr { { ptr }, i32, i1, ptr }, { { ptr }, i32, i1, ptr }* %_4000001, i32 0, i32 3
  store ptr %_4000002, ptr%_6000007, align 8
  call void @"_SM31java.lang.AbstractStringBuilderD7append0L16java.lang.StringuEO"(ptr nonnull dereferenceable(24) %_4000001, ptr @"_SM7__constG3-134")
  %_6000009 = getelementptr { { ptr }, ptr, ptr, ptr, i1, i1, i32 }, { { ptr }, ptr, ptr, ptr, i1, i1, i32 }* %_1, i32 0, i32 6
  %_2000004 = load i32, ptr %_6000009
  %_5000003 = call nonnull dereferenceable(32) ptr @"_SM18java.lang.Integer$D8toStringiL16java.lang.StringEO"(ptr nonnull dereferenceable(8) @"_SM18java.lang.Integer$G8instance", i32 %_2000004)
  call void @"_SM31java.lang.AbstractStringBuilderD7append0L16java.lang.StringuEO"(ptr nonnull dereferenceable(24) %_4000001, ptr nonnull dereferenceable(32) %_5000003)
  %_6000001 = call nonnull dereferenceable(32) ptr @"_SM31java.lang.AbstractStringBuilderD8toStringL16java.lang.StringEO"(ptr nonnull dereferenceable(24) %_4000001)
  ret ptr %_6000001
_6000003.0:
  call ptr @"_SM34scala.scalanative.runtime.package$D16throwNullPointernEO"(ptr null)
  unreachable
}

define nonnull dereferenceable(32) ptr @"_SM45java.nio.charset.UnmappableCharacterExceptionD10getMessageL16java.lang.StringEO"(ptr %_1) personality ptr @__gxx_personality_v0 {
_2000000.0:
  %_6000004 = icmp ne ptr %_1, null
  br i1 %_6000004, label %_6000002.0, label %_6000003.0
_6000002.0:
  %_4000001 = call dereferenceable_or_null(24) ptr @"scalanative_GC_alloc_small"(ptr @"_SM23java.lang.StringBuilderG4type", i64 24)
  %_4000002 = call dereferenceable_or_null(16) ptr @"_SM36scala.scalanative.runtime.CharArray$D5allociL35scala.scalanative.runtime.CharArrayEO"(ptr @"_SM36scala.scalanative.runtime.CharArray$G8instance", i32 15)
  %_6000007 = getelementptr { { ptr }, i32, i1, ptr }, { { ptr }, i32, i1, ptr }* %_4000001, i32 0, i32 3
  store ptr %_4000002, ptr%_6000007, align 8
  call void @"_SM31java.lang.AbstractStringBuilderD7append0L16java.lang.StringuEO"(ptr nonnull dereferenceable(24) %_4000001, ptr @"_SM7__constG3-134")
  %_6000009 = getelementptr { { ptr }, ptr, ptr, ptr, i1, i1, i32 }, { { ptr }, ptr, ptr, ptr, i1, i1, i32 }* %_1, i32 0, i32 6
  %_2000004 = load i32, ptr %_6000009
  %_5000003 = call nonnull dereferenceable(32) ptr @"_SM18java.lang.Integer$D8toStringiL16java.lang.StringEO"(ptr nonnull dereferenceable(8) @"_SM18java.lang.Integer$G8instance", i32 %_2000004)
  call void @"_SM31java.lang.AbstractStringBuilderD7append0L16java.lang.StringuEO"(ptr nonnull dereferenceable(24) %_4000001, ptr nonnull dereferenceable(32) %_5000003)
  %_6000001 = call nonnull dereferenceable(32) ptr @"_SM31java.lang.AbstractStringBuilderD8toStringL16java.lang.StringEO"(ptr nonnull dereferenceable(24) %_4000001)
  ret ptr %_6000001
_6000003.0:
  call ptr @"_SM34scala.scalanative.runtime.package$D16throwNullPointernEO"(ptr null)
  unreachable
}

define dereferenceable_or_null(32) ptr @"_SM33java.nio.file.FileSystemExceptionD10getMessageL16java.lang.StringEO"(ptr %_1) personality ptr @__gxx_personality_v0 {
_2000000.0:
  %_51000004 = icmp ne ptr %_1, null
  br i1 %_51000004, label %_51000002.0, label %_51000003.0
_51000002.0:
  br label %_3000000.0
_3000000.0:
  %_51000005 = getelementptr { { ptr }, ptr, ptr, ptr, i1, i1, ptr, ptr, ptr }, { { ptr }, ptr, ptr, ptr, i1, i1, ptr, ptr, ptr }* %_1, i32 0, i32 6
  %_3000002 = load ptr, ptr %_51000005, !dereferenceable_or_null !{i64 32}
  %_51000006 = getelementptr { { ptr }, ptr, ptr, ptr, i1, i1, ptr, ptr, ptr }, { { ptr }, ptr, ptr, ptr, i1, i1, ptr, ptr, ptr }* %_1, i32 0, i32 8
  %_3000003 = load ptr, ptr %_51000006, !dereferenceable_or_null !{i64 32}
  br label %_5000000.0
_5000000.0:
  %_5000002 = icmp eq ptr %_3000002, null
  br i1 %_5000002, label %_8000000.0, label %_9000000.0
_8000000.0:
  %_8000002 = icmp eq ptr %_3000003, null
  br i1 %_8000002, label %_10000000.0, label %_11000000.0
_10000000.0:
  br label %_12000000.0
_11000000.0:
  br label %_13000000.0
_13000000.0:
  %_15000001 = call dereferenceable_or_null(24) ptr @"scalanative_GC_alloc_small"(ptr @"_SM23java.lang.StringBuilderG4type", i64 24)
  %_15000002 = call dereferenceable_or_null(16) ptr @"_SM36scala.scalanative.runtime.CharArray$D5allociL35scala.scalanative.runtime.CharArrayEO"(ptr @"_SM36scala.scalanative.runtime.CharArray$G8instance", i32 4)
  %_51000009 = getelementptr { { ptr }, i32, i1, ptr }, { { ptr }, i32, i1, ptr }* %_15000001, i32 0, i32 3
  store ptr %_15000002, ptr%_51000009, align 8
  call void @"_SM31java.lang.AbstractStringBuilderD7append0L16java.lang.StringuEO"(ptr nonnull dereferenceable(24) %_15000001, ptr @"_SM7__constG3-136")
  call void @"_SM31java.lang.AbstractStringBuilderD7append0L16java.lang.StringuEO"(ptr nonnull dereferenceable(24) %_15000001, ptr dereferenceable_or_null(32) %_3000003)
  %_17000001 = call nonnull dereferenceable(32) ptr @"_SM31java.lang.AbstractStringBuilderD8toStringL16java.lang.StringEO"(ptr nonnull dereferenceable(24) %_15000001)
  br label %_12000000.0
_9000000.0:
  br label %_18000000.0
_18000000.0:
  %_18000002 = icmp eq ptr %_3000003, null
  br i1 %_18000002, label %_19000000.0, label %_20000000.0
_19000000.0:
  %_21000001 = call dereferenceable_or_null(24) ptr @"_SM17java.lang.String$G4load"()
  %_21000004 = xor i1 %_5000002, true
  br i1 %_21000004, label %_22000000.0, label %_23000000.0
_22000000.0:
  br label %_25000000.0
_23000000.0:
  br label %_25000000.0
_25000000.0:
  %_25000001 = phi ptr [@"_SM7__constG3-138", %_23000000.0], [%_3000002, %_22000000.0]
  br label %_12000000.0
_20000000.0:
  br label %_26000000.0
_26000000.0:
  %_28000001 = call dereferenceable_or_null(24) ptr @"scalanative_GC_alloc_small"(ptr @"_SM23java.lang.StringBuilderG4type", i64 24)
  %_28000002 = call dereferenceable_or_null(16) ptr @"_SM36scala.scalanative.runtime.CharArray$D5allociL35scala.scalanative.runtime.CharArrayEO"(ptr @"_SM36scala.scalanative.runtime.CharArray$G8instance", i32 4)
  %_51000014 = getelementptr { { ptr }, i32, i1, ptr }, { { ptr }, i32, i1, ptr }* %_28000001, i32 0, i32 3
  store ptr %_28000002, ptr%_51000014, align 8
  call void @"_SM31java.lang.AbstractStringBuilderD7append0L16java.lang.StringuEO"(ptr nonnull dereferenceable(24) %_28000001, ptr dereferenceable_or_null(32) %_3000002)
  call void @"_SM31java.lang.AbstractStringBuilderD7append0L16java.lang.StringuEO"(ptr nonnull dereferenceable(24) %_28000001, ptr @"_SM7__constG3-136")
  call void @"_SM31java.lang.AbstractStringBuilderD7append0L16java.lang.StringuEO"(ptr nonnull dereferenceable(24) %_28000001, ptr dereferenceable_or_null(32) %_3000003)
  %_31000001 = call nonnull dereferenceable(32) ptr @"_SM31java.lang.AbstractStringBuilderD8toStringL16java.lang.StringEO"(ptr nonnull dereferenceable(24) %_28000001)
  br label %_12000000.0
_12000000.0:
  %_12000001 = phi ptr [%_31000001, %_26000000.0], [%_25000001, %_25000000.0], [%_17000001, %_13000000.0], [null, %_10000000.0]
  br label %_32000000.0
_32000000.0:
  %_51000018 = getelementptr { { ptr }, ptr, ptr, ptr, i1, i1, ptr, ptr, ptr }, { { ptr }, ptr, ptr, ptr, i1, i1, ptr, ptr, ptr }* %_1, i32 0, i32 7
  %_32000001 = load ptr, ptr %_51000018, !dereferenceable_or_null !{i64 32}
  br label %_34000000.0
_34000000.0:
  %_34000002 = icmp eq ptr %_12000001, null
  br i1 %_34000002, label %_37000000.0, label %_38000000.0
_37000000.0:
  %_37000002 = icmp eq ptr %_32000001, null
  br i1 %_37000002, label %_39000000.0, label %_40000000.0
_39000000.0:
  br label %_41000000.0
_40000000.0:
  br label %_42000000.0
_42000000.0:
  br label %_41000000.0
_38000000.0:
  br label %_43000000.0
_43000000.0:
  %_43000002 = icmp eq ptr %_32000001, null
  br i1 %_43000002, label %_44000000.0, label %_45000000.0
_44000000.0:
  br label %_41000000.0
_45000000.0:
  br label %_46000000.0
_46000000.0:
  %_48000001 = call dereferenceable_or_null(24) ptr @"scalanative_GC_alloc_small"(ptr @"_SM23java.lang.StringBuilderG4type", i64 24)
  %_48000002 = call dereferenceable_or_null(16) ptr @"_SM36scala.scalanative.runtime.CharArray$D5allociL35scala.scalanative.runtime.CharArrayEO"(ptr @"_SM36scala.scalanative.runtime.CharArray$G8instance", i32 2)
  %_51000021 = getelementptr { { ptr }, i32, i1, ptr }, { { ptr }, i32, i1, ptr }* %_48000001, i32 0, i32 3
  store ptr %_48000002, ptr%_51000021, align 8
  call void @"_SM31java.lang.AbstractStringBuilderD7append0L16java.lang.StringuEO"(ptr nonnull dereferenceable(24) %_48000001, ptr dereferenceable_or_null(32) %_12000001)
  call void @"_SM31java.lang.AbstractStringBuilderD7append0L16java.lang.StringuEO"(ptr nonnull dereferenceable(24) %_48000001, ptr @"_SM7__constG3-140")
  call void @"_SM31java.lang.AbstractStringBuilderD7append0L16java.lang.StringuEO"(ptr nonnull dereferenceable(24) %_48000001, ptr dereferenceable_or_null(32) %_32000001)
  %_51000001 = call nonnull dereferenceable(32) ptr @"_SM31java.lang.AbstractStringBuilderD8toStringL16java.lang.StringEO"(ptr nonnull dereferenceable(24) %_48000001)
  br label %_41000000.0
_41000000.0:
  %_41000001 = phi ptr [%_51000001, %_46000000.0], [%_12000001, %_44000000.0], [%_32000001, %_42000000.0], [null, %_39000000.0]
  ret ptr %_41000001
_51000003.0:
  call ptr @"_SM34scala.scalanative.runtime.package$D16throwNullPointernEO"(ptr null)
  unreachable
}

define nonnull dereferenceable(40) ptr @"_SM29java.nio.file.PosixException$D5applyL16java.lang.StringiL19java.io.IOExceptionEO"(ptr %_1, ptr %_2, i32 %_3) personality ptr @__gxx_personality_v0 {
_4000000.0:
  br label %_5000000.0
_5000000.0:
  %_5000002 = call i32 @"scalanative_eacces"()
  %_5000004 = icmp eq i32 %_3, %_5000002
  br i1 %_5000004, label %_6000000.0, label %_7000000.0
_6000000.0:
  br label %_9000000.0
_9000000.0:
  %_9000001 = call dereferenceable_or_null(64) ptr @"scalanative_GC_alloc_small"(ptr @"_SM35java.nio.file.AccessDeniedExceptionG4type", i64 64)
  %_46000002 = getelementptr { { ptr }, ptr, ptr, ptr, i1, i1 }, { { ptr }, ptr, ptr, ptr, i1, i1 }* %_9000001, i32 0, i32 5
  %_46000003 = zext i1 true to i8
  store i8 %_46000003, ptr%_46000002, align 1
  %_46000005 = getelementptr { { ptr }, ptr, ptr, ptr, i1, i1 }, { { ptr }, ptr, ptr, ptr, i1, i1 }* %_9000001, i32 0, i32 4
  %_46000006 = zext i1 true to i8
  store i8 %_46000006, ptr%_46000005, align 1
  %_46000008 = getelementptr { { ptr }, ptr, ptr, ptr, i1, i1, ptr, ptr, ptr }, { { ptr }, ptr, ptr, ptr, i1, i1, ptr, ptr, ptr }* %_9000001, i32 0, i32 6
  store ptr %_2, ptr%_46000008, align 8
  %_9000005 = call dereferenceable_or_null(40) ptr @"_SM19java.lang.ThrowableD16fillInStackTraceL19java.lang.ThrowableEO"(ptr nonnull dereferenceable(64) %_9000001)
  br label %_10000000.0
_10000000.0:
  br label %_11000000.0
_7000000.0:
  br label %_12000000.0
_12000000.0:
  %_12000001 = call i32 @"scalanative_eexist"()
  %_12000003 = icmp eq i32 %_3, %_12000001
  br i1 %_12000003, label %_13000000.0, label %_14000000.0
_13000000.0:
  br label %_16000000.0
_16000000.0:
  %_16000001 = call dereferenceable_or_null(64) ptr @"scalanative_GC_alloc_small"(ptr @"_SM40java.nio.file.FileAlreadyExistsExceptionG4type", i64 64)
  %_46000010 = getelementptr { { ptr }, ptr, ptr, ptr, i1, i1 }, { { ptr }, ptr, ptr, ptr, i1, i1 }* %_16000001, i32 0, i32 5
  %_46000011 = zext i1 true to i8
  store i8 %_46000011, ptr%_46000010, align 1
  %_46000013 = getelementptr { { ptr }, ptr, ptr, ptr, i1, i1 }, { { ptr }, ptr, ptr, ptr, i1, i1 }* %_16000001, i32 0, i32 4
  %_46000014 = zext i1 true to i8
  store i8 %_46000014, ptr%_46000013, align 1
  %_46000016 = getelementptr { { ptr }, ptr, ptr, ptr, i1, i1, ptr, ptr, ptr }, { { ptr }, ptr, ptr, ptr, i1, i1, ptr, ptr, ptr }* %_16000001, i32 0, i32 6
  store ptr %_2, ptr%_46000016, align 8
  %_16000005 = call dereferenceable_or_null(40) ptr @"_SM19java.lang.ThrowableD16fillInStackTraceL19java.lang.ThrowableEO"(ptr nonnull dereferenceable(64) %_16000001)
  br label %_17000000.0
_17000000.0:
  br label %_11000000.0
_14000000.0:
  br label %_18000000.0
_18000000.0:
  %_18000001 = call i32 @"scalanative_enoent"()
  %_18000003 = icmp eq i32 %_3, %_18000001
  br i1 %_18000003, label %_19000000.0, label %_20000000.0
_19000000.0:
  br label %_22000000.0
_22000000.0:
  %_22000001 = call dereferenceable_or_null(64) ptr @"scalanative_GC_alloc_small"(ptr @"_SM33java.nio.file.NoSuchFileExceptionG4type", i64 64)
  %_46000018 = getelementptr { { ptr }, ptr, ptr, ptr, i1, i1 }, { { ptr }, ptr, ptr, ptr, i1, i1 }* %_22000001, i32 0, i32 5
  %_46000019 = zext i1 true to i8
  store i8 %_46000019, ptr%_46000018, align 1
  %_46000021 = getelementptr { { ptr }, ptr, ptr, ptr, i1, i1 }, { { ptr }, ptr, ptr, ptr, i1, i1 }* %_22000001, i32 0, i32 4
  %_46000022 = zext i1 true to i8
  store i8 %_46000022, ptr%_46000021, align 1
  %_46000024 = getelementptr { { ptr }, ptr, ptr, ptr, i1, i1, ptr, ptr, ptr }, { { ptr }, ptr, ptr, ptr, i1, i1, ptr, ptr, ptr }* %_22000001, i32 0, i32 6
  store ptr %_2, ptr%_46000024, align 8
  %_22000005 = call dereferenceable_or_null(40) ptr @"_SM19java.lang.ThrowableD16fillInStackTraceL19java.lang.ThrowableEO"(ptr nonnull dereferenceable(64) %_22000001)
  br label %_23000000.0
_23000000.0:
  br label %_11000000.0
_20000000.0:
  br label %_24000000.0
_24000000.0:
  %_24000001 = call i32 @"scalanative_enotdir"()
  %_24000003 = icmp eq i32 %_3, %_24000001
  br i1 %_24000003, label %_25000000.0, label %_26000000.0
_25000000.0:
  br label %_28000000.0
_28000000.0:
  %_28000001 = call dereferenceable_or_null(64) ptr @"scalanative_GC_alloc_small"(ptr @"_SM35java.nio.file.NotDirectoryExceptionG4type", i64 64)
  %_46000026 = getelementptr { { ptr }, ptr, ptr, ptr, i1, i1 }, { { ptr }, ptr, ptr, ptr, i1, i1 }* %_28000001, i32 0, i32 5
  %_46000027 = zext i1 true to i8
  store i8 %_46000027, ptr%_46000026, align 1
  %_46000029 = getelementptr { { ptr }, ptr, ptr, ptr, i1, i1 }, { { ptr }, ptr, ptr, ptr, i1, i1 }* %_28000001, i32 0, i32 4
  %_46000030 = zext i1 true to i8
  store i8 %_46000030, ptr%_46000029, align 1
  %_46000032 = getelementptr { { ptr }, ptr, ptr, ptr, i1, i1, ptr, ptr, ptr }, { { ptr }, ptr, ptr, ptr, i1, i1, ptr, ptr, ptr }* %_28000001, i32 0, i32 6
  store ptr %_2, ptr%_46000032, align 8
  %_28000005 = call dereferenceable_or_null(40) ptr @"_SM19java.lang.ThrowableD16fillInStackTraceL19java.lang.ThrowableEO"(ptr nonnull dereferenceable(64) %_28000001)
  br label %_29000000.0
_29000000.0:
  br label %_11000000.0
_26000000.0:
  br label %_30000000.0
_30000000.0:
  %_30000001 = call i32 @"scalanative_enotempty"()
  %_30000003 = icmp eq i32 %_3, %_30000001
  br i1 %_30000003, label %_31000000.0, label %_32000000.0
_31000000.0:
  br label %_34000000.0
_34000000.0:
  %_34000001 = call dereferenceable_or_null(64) ptr @"scalanative_GC_alloc_small"(ptr @"_SM40java.nio.file.DirectoryNotEmptyExceptionG4type", i64 64)
  %_46000034 = getelementptr { { ptr }, ptr, ptr, ptr, i1, i1 }, { { ptr }, ptr, ptr, ptr, i1, i1 }* %_34000001, i32 0, i32 5
  %_46000035 = zext i1 true to i8
  store i8 %_46000035, ptr%_46000034, align 1
  %_46000037 = getelementptr { { ptr }, ptr, ptr, ptr, i1, i1 }, { { ptr }, ptr, ptr, ptr, i1, i1 }* %_34000001, i32 0, i32 4
  %_46000038 = zext i1 true to i8
  store i8 %_46000038, ptr%_46000037, align 1
  %_46000040 = getelementptr { { ptr }, ptr, ptr, ptr, i1, i1, ptr, ptr, ptr }, { { ptr }, ptr, ptr, ptr, i1, i1, ptr, ptr, ptr }* %_34000001, i32 0, i32 6
  store ptr %_2, ptr%_46000040, align 8
  %_34000005 = call dereferenceable_or_null(40) ptr @"_SM19java.lang.ThrowableD16fillInStackTraceL19java.lang.ThrowableEO"(ptr nonnull dereferenceable(64) %_34000001)
  br label %_35000000.0
_35000000.0:
  br label %_11000000.0
_32000000.0:
  br label %_36000000.0
_36000000.0:
  %_38000001 = call dereferenceable_or_null(24) ptr @"scalanative_GC_alloc_small"(ptr @"_SM23java.lang.StringBuilderG4type", i64 24)
  %_38000002 = call dereferenceable_or_null(16) ptr @"_SM36scala.scalanative.runtime.CharArray$D5allociL35scala.scalanative.runtime.CharArrayEO"(ptr @"_SM36scala.scalanative.runtime.CharArray$G8instance", i32 27)
  %_46000043 = getelementptr { { ptr }, i32, i1, ptr }, { { ptr }, i32, i1, ptr }* %_38000001, i32 0, i32 3
  store ptr %_38000002, ptr%_46000043, align 8
  call void @"_SM31java.lang.AbstractStringBuilderD7append0L16java.lang.StringuEO"(ptr nonnull dereferenceable(24) %_38000001, ptr @"_SM7__constG3-142")
  call void @"_SM31java.lang.AbstractStringBuilderD7append0L16java.lang.StringuEO"(ptr nonnull dereferenceable(24) %_38000001, ptr dereferenceable_or_null(32) %_2)
  call void @"_SM31java.lang.AbstractStringBuilderD7append0L16java.lang.StringuEO"(ptr nonnull dereferenceable(24) %_38000001, ptr @"_SM7__constG3-144")
  %_36000009 = call ptr @"strerror"(i32 %_3)
  %_36000011 = call dereferenceable_or_null(16) ptr @"_SM33scala.scalanative.unsafe.package$G4load"()
  %_36000012 = call dereferenceable_or_null(16) ptr @"_SM32scala.scalanative.runtime.Boxes$D8boxToPtrR_L28scala.scalanative.unsafe.PtrEO"(ptr null, ptr %_36000009)
  %_36000013 = call dereferenceable_or_null(56) ptr @"_SM17niocharset.UTF_8$G4load"()
  %_36000014 = call dereferenceable_or_null(32) ptr @"_SM33scala.scalanative.unsafe.package$D11fromCStringL28scala.scalanative.unsafe.PtrL24java.nio.charset.CharsetL16java.lang.StringEO"(ptr nonnull dereferenceable(16) %_36000011, ptr dereferenceable_or_null(16) %_36000012, ptr nonnull dereferenceable(56) %_36000013)
  call void @"_SM31java.lang.AbstractStringBuilderD7append0L16java.lang.StringuEO"(ptr nonnull dereferenceable(24) %_38000001, ptr dereferenceable_or_null(32) %_36000014)
  %_43000001 = call nonnull dereferenceable(32) ptr @"_SM31java.lang.AbstractStringBuilderD8toStringL16java.lang.StringEO"(ptr nonnull dereferenceable(24) %_38000001)
  br label %_45000000.0
_45000000.0:
  %_45000001 = call dereferenceable_or_null(40) ptr @"scalanative_GC_alloc_small"(ptr @"_SM19java.io.IOExceptionG4type", i64 40)
  %_46000049 = getelementptr { { ptr }, ptr, ptr, ptr, i1, i1 }, { { ptr }, ptr, ptr, ptr, i1, i1 }* %_45000001, i32 0, i32 5
  %_46000050 = zext i1 true to i8
  store i8 %_46000050, ptr%_46000049, align 1
  %_46000052 = getelementptr { { ptr }, ptr, ptr, ptr, i1, i1 }, { { ptr }, ptr, ptr, ptr, i1, i1 }* %_45000001, i32 0, i32 4
  %_46000053 = zext i1 true to i8
  store i8 %_46000053, ptr%_46000052, align 1
  %_46000055 = getelementptr { { ptr }, ptr, ptr, ptr, i1, i1 }, { { ptr }, ptr, ptr, ptr, i1, i1 }* %_45000001, i32 0, i32 3
  store ptr %_43000001, ptr%_46000055, align 8
  %_45000005 = call dereferenceable_or_null(40) ptr @"_SM19java.lang.ThrowableD16fillInStackTraceL19java.lang.ThrowableEO"(ptr nonnull dereferenceable(40) %_45000001)
  br label %_46000000.0
_46000000.0:
  br label %_11000000.0
_11000000.0:
  %_11000001 = phi ptr [%_45000001, %_46000000.0], [%_34000001, %_35000000.0], [%_28000001, %_29000000.0], [%_22000001, %_23000000.0], [%_16000001, %_17000000.0], [%_9000001, %_10000000.0]
  ret ptr %_11000001
}

define void @"_SM29java.nio.file.PosixException$RE"(ptr %_1) personality ptr @__gxx_personality_v0 {
_2000000.0:
  ret void
}

define i1 @"_SM28scala.reflect.AnyValManifestD6equalsL16java.lang.ObjectzEO"(ptr %_1, ptr %_2) personality ptr @__gxx_personality_v0 {
_3000000.0:
  %_3000005 = icmp ne ptr %_1, null
  br i1 %_3000005, label %_3000003.0, label %_3000004.0
_3000003.0:
  %_3000002 = icmp eq ptr %_1, %_2
  ret i1 %_3000002
_3000004.0:
  call ptr @"_SM34scala.scalanative.runtime.package$D16throwNullPointernEO"(ptr null)
  unreachable
}

define i32 @"_SM28scala.reflect.AnyValManifestD8hashCodeiEO"(ptr %_1) alwaysinline personality ptr @__gxx_personality_v0 {
_2000000.0:
  %_2000004 = icmp ne ptr %_1, null
  br i1 %_2000004, label %_2000002.0, label %_2000003.0
_2000002.0:
  %_2000005 = getelementptr { { ptr }, i32, ptr }, { { ptr }, i32, ptr }* %_1, i32 0, i32 1
  %_2000001 = load i32, ptr %_2000005
  ret i32 %_2000001
_2000003.0:
  call ptr @"_SM34scala.scalanative.runtime.package$D16throwNullPointernEO"(ptr null)
  unreachable
}

define dereferenceable_or_null(32) ptr @"_SM28scala.reflect.AnyValManifestD8toStringL16java.lang.StringEO"(ptr %_1) alwaysinline personality ptr @__gxx_personality_v0 {
_2000000.0:
  %_2000004 = icmp ne ptr %_1, null
  br i1 %_2000004, label %_2000002.0, label %_2000003.0
_2000002.0:
  %_2000005 = getelementptr { { ptr }, i32, ptr }, { { ptr }, i32, ptr }* %_1, i32 0, i32 2
  %_2000001 = load ptr, ptr %_2000005, !dereferenceable_or_null !{i64 32}
  ret ptr %_2000001
_2000003.0:
  call ptr @"_SM34scala.scalanative.runtime.package$D16throwNullPointernEO"(ptr null)
  unreachable
}

define dereferenceable_or_null(32) ptr @"_SM22scala.reflect.ClassTagD13prettyprint$1L15java.lang.ClassL16java.lang.StringEPT22scala.reflect.ClassTag"(ptr %_1, ptr %_2) personality ptr @__gxx_personality_v0 {
_3000000.0:
  %_16000004 = icmp ne ptr %_1, null
  br i1 %_16000004, label %_16000002.0, label %_16000003.0
_16000002.0:
  %_16000006 = icmp ne ptr %_2, null
  br i1 %_16000006, label %_16000005.0, label %_16000003.0
_16000005.0:
  %_16000007 = getelementptr { { ptr }, i32, i32, ptr, i32, i32 }, { { ptr }, i32, i32, ptr, i32, i32 }* %_2, i32 0, i32 1
  %_4000001 = load i32, ptr %_16000007
  %_4000003 = icmp sge i32 %_4000001, 10
  br i1 %_4000003, label %_5000000.0, label %_6000000.0
_5000000.0:
  %_16000008 = getelementptr { { ptr }, i32, i32, ptr, i32, i32 }, { { ptr }, i32, i32, ptr, i32, i32 }* %_2, i32 0, i32 1
  %_5000001 = load i32, ptr %_16000008
  %_5000003 = icmp sle i32 %_5000001, 20
  br label %_7000000.0
_6000000.0:
  br label %_7000000.0
_7000000.0:
  %_7000001 = phi i1 [false, %_6000000.0], [%_5000003, %_5000000.0]
  br i1 %_7000001, label %_8000000.0, label %_9000000.0
_8000000.0:
  %_11000001 = call dereferenceable_or_null(24) ptr @"scalanative_GC_alloc_small"(ptr @"_SM23java.lang.StringBuilderG4type", i64 24)
  %_11000002 = call dereferenceable_or_null(16) ptr @"_SM36scala.scalanative.runtime.CharArray$D5allociL35scala.scalanative.runtime.CharArrayEO"(ptr @"_SM36scala.scalanative.runtime.CharArray$G8instance", i32 7)
  %_16000011 = getelementptr { { ptr }, i32, i1, ptr }, { { ptr }, i32, i1, ptr }* %_11000001, i32 0, i32 3
  store ptr %_11000002, ptr%_16000011, align 8
  call void @"_SM31java.lang.AbstractStringBuilderD7append0L16java.lang.StringuEO"(ptr nonnull dereferenceable(24) %_11000001, ptr @"_SM7__constG3-146")
  %_8000004 = call dereferenceable_or_null(32) ptr @"_SM15java.lang.ClassD16getComponentTypeL15java.lang.ClassEO"(ptr dereferenceable_or_null(32) %_2)
  %_8000005 = call dereferenceable_or_null(32) ptr @"_SM22scala.reflect.ClassTagD13prettyprint$1L15java.lang.ClassL16java.lang.StringEPT22scala.reflect.ClassTag"(ptr dereferenceable_or_null(8) %_1, ptr dereferenceable_or_null(32) %_8000004)
  call void @"_SM31java.lang.AbstractStringBuilderD7append0L16java.lang.StringuEO"(ptr nonnull dereferenceable(24) %_11000001, ptr dereferenceable_or_null(32) %_8000005)
  call void @"_SM31java.lang.AbstractStringBuilderD7append0L16java.lang.StringuEO"(ptr nonnull dereferenceable(24) %_11000001, ptr @"_SM7__constG3-148")
  %_14000001 = call nonnull dereferenceable(32) ptr @"_SM31java.lang.AbstractStringBuilderD8toStringL16java.lang.StringEO"(ptr nonnull dereferenceable(24) %_11000001)
  br label %_15000000.0
_9000000.0:
  %_16000015 = getelementptr { { ptr }, i32, i32, ptr, i32, i32 }, { { ptr }, i32, i32, ptr, i32, i32 }* %_2, i32 0, i32 3
  %_16000001 = load ptr, ptr %_16000015, !dereferenceable_or_null !{i64 32}
  br label %_15000000.0
_15000000.0:
  %_15000001 = phi ptr [%_16000001, %_9000000.0], [%_14000001, %_8000000.0]
  ret ptr %_15000001
_16000003.0:
  call ptr @"_SM34scala.scalanative.runtime.package$D16throwNullPointernEO"(ptr null)
  unreachable
}

define i1 @"_SM22scala.reflect.ClassTagD6equalsL16java.lang.ObjectzEO"(ptr %_1, ptr %_2) personality ptr @__gxx_personality_v0 {
_3000000.0:
  %_15000004 = icmp ne ptr %_1, null
  br i1 %_15000004, label %_15000002.0, label %_15000003.0
_15000002.0:
  %_15000008 = icmp eq ptr %_2, null
  br i1 %_15000008, label %_15000005.0, label %_15000006.0
_15000005.0:
  br label %_15000007.0
_15000006.0:
  %_15000009 = load ptr, ptr %_2
  %_15000010 = getelementptr { ptr, i32, i32, ptr }, { ptr, i32, i32, ptr }* %_15000009, i32 0, i32 1
  %_15000011 = load i32, ptr %_15000010
  %_15000012 = call i1 @"__check_class_has_trait"(i32 %_15000011, i32 36)
  br label %_15000007.0
_15000007.0:
  %_3000002 = phi i1 [%_15000012, %_15000006.0], [false, %_15000005.0]
  br i1 %_3000002, label %_4000000.0, label %_5000000.0
_4000000.0:
  %_15000013 = load ptr, ptr %_1
  %_15000014 = getelementptr { ptr, i32, i32, ptr }, { ptr, i32, i32, ptr }* %_15000013, i32 0, i32 2
  %_15000015 = load i32, ptr %_15000014
  %_15000016 = getelementptr ptr, ptr @"_SM22__scalanative_metadataG14dispatch_table", i32 1278
  %_15000017 = getelementptr ptr, ptr %_15000016, i32 %_15000015
  %_4000002 = load ptr, ptr %_15000017
  %_4000003 = call dereferenceable_or_null(32) ptr %_4000002(ptr dereferenceable_or_null(8) %_1)
  %_4000005 = icmp eq ptr %_4000003, null
  br i1 %_4000005, label %_6000000.0, label %_7000000.0
_6000000.0:
  %_15000021 = icmp eq ptr %_2, null
  br i1 %_15000021, label %_15000019.0, label %_15000018.0
_15000018.0:
  %_15000022 = load ptr, ptr %_2
  %_15000023 = getelementptr { ptr, i32, i32, ptr }, { ptr, i32, i32, ptr }* %_15000022, i32 0, i32 1
  %_15000024 = load i32, ptr %_15000023
  %_15000025 = call i1 @"__check_class_has_trait"(i32 %_15000024, i32 36)
  br i1 %_15000025, label %_15000019.0, label %_15000020.0
_15000019.0:
  %_15000027 = icmp ne ptr %_2, null
  br i1 %_15000027, label %_15000026.0, label %_15000003.0
_15000026.0:
  %_15000028 = load ptr, ptr %_2
  %_15000029 = getelementptr { ptr, i32, i32, ptr }, { ptr, i32, i32, ptr }* %_15000028, i32 0, i32 2
  %_15000030 = load i32, ptr %_15000029
  %_15000031 = getelementptr ptr, ptr @"_SM22__scalanative_metadataG14dispatch_table", i32 1278
  %_15000032 = getelementptr ptr, ptr %_15000031, i32 %_15000030
  %_6000003 = load ptr, ptr %_15000032
  %_6000004 = call dereferenceable_or_null(32) ptr %_6000003(ptr dereferenceable_or_null(8) %_2)
  %_6000006 = icmp eq ptr %_6000004, null
  br label %_8000000.0
_7000000.0:
  %_15000035 = icmp eq ptr %_2, null
  br i1 %_15000035, label %_15000034.0, label %_15000033.0
_15000033.0:
  %_15000036 = load ptr, ptr %_2
  %_15000037 = getelementptr { ptr, i32, i32, ptr }, { ptr, i32, i32, ptr }* %_15000036, i32 0, i32 1
  %_15000038 = load i32, ptr %_15000037
  %_15000039 = call i1 @"__check_class_has_trait"(i32 %_15000038, i32 36)
  br i1 %_15000039, label %_15000034.0, label %_15000020.0
_15000034.0:
  %_15000041 = icmp ne ptr %_2, null
  br i1 %_15000041, label %_15000040.0, label %_15000003.0
_15000040.0:
  %_15000042 = load ptr, ptr %_2
  %_15000043 = getelementptr { ptr, i32, i32, ptr }, { ptr, i32, i32, ptr }* %_15000042, i32 0, i32 2
  %_15000044 = load i32, ptr %_15000043
  %_15000045 = getelementptr ptr, ptr @"_SM22__scalanative_metadataG14dispatch_table", i32 1278
  %_15000046 = getelementptr ptr, ptr %_15000045, i32 %_15000044
  %_7000003 = load ptr, ptr %_15000046
  %_7000004 = call dereferenceable_or_null(32) ptr %_7000003(ptr dereferenceable_or_null(8) %_2)
  br label %_10000000.0
_10000000.0:
  %_10000002 = icmp ne ptr %_7000004, null
  br i1 %_10000002, label %_11000000.0, label %_12000000.0
_11000000.0:
  %_11000002 = icmp eq ptr %_4000003, %_7000004
  br label %_13000000.0
_12000000.0:
  br label %_14000000.0
_14000000.0:
  br label %_13000000.0
_13000000.0:
  %_13000001 = phi i1 [false, %_14000000.0], [%_11000002, %_11000000.0]
  br label %_8000000.0
_8000000.0:
  %_8000001 = phi i1 [%_13000001, %_13000000.0], [%_6000006, %_15000026.0]
  br label %_15000000.0
_5000000.0:
  br label %_15000000.0
_15000000.0:
  %_15000001 = phi i1 [false, %_5000000.0], [%_8000001, %_8000000.0]
  ret i1 %_15000001
_15000003.0:
  call ptr @"_SM34scala.scalanative.runtime.package$D16throwNullPointernEO"(ptr null)
  unreachable
_15000020.0:
  %_15000048 = phi ptr [%_2, %_15000033.0], [%_2, %_15000018.0]
  %_15000049 = phi ptr [@"_SM22scala.reflect.ClassTagG4type", %_15000033.0], [@"_SM22scala.reflect.ClassTagG4type", %_15000018.0]
  %_15000050 = load ptr, ptr %_15000048
  call ptr @"_SM34scala.scalanative.runtime.package$D14throwClassCastR_R_nEO"(ptr null, ptr %_15000050, ptr %_15000049)
  unreachable
}

define i32 @"_SM22scala.reflect.ClassTagD8hashCodeiEO"(ptr %_1) personality ptr @__gxx_personality_v0 {
_2000000.0:
  %_53000004 = icmp ne ptr %_1, null
  br i1 %_53000004, label %_53000002.0, label %_53000003.0
_53000002.0:
  %_53000005 = load ptr, ptr %_1
  %_53000006 = getelementptr { ptr, i32, i32, ptr }, { ptr, i32, i32, ptr }* %_53000005, i32 0, i32 2
  %_53000007 = load i32, ptr %_53000006
  %_53000008 = getelementptr ptr, ptr @"_SM22__scalanative_metadataG14dispatch_table", i32 1278
  %_53000009 = getelementptr ptr, ptr %_53000008, i32 %_53000007
  %_2000002 = load ptr, ptr %_53000009
  %_2000003 = call dereferenceable_or_null(32) ptr %_2000002(ptr dereferenceable_or_null(8) %_1)
  br label %_4000000.0
_4000000.0:
  %_4000002 = icmp eq ptr %_2000003, null
  br i1 %_4000002, label %_5000000.0, label %_6000000.0
_5000000.0:
  br label %_7000000.0
_6000000.0:
  br label %_8000000.0
_8000000.0:
  %_53000013 = icmp eq ptr %_2000003, null
  br i1 %_53000013, label %_53000010.0, label %_53000011.0
_53000010.0:
  br label %_53000012.0
_53000011.0:
  %_53000014 = load ptr, ptr %_2000003
  %_53000015 = getelementptr { ptr, i32, i32, ptr }, { ptr, i32, i32, ptr }* %_53000014, i32 0, i32 1
  %_53000016 = load i32, ptr %_53000015
  %_53000017 = icmp sle i32 39, %_53000016
  %_53000018 = icmp sle i32 %_53000016, 54
  %_53000019 = and i1 %_53000017, %_53000018
  br label %_53000012.0
_53000012.0:
  %_8000002 = phi i1 [%_53000019, %_53000011.0], [false, %_53000010.0]
  br i1 %_8000002, label %_9000000.0, label %_10000000.0
_9000000.0:
  %_53000023 = icmp eq ptr %_2000003, null
  br i1 %_53000023, label %_53000021.0, label %_53000020.0
_53000020.0:
  %_53000024 = load ptr, ptr %_2000003
  %_53000025 = getelementptr { ptr, i32, i32, ptr }, { ptr, i32, i32, ptr }* %_53000024, i32 0, i32 1
  %_53000026 = load i32, ptr %_53000025
  %_53000027 = icmp sle i32 39, %_53000026
  %_53000028 = icmp sle i32 %_53000026, 54
  %_53000029 = and i1 %_53000027, %_53000028
  br i1 %_53000029, label %_53000021.0, label %_53000022.0
_53000021.0:
  br label %_11000000.0
_11000000.0:
  %_53000033 = icmp eq ptr %_2000003, null
  br i1 %_53000033, label %_53000030.0, label %_53000031.0
_53000030.0:
  br label %_53000032.0
_53000031.0:
  %_53000034 = load ptr, ptr %_2000003
  %_53000035 = icmp eq ptr %_53000034, @"_SM14java.lang.LongG4type"
  br label %_53000032.0
_53000032.0:
  %_11000002 = phi i1 [%_53000035, %_53000031.0], [false, %_53000030.0]
  br i1 %_11000002, label %_12000000.0, label %_13000000.0
_12000000.0:
  %_53000038 = icmp eq ptr %_2000003, null
  br i1 %_53000038, label %_53000037.0, label %_53000036.0
_53000036.0:
  %_53000039 = load ptr, ptr %_2000003
  %_53000040 = icmp eq ptr %_53000039, @"_SM14java.lang.LongG4type"
  br i1 %_53000040, label %_53000037.0, label %_53000022.0
_53000037.0:
  %_53000042 = icmp ne ptr %_2000003, null
  br i1 %_53000042, label %_53000041.0, label %_53000003.0
_53000041.0:
  %_53000043 = getelementptr { { ptr }, i64 }, { { ptr }, i64 }* %_2000003, i32 0, i32 1
  %_12000002 = load i64, ptr %_53000043
  %_12000006 = trunc i64 %_12000002 to i32
  %_12000007 = sext i32 %_12000006 to i64
  %_12000008 = icmp eq i64 %_12000007, %_12000002
  br i1 %_12000008, label %_14000000.0, label %_15000000.0
_14000000.0:
  br label %_16000000.0
_15000000.0:
  %_53000044 = and i64 32, 63
  %_15000004 = lshr i64 %_12000002, %_53000044
  %_15000005 = xor i64 %_12000002, %_15000004
  %_15000006 = trunc i64 %_15000005 to i32
  br label %_16000000.0
_16000000.0:
  %_16000001 = phi i32 [%_15000006, %_15000000.0], [%_12000006, %_14000000.0]
  br label %_17000000.0
_13000000.0:
  br label %_18000000.0
_18000000.0:
  %_53000048 = icmp eq ptr %_2000003, null
  br i1 %_53000048, label %_53000045.0, label %_53000046.0
_53000045.0:
  br label %_53000047.0
_53000046.0:
  %_53000049 = load ptr, ptr %_2000003
  %_53000050 = icmp eq ptr %_53000049, @"_SM16java.lang.DoubleG4type"
  br label %_53000047.0
_53000047.0:
  %_18000002 = phi i1 [%_53000050, %_53000046.0], [false, %_53000045.0]
  br i1 %_18000002, label %_19000000.0, label %_20000000.0
_19000000.0:
  %_53000053 = icmp eq ptr %_2000003, null
  br i1 %_53000053, label %_53000052.0, label %_53000051.0
_53000051.0:
  %_53000054 = load ptr, ptr %_2000003
  %_53000055 = icmp eq ptr %_53000054, @"_SM16java.lang.DoubleG4type"
  br i1 %_53000055, label %_53000052.0, label %_53000022.0
_53000052.0:
  %_53000057 = icmp ne ptr %_2000003, null
  br i1 %_53000057, label %_53000056.0, label %_53000003.0
_53000056.0:
  %_53000058 = getelementptr { { ptr }, double }, { { ptr }, double }* %_2000003, i32 0, i32 1
  %_19000002 = load double, ptr %_53000058
  %_53000066 = fcmp une double %_19000002, %_19000002
  br i1 %_53000066, label %_53000059.0, label %_53000060.0
_53000059.0:
  br label %_53000065.0
_53000060.0:
  %_53000067 = fcmp ole double %_19000002, 0xc1e0000000000000
  br i1 %_53000067, label %_53000061.0, label %_53000062.0
_53000061.0:
  br label %_53000065.0
_53000062.0:
  %_53000068 = fcmp oge double %_19000002, 0x41dfffffffc00000
  br i1 %_53000068, label %_53000063.0, label %_53000064.0
_53000063.0:
  br label %_53000065.0
_53000064.0:
  %_53000069 = fptosi double %_19000002 to i32
  br label %_53000065.0
_53000065.0:
  %_19000006 = phi i32 [%_53000069, %_53000064.0], [2147483647, %_53000063.0], [-2147483648, %_53000061.0], [zeroinitializer, %_53000059.0]
  %_19000007 = sitofp i32 %_19000006 to double
  %_19000008 = fcmp oeq double %_19000007, %_19000002
  br i1 %_19000008, label %_21000000.0, label %_22000000.0
_21000000.0:
  br label %_23000000.0
_22000000.0:
  %_22000004 = fptrunc double %_19000002 to float
  %_22000005 = fpext float %_22000004 to double
  %_22000006 = fcmp oeq double %_22000005, %_19000002
  br i1 %_22000006, label %_24000000.0, label %_25000000.0
_24000000.0:
  %_24000002 = fcmp une float %_22000004, %_22000004
  br i1 %_24000002, label %_26000000.0, label %_27000000.0
_26000000.0:
  br label %_28000000.0
_27000000.0:
  %_27000002 = bitcast float %_22000004 to i32
  br label %_28000000.0
_28000000.0:
  %_28000001 = phi i32 [%_27000002, %_27000000.0], [2143289344, %_26000000.0]
  br label %_29000000.0
_25000000.0:
  %_53000077 = fcmp une double %_19000002, %_19000002
  br i1 %_53000077, label %_53000070.0, label %_53000071.0
_53000070.0:
  br label %_53000076.0
_53000071.0:
  %_53000078 = fcmp ole double %_19000002, 0xc3e0000000000000
  br i1 %_53000078, label %_53000072.0, label %_53000073.0
_53000072.0:
  br label %_53000076.0
_53000073.0:
  %_53000079 = fcmp oge double %_19000002, 0x43e0000000000000
  br i1 %_53000079, label %_53000074.0, label %_53000075.0
_53000074.0:
  br label %_53000076.0
_53000075.0:
  %_53000080 = fptosi double %_19000002 to i64
  br label %_53000076.0
_53000076.0:
  %_25000004 = phi i64 [%_53000080, %_53000075.0], [9223372036854775807, %_53000074.0], [-9223372036854775808, %_53000072.0], [zeroinitializer, %_53000070.0]
  %_25000005 = sitofp i64 %_25000004 to double
  %_25000006 = fcmp oeq double %_25000005, %_19000002
  br i1 %_25000006, label %_30000000.0, label %_31000000.0
_30000000.0:
  %_30000002 = trunc i64 %_25000004 to i32
  br label %_32000000.0
_31000000.0:
  %_31000002 = fcmp une double %_19000002, %_19000002
  br i1 %_31000002, label %_33000000.0, label %_34000000.0
_33000000.0:
